 sqlserverv8

 Timestamp is 589ba3d9 (Wed Feb  8 23:03:53 2017)

 Preferred load address is 10000000

 Start         Length     Name                   Class
 0001:00000000 00000110H .text$di                CODE
 0001:00000110 00049346H .text$mn                CODE
 0001:00049456 0000105aH .text$x                 CODE
 0001:0004a4b0 0000009dH .text$yd                CODE
 0002:00000000 00000320H .idata$5                DATA
 0002:00000320 00000004H .00cfg                  DATA
 0002:00000324 00000004H .CRT$XCA                DATA
 0002:00000328 00000014H .CRT$XCC                DATA
 0002:0000033c 00000008H .CRT$XCL                DATA
 0002:00000344 0000001cH .CRT$XCU                DATA
 0002:00000360 00000004H .CRT$XCZ                DATA
 0002:00000364 00000004H .CRT$XIA                DATA
 0002:00000368 00000018H .CRT$XIC                DATA
 0002:00000380 00000004H .CRT$XIZ                DATA
 0002:00000384 00000004H .CRT$XLA                DATA
 0002:00000388 00000004H .CRT$XLZ                DATA
 0002:0000038c 00000004H .CRT$XPA                DATA
 0002:00000390 00000004H .CRT$XPB                DATA
 0002:00000394 00000008H .CRT$XPX                DATA
 0002:0000039c 00000004H .CRT$XPXA               DATA
 0002:000003a0 00000004H .CRT$XPZ                DATA
 0002:000003a4 00000004H .CRT$XTA                DATA
 0002:000003a8 00000008H .CRT$XTZ                DATA
 0002:000003b0 0000e8e4H .rdata                  DATA
 0002:0000ec94 00000018H .rdata$T                DATA
 0002:0000ecac 00001ea4H .rdata$r                DATA
 0002:00010b50 00000194H .rdata$sxdata           DATA
 0002:00010ce4 0000042cH .rdata$zzzdbg           DATA
 0002:00011110 00000004H .rtc$IAA                DATA
 0002:00011114 00000004H .rtc$IZZ                DATA
 0002:00011118 00000004H .rtc$TAA                DATA
 0002:0001111c 00000004H .rtc$TZZ                DATA
 0002:00011120 00001fa0H .xdata$x                DATA
 0002:000130c0 00000058H .edata                  DATA
 0002:00013118 0000003cH .idata$2                DATA
 0002:00013154 00000014H .idata$3                DATA
 0002:00013168 00000320H .idata$4                DATA
 0002:00013488 00001656H .idata$6                DATA
 0003:00000000 000009b0H .data                   DATA
 0003:000009b0 000014b8H .data$r                 DATA
 0003:00001e68 00000fe4H .bss                    DATA
 0004:00000000 000000c4H .gfids$x                DATA
 0004:000000c4 00000a88H .gfids$y                DATA
 0005:00000000 00000004H .tls                    DATA
 0005:00000004 00000004H .tls$                   DATA
 0005:00000008 00000001H .tls$ZZZ                DATA
 0006:00000000 00000060H .rsrc$01                DATA
 0006:00000060 00000180H .rsrc$02                DATA

  Address         Publics by Value              Rva+Base       Lib:Object

 0000:00000000       ___guard_fids_count        00000000     <absolute>
 0000:00000000       ___guard_longjmp_count     00000000     <absolute>
 0000:00000000       ___guard_longjmp_table     00000000     <absolute>
 0000:00000000       __except_list              00000000     <absolute>
 0000:00000000       ___guard_iat_table         00000000     <absolute>
 0000:00000000       ___guard_iat_count         00000000     <absolute>
 0000:00000000       ___guard_fids_table        00000000     <absolute>
 0000:00000000       ___dynamic_value_reloc_table 00000000     <absolute>
 0000:0000002c       __tls_array                0000002c     <absolute>
 0000:00000065       ___safe_se_handler_count   00000065     <absolute>
 0000:00000100       ___guard_flags             00000100     <absolute>
 0000:00000000       ___ImageBase               10000000     <linker-defined>
 0001:00000110       ??1_Ref_count_base@std@@UAE@XZ 10001110 f i OdbcHandle.obj
 0001:00000120       ?_Decref@_Ref_count_base@std@@QAEXXZ 10001120 f i OdbcHandle.obj
 0001:00000150       ?_Get_deleter@_Ref_count_base@std@@UBEPAXABVtype_info@@@Z 10001150 f i OdbcHandle.obj
 0001:00000160       ??_G_Ref_count_base@std@@UAEPAXI@Z 10001160 f i OdbcHandle.obj
 0001:00000160       ??_E_Ref_count_base@std@@UAEPAXI@Z 10001160 f i * CIL library *:* CIL module *
 0001:00000190       ??0OdbcError@mssql@@QAE@PBD0J@Z 10001190 f i OdbcHandle.obj
 0001:00000220       ?LastError@OdbcHandle@mssql@@QBE?AV?$shared_ptr@VOdbcError@mssql@@@std@@XZ 10001220 f   OdbcHandle.obj
 0001:00000440       ??1?$basic_string@DU?$char_traits@D@std@@V?$allocator@D@2@@std@@QAE@XZ 10001440 f i OdbcHandle.obj
 0001:00000480       ??0?$basic_string@DU?$char_traits@D@std@@V?$allocator@D@2@@std@@QAE@PBD@Z 10001480 f i OdbcHandle.obj
 0001:000004d0       ?_Reserve@?$vector@_WV?$allocator@_W@std@@@std@@IAEXI@Z 100014d0 f i OdbcHandle.obj
 0001:000004d0       ?_Reserve@?$vector@GV?$allocator@G@std@@@std@@IAEXI@Z 100014d0 f i OdbcStatement.obj
 0001:00000530       ?_Tidy@?$basic_string@DU?$char_traits@D@std@@V?$allocator@D@2@@std@@QAEX_NI@Z 10001530 f i OdbcHandle.obj
 0001:00000590       ?assign@?$basic_string@DU?$char_traits@D@std@@V?$allocator@D@2@@std@@QAEAAV12@PBDI@Z 10001590 f i OdbcHandle.obj
 0001:00000690       ?assign@?$basic_string@DU?$char_traits@D@std@@V?$allocator@D@2@@std@@QAEAAV12@ABV12@II@Z 10001690 f i OdbcHandle.obj
 0001:000007a0       ?_Reallocate@?$vector@_WV?$allocator@_W@std@@@std@@IAEXI@Z 100017a0 f i OdbcHandle.obj
 0001:000007a0       ?_Reallocate@?$vector@GV?$allocator@G@std@@@std@@IAEXI@Z 100017a0 f i OdbcStatement.obj
 0001:00000840       ?deallocate@?$_Wrap_alloc@V?$allocator@_W@std@@@std@@QAEXPA_WI@Z 10001840 f i OdbcHandle.obj
 0001:00000840       ?deallocate@?$_Wrap_alloc@V?$allocator@G@std@@@std@@QAEXPAGI@Z 10001840 f i OdbcStatement.obj
 0001:000008a0       ?deallocate@?$_Wrap_alloc@V?$allocator@D@std@@@std@@QAEXPADI@Z 100018a0 f i OdbcHandle.obj
 0001:000008a0       ?deallocate@?$allocator@D@std@@QAEXPADI@Z 100018a0 f i OdbcHandle.obj
 0001:000008f0       ?_Grow@?$basic_string@DU?$char_traits@D@std@@V?$allocator@D@2@@std@@QAE_NI_N@Z 100018f0 f i OdbcHandle.obj
 0001:00000960       ?erase@?$basic_string@DU?$char_traits@D@std@@V?$allocator@D@2@@std@@QAEAAV12@II@Z 10001960 f i OdbcHandle.obj
 0001:00000a00       ?allocate@?$_Wrap_alloc@V?$allocator@G@std@@@std@@QAEPAGI@Z 10001a00 f i OdbcStatement.obj
 0001:00000a00       ?allocate@?$_Wrap_alloc@V?$allocator@_W@std@@@std@@QAEPA_WI@Z 10001a00 f i OdbcHandle.obj
 0001:00000a60       ?_Copy@?$basic_string@DU?$char_traits@D@std@@V?$allocator@D@2@@std@@QAEXII@Z 10001a60 f i OdbcHandle.obj
 0001:00000b50       ?allocate@?$_Wrap_alloc@V?$allocator@D@std@@@std@@QAEPADI@Z 10001b50 f i OdbcHandle.obj
 0001:00000b50       ?allocate@?$allocator@D@std@@QAEPADI@Z 10001b50 f i OdbcHandle.obj
 0001:00000ba0       ?_Delete_this@?$_Ref_count_obj@VOdbcConnectionHandle@mssql@@@std@@EAEXXZ 10001ba0 f i OdbcConnection.obj
 0001:00000ba0       ?_Delete_this@?$_Ref_count_obj@VOdbcStatementHandle@mssql@@@std@@EAEXXZ 10001ba0 f i OdbcStatement.obj
 0001:00000ba0       ?_Delete_this@?$_Ref_count_del@VResultSet@mssql@@U?$default_delete@VResultSet@mssql@@@std@@@std@@EAEXXZ 10001ba0 f i OdbcStatement.obj
 0001:00000ba0       ?_Delete_this@?$_Ref_count_obj@VPrepareOperation@mssql@@@std@@EAEXXZ 10001ba0 f i OdbcConnectionBridge.obj
 0001:00000ba0       ?_Delete_this@?$_Ref_count_obj@VBoolColumn@mssql@@@std@@EAEXXZ 10001ba0 f i OdbcStatement.obj
 0001:00000ba0       ?_Delete_this@?$_Ref_count_obj@V?$vector@UtagTIMESTAMP_STRUCT@@V?$allocator@UtagTIMESTAMP_STRUCT@@@std@@@std@@@std@@EAEXXZ 10001ba0 f i OdbcStatement.obj
 0001:00000ba0       ?_Delete_this@?$_Ref_count_obj@V?$vector@_JV?$allocator@_J@std@@@std@@@std@@EAEXXZ 10001ba0 f i OdbcStatement.obj
 0001:00000ba0       ?_Delete_this@?$_Ref_count_obj@VOdbcStatement@mssql@@@std@@EAEXXZ 10001ba0 f i OdbcStatementCache.obj
 0001:00000ba0       ?_Delete_this@?$_Ref_count_obj@VProcedureOperation@mssql@@@std@@EAEXXZ 10001ba0 f i OdbcConnectionBridge.obj
 0001:00000ba0       ?_Delete_this@?$_Ref_count_obj@VDatumStorage@mssql@@@std@@EAEXXZ 10001ba0 f i OdbcStatement.obj
 0001:00000ba0       ?_Delete_this@?$_Ref_count_obj@VQueryPreparedOperation@mssql@@@std@@EAEXXZ 10001ba0 f i OdbcConnectionBridge.obj
 0001:00000ba0       ?_Delete_this@?$_Ref_count_obj@VIntColumn@mssql@@@std@@EAEXXZ 10001ba0 f i OdbcStatement.obj
 0001:00000ba0       ?_Delete_this@?$_Ref_count_obj@V?$vector@UtagSS_TIMESTAMPOFFSET_STRUCT@@V?$allocator@UtagSS_TIMESTAMPOFFSET_STRUCT@@@std@@@std@@@std@@EAEXXZ 10001ba0 f i OdbcStatement.obj
 0001:00000ba0       ?_Delete_this@?$_Ref_count_obj@VOdbcError@mssql@@@std@@EAEXXZ 10001ba0 f i OdbcHandle.obj
 0001:00000ba0       ?_Delete_this@?$_Ref_count_obj@VTimestampColumn@mssql@@@std@@EAEXXZ 10001ba0 f i OdbcStatement.obj
 0001:00000ba0       ?_Delete_this@?$_Ref_count_obj@VReadRowOperation@mssql@@@std@@EAEXXZ 10001ba0 f i OdbcConnectionBridge.obj
 0001:00000ba0       ?_Delete_this@?$_Ref_count_obj@VStringColumn@mssql@@@std@@EAEXXZ 10001ba0 f i OdbcStatement.obj
 0001:00000ba0       ?_Delete_this@?$_Ref_count_obj@V?$vector@UtagDATE_STRUCT@@V?$allocator@UtagDATE_STRUCT@@@std@@@std@@@std@@EAEXXZ 10001ba0 f i BoundDatum.obj
 0001:00000ba0       ?_Delete_this@?$_Ref_count_obj@V?$vector@UtagSQL_NUMERIC_STRUCT@@V?$allocator@UtagSQL_NUMERIC_STRUCT@@@std@@@std@@@std@@EAEXXZ 10001ba0 f i BoundDatum.obj
 0001:00000ba0       ?_Delete_this@?$_Ref_count_obj@VQueryOperation@mssql@@@std@@EAEXXZ 10001ba0 f i OdbcConnectionBridge.obj
 0001:00000ba0       ?_Delete_this@?$_Ref_count_obj@VBinaryColumn@mssql@@@std@@EAEXXZ 10001ba0 f i OdbcStatement.obj
 0001:00000ba0       ?_Delete_this@?$_Ref_count_obj@V?$vector@DV?$allocator@D@std@@@std@@@std@@EAEXXZ 10001ba0 f i OdbcStatement.obj
 0001:00000ba0       ?_Delete_this@?$_Ref_count_obj@VBeginTranOperation@mssql@@@std@@EAEXXZ 10001ba0 f i OdbcConnectionBridge.obj
 0001:00000ba0       ?_Delete_this@?$_Ref_count_obj@VNullColumn@mssql@@@std@@EAEXXZ 10001ba0 f i OdbcStatement.obj
 0001:00000ba0       ?_Delete_this@?$_Ref_count_obj@VUnbindOperation@mssql@@@std@@EAEXXZ 10001ba0 f i OdbcConnectionBridge.obj
 0001:00000ba0       ?_Delete_this@?$_Ref_count_obj@VOperationManager@mssql@@@std@@EAEXXZ 10001ba0 f i OdbcConnection.obj
 0001:00000ba0       ?_Delete_this@?$_Ref_count_obj@V?$vector@IV?$allocator@I@std@@@std@@@std@@EAEXXZ 10001ba0 f i BoundDatum.obj
 0001:00000ba0       ?_Delete_this@?$_Ref_count_obj@VOdbcConnection@mssql@@@std@@EAEXXZ 10001ba0 f i OdbcConnectionBridge.obj
 0001:00000ba0       ?_Delete_this@?$_Ref_count_obj@VReadColumnOperation@mssql@@@std@@EAEXXZ 10001ba0 f i OdbcConnectionBridge.obj
 0001:00000ba0       ?_Delete_this@?$_Ref_count_obj@V?$vector@HV?$allocator@H@std@@@std@@@std@@EAEXXZ 10001ba0 f i BoundDatum.obj
 0001:00000ba0       ?_Delete_this@?$_Ref_count_obj@V?$vector@UtagSS_TIME2_STRUCT@@V?$allocator@UtagSS_TIME2_STRUCT@@@std@@@std@@@std@@EAEXXZ 10001ba0 f i BoundDatum.obj
 0001:00000ba0       ?_Delete_this@?$_Ref_count_obj@VEndTranOperation@mssql@@@std@@EAEXXZ 10001ba0 f i OdbcConnectionBridge.obj
 0001:00000ba0       ?_Delete_this@?$_Ref_count_obj@VOpenOperation@mssql@@@std@@EAEXXZ 10001ba0 f i OdbcConnectionBridge.obj
 0001:00000ba0       ?_Delete_this@?$_Ref_count_obj@VFreeStatementOperation@mssql@@@std@@EAEXXZ 10001ba0 f i OdbcConnectionBridge.obj
 0001:00000ba0       ?_Delete_this@?$_Ref_count_obj@VBoundDatumSet@mssql@@@std@@EAEXXZ 10001ba0 f i OdbcStatement.obj
 0001:00000ba0       ?_Delete_this@?$_Ref_count_obj@VReadNextResultOperation@mssql@@@std@@EAEXXZ 10001ba0 f i OdbcConnectionBridge.obj
 0001:00000ba0       ?_Delete_this@?$_Ref_count_obj@VCloseOperation@mssql@@@std@@EAEXXZ 10001ba0 f i OdbcConnectionBridge.obj
 0001:00000ba0       ?_Delete_this@?$_Ref_count_obj@V?$vector@NV?$allocator@N@std@@@std@@@std@@EAEXXZ 10001ba0 f i OdbcStatement.obj
 0001:00000ba0       ?_Delete_this@?$_Ref_count_obj@VNumberColumn@mssql@@@std@@EAEXXZ 10001ba0 f i OdbcStatement.obj
 0001:00000ba0       ?_Delete_this@?$_Ref_count_obj@V?$vector@GV?$allocator@G@std@@@std@@@std@@EAEXXZ 10001ba0 f i OdbcStatement.obj
 0001:00000ba0       ?_Delete_this@?$_Ref_count_obj@VOdbcStatementCache@mssql@@@std@@EAEXXZ 10001ba0 f i OdbcConnection.obj
 0001:00000bb0       ?_Destroy@?$_Ref_count_obj@VOdbcError@mssql@@@std@@EAEXXZ 10001bb0 f i OdbcHandle.obj
 0001:00000bc0       ??1OdbcError@mssql@@QAE@XZ 10001bc0 f i OdbcHandle.obj
 0001:00000c30       ??_E?$_Ref_count_obj@VOdbcError@mssql@@@std@@UAEPAXI@Z 10001c30 f i * CIL library *:* CIL module *
 0001:00000c30       ??_G?$_Ref_count_obj@VOdbcError@mssql@@@std@@UAEPAXI@Z 10001c30 f i OdbcHandle.obj
 0001:00000c60       ?More@Column@mssql@@UBE_NXZ 10001c60 f i Column.obj
 0001:00000c70       ??_EColumn@mssql@@UAEPAXI@Z 10001c70 f i * CIL library *:* CIL module *
 0001:00000c70       ??_GNullColumn@mssql@@UAEPAXI@Z 10001c70 f i OdbcStatement.obj
 0001:00000c70       ??_GColumn@mssql@@UAEPAXI@Z 10001c70 f i Column.obj
 0001:00000c70       ??_ENullColumn@mssql@@UAEPAXI@Z 10001c70 f i * CIL library *:* CIL module *
 0001:00000d10       ?DaysSinceEpoch@TimestampColumn@mssql@@ABENFGG@Z 10001d10 f   TimestampColumn.obj
 0001:00000e70       ?MillisecondsFromDate@TimestampColumn@mssql@@AAEXABUtagTIMESTAMP_STRUCT@@@Z 10001e70 f   TimestampColumn.obj
 0001:00000ed0       ?MillisecondsFromDate@TimestampColumn@mssql@@AAEXABUtagSS_TIMESTAMPOFFSET_STRUCT@@@Z 10001ed0 f   TimestampColumn.obj
 0001:00001010       ?YearFromDay@TimestampColumn@mssql@@CA_JAA_J@Z 10002010 f   TimestampColumn.obj
 0001:000011f0       ?DateFromMilliseconds@TimestampColumn@mssql@@ABEXAAUtagSS_TIMESTAMPOFFSET_STRUCT@@@Z 100021f0 f   TimestampColumn.obj
 0001:00001400       ?NODE_SET_PROTOTYPE_METHOD@node@@YAXV?$Local@VFunctionTemplate@v8@@@v8@@PBDP6AXABV?$FunctionCallbackInfo@VValue@v8@@@3@@Z@Z 10002400 f i Connection.obj
 0001:000014c0       ?Wrap@ObjectWrap@node@@IAEXV?$Local@VObject@v8@@@v8@@@Z 100024c0 f i Connection.obj
 0001:00001570       ?Ref@ObjectWrap@node@@MAEXXZ 10002570 f i Connection.obj
 0001:000015a0       ?Unref@ObjectWrap@node@@MAEXXZ 100025a0 f i Connection.obj
 0001:00001630       ?WeakCallback@ObjectWrap@node@@CAXABV?$WeakCallbackInfo@VObjectWrap@node@@@v8@@@Z 10002630 f i Connection.obj
 0001:00001680       ??_GObjectWrap@node@@UAEPAXI@Z 10002680 f i Connection.obj
 0001:00001680       ??_EObjectWrap@node@@UAEPAXI@Z 10002680 f i * CIL library *:* CIL module *
 0001:00001700       ??_GConnection@mssql@@UAEPAXI@Z 10002700 f i Connection.obj
 0001:00001700       ??_EConnection@mssql@@UAEPAXI@Z 10002700 f i * CIL library *:* CIL module *
 0001:00001720       ?api@Connection@mssql@@CAXAAV?$Local@VFunctionTemplate@v8@@@v8@@@Z 10002720 f   Connection.obj
 0001:00001820       ?Initialize@Connection@mssql@@SAXV?$Local@VObject@v8@@@v8@@@Z 10002820 f   Connection.obj
 0001:00001970       ??1Connection@mssql@@UAE@XZ 10002970 f   Connection.obj
 0001:00001a20       ?Close@Connection@mssql@@SAXABV?$FunctionCallbackInfo@VValue@v8@@@v8@@@Z 10002a20 f   Connection.obj
 0001:00001a70       ?BeginTransaction@Connection@mssql@@SAXABV?$FunctionCallbackInfo@VValue@v8@@@v8@@@Z 10002a70 f   Connection.obj
 0001:00001ac0       ?Commit@Connection@mssql@@SAXABV?$FunctionCallbackInfo@VValue@v8@@@v8@@@Z 10002ac0 f   Connection.obj
 0001:00001b10       ?Rollback@Connection@mssql@@SAXABV?$FunctionCallbackInfo@VValue@v8@@@v8@@@Z 10002b10 f   Connection.obj
 0001:00001b60       ?New@Connection@mssql@@SAXABV?$FunctionCallbackInfo@VValue@v8@@@v8@@@Z 10002b60 f   Connection.obj
 0001:00001bf0       ?Query@Connection@mssql@@SAXABV?$FunctionCallbackInfo@VValue@v8@@@v8@@@Z 10002bf0 f   Connection.obj
 0001:00001c90       ?Prepare@Connection@mssql@@SAXABV?$FunctionCallbackInfo@VValue@v8@@@v8@@@Z 10002c90 f   Connection.obj
 0001:00001d10       ?BindQuery@Connection@mssql@@SAXABV?$FunctionCallbackInfo@VValue@v8@@@v8@@@Z 10002d10 f   Connection.obj
 0001:00001d90       ?CallProcedure@Connection@mssql@@SAXABV?$FunctionCallbackInfo@VValue@v8@@@v8@@@Z 10002d90 f   Connection.obj
 0001:00001e30       ?Unbind@Connection@mssql@@SAXABV?$FunctionCallbackInfo@VValue@v8@@@v8@@@Z 10002e30 f   Connection.obj
 0001:00001ea0       ?FreeStatement@Connection@mssql@@SAXABV?$FunctionCallbackInfo@VValue@v8@@@v8@@@Z 10002ea0 f   Connection.obj
 0001:00001f10       ?ReadRow@Connection@mssql@@SAXABV?$FunctionCallbackInfo@VValue@v8@@@v8@@@Z 10002f10 f   Connection.obj
 0001:00001f80       ?ReadColumn@Connection@mssql@@SAXABV?$FunctionCallbackInfo@VValue@v8@@@v8@@@Z 10002f80 f   Connection.obj
 0001:00002000       ?ReadNextResult@Connection@mssql@@SAXABV?$FunctionCallbackInfo@VValue@v8@@@v8@@@Z 10003000 f   Connection.obj
 0001:00002070       ?Open@Connection@mssql@@SAXABV?$FunctionCallbackInfo@VValue@v8@@@v8@@@Z 10003070 f   Connection.obj
 0001:000020f0       ??$Unwrap@VConnection@mssql@@@ObjectWrap@node@@SAPAVConnection@mssql@@V?$Local@VObject@v8@@@v8@@@Z 100030f0 f i Connection.obj
 0001:00002160       ?InitializeEnvironment@OdbcConnection@mssql@@SA_NXZ 10003160 f   OdbcConnection.obj
 0001:00002200       ??0OdbcConnection@mssql@@QAE@XZ 10003200 f   OdbcConnection.obj
 0001:000022a0       ??1OdbcConnection@mssql@@QAE@XZ 100032a0 f   OdbcConnection.obj
 0001:00002350       ?ReturnOdbcError@OdbcConnection@mssql@@AAE_NXZ 10003350 f   OdbcConnection.obj
 0001:00002420       ?TryOpen@OdbcConnection@mssql@@QAE_NABV?$basic_string@_WU?$char_traits@_W@std@@V?$allocator@_W@2@@std@@H@Z 10003420 f   OdbcConnection.obj
 0001:00002700       ?send@OdbcConnection@mssql@@QBEXV?$shared_ptr@VOdbcOperation@mssql@@@std@@@Z 10003700 f   OdbcConnection.obj
 0001:000027f0       ?_Destroy@?$_Ref_count_obj@VOdbcStatementCache@mssql@@@std@@EAEXXZ 100037f0 f i OdbcConnection.obj
 0001:00002840       ?_Destroy@?$_Ref_count_obj@VOdbcStatementHandle@mssql@@@std@@EAEXXZ 10003840 f i OdbcStatement.obj
 0001:00002840       ?_Destroy@?$_Ref_count_obj@VOdbcConnectionHandle@mssql@@@std@@EAEXXZ 10003840 f i OdbcConnection.obj
 0001:00002860       ?_Destroy@?$_Ref_count_obj@VOperationManager@mssql@@@std@@EAEXXZ 10003860 f i OdbcConnection.obj
 0001:00002890       ??$?0$$V@?$_Ref_count_obj@VOperationManager@mssql@@@std@@QAE@XZ 10003890 f i OdbcConnection.obj
 0001:00002900       ??_G?$_Ref_count_obj@VOdbcConnection@mssql@@@std@@UAEPAXI@Z 10003900 f i OdbcConnectionBridge.obj
 0001:00002900       ??_E?$_Ref_count_obj@VOdbcConnection@mssql@@@std@@UAEPAXI@Z 10003900 f i * CIL library *:* CIL module *
 0001:00002900       ??_E?$_Ref_count_obj@VOperationManager@mssql@@@std@@UAEPAXI@Z 10003900 f i * CIL library *:* CIL module *
 0001:00002900       ??_G?$_Ref_count_obj@VOperationManager@mssql@@@std@@UAEPAXI@Z 10003900 f i OdbcConnection.obj
 0001:00002930       ??_E?$_Ref_count_obj@VBoolColumn@mssql@@@std@@UAEPAXI@Z 10003930 f i * CIL library *:* CIL module *
 0001:00002930       ??_G?$_Ref_count_obj@VOdbcStatementHandle@mssql@@@std@@UAEPAXI@Z 10003930 f i OdbcStatement.obj
 0001:00002930       ??_G?$_Ref_count_obj@VOdbcConnectionHandle@mssql@@@std@@UAEPAXI@Z 10003930 f i OdbcConnection.obj
 0001:00002930       ??_E?$_Ref_count_obj@VOdbcStatementHandle@mssql@@@std@@UAEPAXI@Z 10003930 f i * CIL library *:* CIL module *
 0001:00002930       ??_G?$_Ref_count_obj@VBoolColumn@mssql@@@std@@UAEPAXI@Z 10003930 f i OdbcStatement.obj
 0001:00002930       ??_E?$_Ref_count_obj@VOdbcConnectionHandle@mssql@@@std@@UAEPAXI@Z 10003930 f i * CIL library *:* CIL module *
 0001:00002960       ??_G?$_Ref_count_obj@VOdbcStatementCache@mssql@@@std@@UAEPAXI@Z 10003960 f i OdbcConnection.obj
 0001:00002960       ??_E?$_Ref_count_obj@VOdbcStatementCache@mssql@@@std@@UAEPAXI@Z 10003960 f i * CIL library *:* CIL module *
 0001:00002960       ??_E?$_Ref_count_obj@VBinaryColumn@mssql@@@std@@UAEPAXI@Z 10003960 f i * CIL library *:* CIL module *
 0001:00002960       ??_G?$_Ref_count_obj@VBinaryColumn@mssql@@@std@@UAEPAXI@Z 10003960 f i OdbcStatement.obj
 0001:00002990       ??$?0VProcedureOperation@mssql@@X@?$shared_ptr@VOdbcOperation@mssql@@@std@@QAE@ABV?$shared_ptr@VProcedureOperation@mssql@@@1@@Z 10003990 f i OdbcConnectionBridge.obj
 0001:00002990       ??0?$shared_ptr@VDatumStorage@mssql@@@std@@QAE@ABV01@@Z 10003990 f i OdbcStatement.obj
 0001:00002990       ??0?$shared_ptr@VOdbcConnectionHandle@mssql@@@std@@QAE@ABV01@@Z 10003990 f i OdbcConnection.obj
 0001:00002990       ??$?0VQueryPreparedOperation@mssql@@X@?$shared_ptr@VOdbcOperation@mssql@@@std@@QAE@ABV?$shared_ptr@VQueryPreparedOperation@mssql@@@1@@Z 10003990 f i OdbcConnectionBridge.obj
 0001:00002990       ??0?$shared_ptr@VOdbcConnection@mssql@@@std@@QAE@ABV01@@Z 10003990 f i OdbcConnectionBridge.obj
 0001:00002990       ??0?$shared_ptr@VBoundDatumSet@mssql@@@std@@QAE@ABV01@@Z 10003990 f i OdbcStatement.obj
 0001:00002990       ??$?0VStringColumn@mssql@@X@?$shared_ptr@VColumn@mssql@@@std@@QAE@ABV?$shared_ptr@VStringColumn@mssql@@@1@@Z 10003990 f i OdbcStatement.obj
 0001:00002990       ??$?0VQueryOperation@mssql@@X@?$shared_ptr@VOdbcOperation@mssql@@@std@@QAE@ABV?$shared_ptr@VQueryOperation@mssql@@@1@@Z 10003990 f i OdbcConnectionBridge.obj
 0001:00002a00       ??0ResultSet@mssql@@QAE@H@Z 10003a00 f i OdbcStatement.obj
 0001:00002a80       ?SetColumn@ResultSet@mssql@@QAEXV?$shared_ptr@VColumn@mssql@@@std@@@Z 10003a80 f i OdbcStatement.obj
 0001:00002b00       ??0DatumStorage@mssql@@QAE@XZ 10003b00 f i OdbcStatement.obj
 0001:00002ba0       ?ReserveUint16@DatumStorage@mssql@@QAEXI@Z 10003ba0 f i OdbcStatement.obj
 0001:00002c30       ?ReserveInt64@DatumStorage@mssql@@QAEXI@Z 10003c30 f i OdbcStatement.obj
 0001:00002cc0       ?ReserveDouble@DatumStorage@mssql@@QAEXI@Z 10003cc0 f i OdbcStatement.obj
 0001:00002d50       ?ReserveTimestamp@DatumStorage@mssql@@QAEXI@Z 10003d50 f i OdbcStatement.obj
 0001:00002de0       ?ReserveTimestampOffset@DatumStorage@mssql@@QAEXI@Z 10003de0 f i OdbcStatement.obj
 0001:00002e80       ?ToValue@IntColumn@mssql@@UAE?AV?$Local@VValue@v8@@@v8@@XZ 10003e80 f i OdbcStatement.obj
 0001:00002eb0       ??_GIntColumn@mssql@@UAEPAXI@Z 10003eb0 f i OdbcStatement.obj
 0001:00002eb0       ??_GNumberColumn@mssql@@UAEPAXI@Z 10003eb0 f i OdbcStatement.obj
 0001:00002eb0       ??_GBinaryColumn@mssql@@UAEPAXI@Z 10003eb0 f i OdbcStatement.obj
 0001:00002eb0       ??_EIntColumn@mssql@@UAEPAXI@Z 10003eb0 f i * CIL library *:* CIL module *
 0001:00002eb0       ??_ENumberColumn@mssql@@UAEPAXI@Z 10003eb0 f i * CIL library *:* CIL module *
 0001:00002eb0       ??_EBinaryColumn@mssql@@UAEPAXI@Z 10003eb0 f i * CIL library *:* CIL module *
 0001:00002ee0       ?ToValue@BoolColumn@mssql@@UAE?AV?$Local@VValue@v8@@@v8@@XZ 10003ee0 f i OdbcStatement.obj
 0001:00002f00       ??_EBoolColumn@mssql@@UAEPAXI@Z 10003f00 f i * CIL library *:* CIL module *
 0001:00002f00       ??_GBoolColumn@mssql@@UAEPAXI@Z 10003f00 f i OdbcStatement.obj
 0001:00002f30       ?CreateCompletionArg@CloseOperation@mssql@@UAE?AV?$Local@VValue@v8@@@v8@@XZ 10003f30 f i CloseOperation.obj
 0001:00002f30       ?CreateCompletionArg@FreeStatementOperation@mssql@@UAE?AV?$Local@VValue@v8@@@v8@@XZ 10003f30 f i FreeStatementOperation.obj
 0001:00002f30       ?ToValue@NullColumn@mssql@@UAE?AV?$Local@VValue@v8@@@v8@@XZ 10003f30 f i OdbcStatement.obj
 0001:00002f30       ?CreateCompletionArg@EndTranOperation@mssql@@UAE?AV?$Local@VValue@v8@@@v8@@XZ 10003f30 f i EndTranOperation.obj
 0001:00002f30       ?CreateCompletionArg@BeginTranOperation@mssql@@UAE?AV?$Local@VValue@v8@@@v8@@XZ 10003f30 f i BeginTranOperation.obj
 0001:00002f50       ?ToValue@NumberColumn@mssql@@UAE?AV?$Local@VValue@v8@@@v8@@XZ 10003f50 f i OdbcStatement.obj
 0001:00002f90       ??0TimestampColumn@mssql@@QAE@V?$shared_ptr@VDatumStorage@mssql@@@std@@@Z 10003f90 f i OdbcStatement.obj
 0001:00003000       ?ToValue@TimestampColumn@mssql@@UAE?AV?$Local@VValue@v8@@@v8@@XZ 10004000 f i OdbcStatement.obj
 0001:00003040       ??_ETimestampColumn@mssql@@UAEPAXI@Z 10004040 f i * CIL library *:* CIL module *
 0001:00003040       ??_GTimestampColumn@mssql@@UAEPAXI@Z 10004040 f i OdbcStatement.obj
 0001:00003070       ??0BinaryColumn@mssql@@QAE@V?$shared_ptr@VDatumStorage@mssql@@@std@@I_N@Z 10004070 f i OdbcStatement.obj
 0001:00003110       ?ToValue@BinaryColumn@mssql@@UAE?AV?$Local@VValue@v8@@@v8@@XZ 10004110 f i OdbcStatement.obj
 0001:00003150       ?do_decimal_point@?$numpunct@D@std@@MBEDXZ 10004150 f i QueryOperation.obj
 0001:00003150       ?More@BinaryColumn@mssql@@UBE_NXZ 10004150 f i OdbcStatement.obj
 0001:00003160       ?deleteBuffer@BinaryColumn@mssql@@CAXPADPAX@Z 10004160 f i OdbcStatement.obj
 0001:00003170       ??0StringColumn@mssql@@QAE@V?$shared_ptr@VDatumStorage@mssql@@@std@@I@Z 10004170 f i OdbcStatement.obj
 0001:00003220       ??0StringColumn@mssql@@QAE@V?$shared_ptr@VDatumStorage@mssql@@@std@@I_N@Z 10004220 f i OdbcStatement.obj
 0001:000032e0       ?ToValue@StringColumn@mssql@@UAE?AV?$Local@VValue@v8@@@v8@@XZ 100042e0 f i OdbcStatement.obj
 0001:00003320       ?More@StringColumn@mssql@@UBE_NXZ 10004320 f i OdbcStatement.obj
 0001:00003330       ??_GStringColumn@mssql@@UAEPAXI@Z 10004330 f i OdbcStatement.obj
 0001:00003330       ??_EStringColumn@mssql@@UAEPAXI@Z 10004330 f i * CIL library *:* CIL module *
 0001:00003390       ??1OdbcStatement@mssql@@UAE@XZ 10004390 f   OdbcStatement.obj
 0001:000034a0       ??_EOdbcStatement@mssql@@UAEPAXI@Z 100044a0 f i * CIL library *:* CIL module *
 0001:000034a0       ??_GOdbcStatement@mssql@@UAEPAXI@Z 100044a0 f i OdbcStatement.obj
 0001:000034c0       ??0OdbcStatement@mssql@@QAE@JV?$shared_ptr@VOdbcConnectionHandle@mssql@@@std@@@Z 100044c0 f   OdbcStatement.obj
 0001:000036a0       ?applyPrecision@OdbcStatement@mssql@@ABEXABVBoundDatum@2@H@Z 100046a0 f   OdbcStatement.obj
 0001:00003730       ?BindParams@OdbcStatement@mssql@@AAE_NV?$shared_ptr@VBoundDatumSet@mssql@@@std@@@Z 10004730 f   OdbcStatement.obj
 0001:00003830       ?UnbindParams@OdbcStatement@mssql@@QBE?AV?$Local@VArray@v8@@@v8@@XZ 10004830 f   OdbcStatement.obj
 0001:000038b0       ?GetColumnValue@OdbcStatement@mssql@@QBE?AV?$Local@VValue@v8@@@v8@@XZ 100048b0 f   OdbcStatement.obj
 0001:000039a0       ?ReturnOdbcError@OdbcStatement@mssql@@AAE_NXZ 100049a0 f   OdbcStatement.obj
 0001:00003a30       ?readColAttributes@OdbcStatement@mssql@@AAE_NAAUColumnDefinition@ResultSet@2@H@Z 10004a30 f   OdbcStatement.obj
 0001:00003bd0       ?readNext@OdbcStatement@mssql@@AAE_NH@Z 10004bd0 f   OdbcStatement.obj
 0001:00003dc0       ?StartReadingResults@OdbcStatement@mssql@@AAE_NXZ 10004dc0 f   OdbcStatement.obj
 0001:00003f40       ?queryTimeout@OdbcStatement@mssql@@AAEFH@Z 10004f40 f   OdbcStatement.obj
 0001:00003fb0       ?TryPrepare@OdbcStatement@mssql@@QAE_NABV?$basic_string@_WU?$char_traits@_W@std@@V?$allocator@_W@2@@std@@I@Z 10004fb0 f   OdbcStatement.obj
 0001:000041b0       ?BindFetch@OdbcStatement@mssql@@QAE_NV?$shared_ptr@VBoundDatumSet@mssql@@@std@@@Z 100051b0 f   OdbcStatement.obj
 0001:000042a0       ?TryExecuteDirect@OdbcStatement@mssql@@QAE_NABV?$basic_string@_WU?$char_traits@_W@std@@V?$allocator@_W@2@@std@@IV?$shared_ptr@VBoundDatumSet@mssql@@@4@@Z 100052a0 f   OdbcStatement.obj
 0001:00004430       ?dispatch@OdbcStatement@mssql@@AAE_NFH@Z 10005430 f   OdbcStatement.obj
 0001:000045f0       ?d_Variant@OdbcStatement@mssql@@AAE_NH@Z 100055f0 f   OdbcStatement.obj
 0001:00004690       ?d_Time@OdbcStatement@mssql@@AAE_NH@Z 10005690 f   OdbcStatement.obj
 0001:000047f0       ?getDataTimestampOffset@OdbcStatement@mssql@@AAE_NH@Z 100057f0 f   OdbcStatement.obj
 0001:00004940       ?d_TimestampOffset@OdbcStatement@mssql@@AAE_NH@Z 10005940 f   OdbcStatement.obj
 0001:00004a30       ?getDataTimestamp@OdbcStatement@mssql@@AAE_NH@Z 10005a30 f   OdbcStatement.obj
 0001:00004b80       ?d_Timestamp@OdbcStatement@mssql@@AAE_NH@Z 10005b80 f   OdbcStatement.obj
 0001:00004c70       ?getDataLong@OdbcStatement@mssql@@AAE_NH@Z 10005c70 f   OdbcStatement.obj
 0001:00004da0       ?d_Integer@OdbcStatement@mssql@@AAE_NH@Z 10005da0 f   OdbcStatement.obj
 0001:00004e60       ?getDataBit@OdbcStatement@mssql@@AAE_NH@Z 10005e60 f   OdbcStatement.obj
 0001:00004ff0       ?d_Bit@OdbcStatement@mssql@@AAE_NH@Z 10005ff0 f   OdbcStatement.obj
 0001:000050b0       ?getDataDecimal@OdbcStatement@mssql@@AAE_NH@Z 100060b0 f   OdbcStatement.obj
 0001:000051e0       ?d_Decimal@OdbcStatement@mssql@@AAE_NH@Z 100061e0 f   OdbcStatement.obj
 0001:000052a0       ?getDataBinary@OdbcStatement@mssql@@AAE_NH@Z 100062a0 f   OdbcStatement.obj
 0001:00005530       ?d_Binary@OdbcStatement@mssql@@AAE_NH@Z 10006530 f   OdbcStatement.obj
 0001:00005610       ?TryReadColumn@OdbcStatement@mssql@@QAE_NH@Z 10006610 f   OdbcStatement.obj
 0001:00005680       ?Lob@OdbcStatement@mssql@@AAE_NJH@Z 10006680 f   OdbcStatement.obj
 0001:00005830       ?reservedString@OdbcStatement@mssql@@ABE_NJH@Z 10006830 f   OdbcStatement.obj
 0001:00005950       ?boundedString@OdbcStatement@mssql@@AAE_NJH@Z 10006950 f   OdbcStatement.obj
 0001:00005b80       ?TryReadString@OdbcStatement@mssql@@AAE_N_NH@Z 10006b80 f   OdbcStatement.obj
 0001:00005c40       ??1?$unique_ptr@VResultSet@mssql@@U?$default_delete@VResultSet@mssql@@@std@@@std@@QAE@XZ 10006c40 f i OdbcStatement.obj
 0001:00005c90       ?resize@?$vector@GV?$allocator@G@std@@@std@@QAEXI@Z 10006c90 f i OdbcStatement.obj
 0001:00005cf0       ?resize@?$vector@UColumnDefinition@ResultSet@mssql@@V?$allocator@UColumnDefinition@ResultSet@mssql@@@std@@@std@@QAEXI@Z 10006cf0 f i OdbcStatement.obj
 0001:00005da0       ??1?$basic_string@_WU?$char_traits@_W@std@@V?$allocator@_W@2@@std@@QAE@XZ 10006da0 f i OdbcStatement.obj
 0001:00005de0       ??4?$basic_string@_WU?$char_traits@_W@std@@V?$allocator@_W@2@@std@@QAEAAV01@$$QAV01@@Z 10006de0 f i OdbcStatement.obj
 0001:00005e30       ?deallocate@?$_Wrap_alloc@V?$allocator@I@std@@@std@@QAEXPAII@Z 10006e30 f i BoundDatum.obj
 0001:00005e30       ?deallocate@?$_Wrap_alloc@V?$allocator@J@std@@@std@@QAEXPAJI@Z 10006e30 f i OdbcStatement.obj
 0001:00005e30       ?deallocate@?$_Wrap_alloc@V?$allocator@H@std@@@std@@QAEXPAHI@Z 10006e30 f i BoundDatum.obj
 0001:00005e90       ?_Tidy@?$vector@UColumnDefinition@ResultSet@mssql@@V?$allocator@UColumnDefinition@ResultSet@mssql@@@std@@@std@@IAEXXZ 10006e90 f i OdbcStatement.obj
 0001:00005ef0       ?_Reserve@?$vector@UColumnDefinition@ResultSet@mssql@@V?$allocator@UColumnDefinition@ResultSet@mssql@@@std@@@std@@IAEXI@Z 10006ef0 f i OdbcStatement.obj
 0001:00005f80       ?_Tidy@?$basic_string@_WU?$char_traits@_W@std@@V?$allocator@_W@2@@std@@QAEX_NI@Z 10006f80 f i OdbcStatement.obj
 0001:00005fe0       ?assign@?$basic_string@_WU?$char_traits@_W@std@@V?$allocator@_W@2@@std@@QAEAAV12@PB_WI@Z 10006fe0 f i OdbcStatement.obj
 0001:000060e0       ?_Assign_rv@?$basic_string@_WU?$char_traits@_W@std@@V?$allocator@_W@2@@std@@QAEX$$QAV12@@Z 100070e0 f i OdbcStatement.obj
 0001:00006150       ?deallocate@?$_Wrap_alloc@V?$allocator@UColumnDefinition@ResultSet@mssql@@@std@@@std@@QAEXPAUColumnDefinition@ResultSet@mssql@@I@Z 10007150 f i OdbcStatement.obj
 0001:000061b0       ?_Reallocate@?$vector@UColumnDefinition@ResultSet@mssql@@V?$allocator@UColumnDefinition@ResultSet@mssql@@@std@@@std@@IAEXI@Z 100071b0 f i OdbcStatement.obj
 0001:000062b0       ?_Grow@?$basic_string@_WU?$char_traits@_W@std@@V?$allocator@_W@2@@std@@QAE_NI_N@Z 100072b0 f i OdbcStatement.obj
 0001:00006330       ?assign@?$basic_string@_WU?$char_traits@_W@std@@V?$allocator@_W@2@@std@@QAEAAV12@ABV12@II@Z 10007330 f i OdbcStatement.obj
 0001:00006450       ?_Copy@?$basic_string@_WU?$char_traits@_W@std@@V?$allocator@_W@2@@std@@QAEXII@Z 10007450 f i OdbcStatement.obj
 0001:00006520       ?erase@?$basic_string@_WU?$char_traits@_W@std@@V?$allocator@_W@2@@std@@QAEAAV12@II@Z 10007520 f i OdbcStatement.obj
 0001:000065d0       ??$?4VResultSet@mssql@@U?$default_delete@VResultSet@mssql@@@std@@@?$shared_ptr@VResultSet@mssql@@@std@@QAEAAV01@$$QAV?$unique_ptr@VResultSet@mssql@@U?$default_delete@VResultSet@mssql@@@std@@@1@@Z 100075d0 f i OdbcStatement.obj
 0001:00006630       ??$make_shared@VBoundDatumSet@mssql@@$$V@std@@YA?AV?$shared_ptr@VBoundDatumSet@mssql@@@0@XZ 10007630 f i OdbcStatement.obj
 0001:00006690       ??$make_shared@VBinaryColumn@mssql@@AAV?$shared_ptr@VDatumStorage@mssql@@@std@@AAJAA_N@std@@YA?AV?$shared_ptr@VBinaryColumn@mssql@@@0@AAV?$shared_ptr@VDatumStorage@mssql@@@0@AAJAA_N@Z 10007690 f i OdbcStatement.obj
 0001:000066f0       ?_Destroy@?$_Ref_count_obj@VCloseOperation@mssql@@@std@@EAEXXZ 100076f0 f i OdbcConnectionBridge.obj
 0001:000066f0       ?_Destroy@?$_Ref_count_obj@VReadColumnOperation@mssql@@@std@@EAEXXZ 100076f0 f i OdbcConnectionBridge.obj
 0001:000066f0       ?_Destroy@?$_Ref_count_obj@VQueryOperation@mssql@@@std@@EAEXXZ 100076f0 f i OdbcConnectionBridge.obj
 0001:000066f0       ?_Destroy@?$_Ref_count_obj@VBeginTranOperation@mssql@@@std@@EAEXXZ 100076f0 f i OdbcConnectionBridge.obj
 0001:000066f0       ?_Destroy@?$_Ref_count_obj@VReadNextResultOperation@mssql@@@std@@EAEXXZ 100076f0 f i OdbcConnectionBridge.obj
 0001:000066f0       ?_Destroy@?$_Ref_count_obj@VStringColumn@mssql@@@std@@EAEXXZ 100076f0 f i OdbcStatement.obj
 0001:000066f0       ?_Destroy@?$_Ref_count_obj@VReadRowOperation@mssql@@@std@@EAEXXZ 100076f0 f i OdbcConnectionBridge.obj
 0001:000066f0       ?_Destroy@?$_Ref_count_obj@VBoolColumn@mssql@@@std@@EAEXXZ 100076f0 f i OdbcStatement.obj
 0001:000066f0       ?_Destroy@?$_Ref_count_obj@VEndTranOperation@mssql@@@std@@EAEXXZ 100076f0 f i OdbcConnectionBridge.obj
 0001:000066f0       ?_Destroy@?$_Ref_count_obj@VUnbindOperation@mssql@@@std@@EAEXXZ 100076f0 f i OdbcConnectionBridge.obj
 0001:000066f0       ?_Destroy@?$_Ref_count_obj@VOpenOperation@mssql@@@std@@EAEXXZ 100076f0 f i OdbcConnectionBridge.obj
 0001:000066f0       ?_Destroy@?$_Ref_count_obj@VPrepareOperation@mssql@@@std@@EAEXXZ 100076f0 f i OdbcConnectionBridge.obj
 0001:000066f0       ?_Destroy@?$_Ref_count_obj@VFreeStatementOperation@mssql@@@std@@EAEXXZ 100076f0 f i OdbcConnectionBridge.obj
 0001:000066f0       ?_Destroy@?$_Ref_count_obj@VProcedureOperation@mssql@@@std@@EAEXXZ 100076f0 f i OdbcConnectionBridge.obj
 0001:000066f0       ?_Destroy@?$_Ref_count_obj@VQueryPreparedOperation@mssql@@@std@@EAEXXZ 100076f0 f i OdbcConnectionBridge.obj
 0001:000066f0       ?_Destroy@?$_Ref_count_obj@VNullColumn@mssql@@@std@@EAEXXZ 100076f0 f i OdbcStatement.obj
 0001:000066f0       ?_Destroy@?$_Ref_count_obj@VBinaryColumn@mssql@@@std@@EAEXXZ 100076f0 f i OdbcStatement.obj
 0001:000066f0       ?_Destroy@?$_Ref_count_obj@VOdbcStatement@mssql@@@std@@EAEXXZ 100076f0 f i OdbcStatementCache.obj
 0001:00006700       ?_Destroy@?$_Ref_count_obj@VNumberColumn@mssql@@@std@@EAEXXZ 10007700 f i OdbcStatement.obj
 0001:00006700       ?_Destroy@?$_Ref_count_obj@VIntColumn@mssql@@@std@@EAEXXZ 10007700 f i OdbcStatement.obj
 0001:00006700       ?_Destroy@?$_Ref_count_obj@VTimestampColumn@mssql@@@std@@EAEXXZ 10007700 f i OdbcStatement.obj
 0001:00006710       ?_Destroy@?$_Ref_count_obj@VBoundDatumSet@mssql@@@std@@EAEXXZ 10007710 f i OdbcStatement.obj
 0001:00006770       ?_Destroy@?$_Ref_count_obj@VDatumStorage@mssql@@@std@@EAEXXZ 10007770 f i OdbcStatement.obj
 0001:00006780       ?_Destroy@?$_Ref_count_obj@V?$vector@UtagSS_TIMESTAMPOFFSET_STRUCT@@V?$allocator@UtagSS_TIMESTAMPOFFSET_STRUCT@@@std@@@std@@@std@@EAEXXZ 10007780 f i OdbcStatement.obj
 0001:000067c0       ?_Destroy@?$_Ref_count_obj@V?$vector@UtagTIMESTAMP_STRUCT@@V?$allocator@UtagTIMESTAMP_STRUCT@@@std@@@std@@@std@@EAEXXZ 100077c0 f i OdbcStatement.obj
 0001:000067f0       ?_Destroy@?$_Ref_count_obj@V?$vector@NV?$allocator@N@std@@@std@@@std@@EAEXXZ 100077f0 f i OdbcStatement.obj
 0001:000067f0       ?_Destroy@?$_Ref_count_obj@V?$vector@_JV?$allocator@_J@std@@@std@@@std@@EAEXXZ 100077f0 f i OdbcStatement.obj
 0001:00006820       ?_Destroy@?$_Ref_count_obj@V?$vector@GV?$allocator@G@std@@@std@@@std@@EAEXXZ 10007820 f i OdbcStatement.obj
 0001:00006850       ?_Destroy@?$_Ref_count_obj@V?$vector@DV?$allocator@D@std@@@std@@@std@@EAEXXZ 10007850 f i OdbcStatement.obj
 0001:00006860       ??1DatumStorage@mssql@@QAE@XZ 10007860 f i OdbcStatement.obj
 0001:00006a10       ?_Tidy@?$vector@DV?$allocator@D@std@@@std@@IAEXXZ 10007a10 f i OdbcStatement.obj
 0001:00006a80       ?deallocate@?$_Wrap_alloc@V?$allocator@UtagSS_TIMESTAMPOFFSET_STRUCT@@@std@@@std@@QAEXPAUtagSS_TIMESTAMPOFFSET_STRUCT@@I@Z 10007a80 f i OdbcStatement.obj
 0001:00006ae0       ?deallocate@?$_Wrap_alloc@V?$allocator@UtagTIMESTAMP_STRUCT@@@std@@@std@@QAEXPAUtagTIMESTAMP_STRUCT@@I@Z 10007ae0 f i OdbcStatement.obj
 0001:00006b40       ?deallocate@?$_Wrap_alloc@V?$allocator@N@std@@@std@@QAEXPANI@Z 10007b40 f i OdbcStatement.obj
 0001:00006b40       ?deallocate@?$_Wrap_alloc@V?$allocator@_J@std@@@std@@QAEXPA_JI@Z 10007b40 f i OdbcStatement.obj
 0001:00006ba0       ?deallocate@?$allocator@VBoundDatum@mssql@@@std@@QAEXPAVBoundDatum@mssql@@I@Z 10007ba0 f i OdbcStatement.obj
 0001:00006c00       ??$?0VResultSet@mssql@@U?$default_delete@VResultSet@mssql@@@std@@X@?$shared_ptr@VResultSet@mssql@@@std@@QAE@$$QAV?$unique_ptr@VResultSet@mssql@@U?$default_delete@VResultSet@mssql@@@std@@@1@@Z 10007c00 f i OdbcStatement.obj
 0001:00006c80       ??$?0AAI@?$_Ref_count_obj@V?$vector@DV?$allocator@D@std@@@std@@@std@@QAE@AAI@Z 10007c80 f i OdbcStatement.obj
 0001:00006d10       ??$?0AAV?$shared_ptr@VDatumStorage@mssql@@@std@@@?$_Ref_count_obj@VIntColumn@mssql@@@std@@QAE@AAV?$shared_ptr@VDatumStorage@mssql@@@1@@Z 10007d10 f i OdbcStatement.obj
 0001:00006d90       ??$?0AAV?$shared_ptr@VDatumStorage@mssql@@@std@@@?$_Ref_count_obj@VBoolColumn@mssql@@@std@@QAE@AAV?$shared_ptr@VDatumStorage@mssql@@@1@@Z 10007d90 f i OdbcStatement.obj
 0001:00006e10       ??$?0AAV?$shared_ptr@VDatumStorage@mssql@@@std@@@?$_Ref_count_obj@VNumberColumn@mssql@@@std@@QAE@AAV?$shared_ptr@VDatumStorage@mssql@@@1@@Z 10007e10 f i OdbcStatement.obj
 0001:00006e90       ??$_Uninitialized_default_fill_n1@PAUColumnDefinition@ResultSet@mssql@@IV?$allocator@UColumnDefinition@ResultSet@mssql@@@std@@@std@@YAXPAUColumnDefinition@ResultSet@mssql@@IAAU?$_Wrap_alloc@V?$allocator@UColumnDefinition@ResultSet@mssql@@@std@@@0@U?$integral_constant@_N$0A@@0@@Z 10007e90 f i OdbcStatement.obj
 0001:00006f00       ??$_Destroy_range1@V?$allocator@VBoundDatum@mssql@@@std@@PAVBoundDatum@mssql@@@std@@YAXPAVBoundDatum@mssql@@0AAU?$_Wrap_alloc@V?$allocator@VBoundDatum@mssql@@@std@@@0@U?$integral_constant@_N$0A@@0@@Z 10007f00 f i OdbcStatement.obj
 0001:00006fb0       ??_E?$_Ref_count_obj@V?$vector@UtagSS_TIME2_STRUCT@@V?$allocator@UtagSS_TIME2_STRUCT@@@std@@@std@@@std@@UAEPAXI@Z 10007fb0 f i * CIL library *:* CIL module *
 0001:00006fb0       ??_G?$_Ref_count_obj@V?$vector@NV?$allocator@N@std@@@std@@@std@@UAEPAXI@Z 10007fb0 f i OdbcStatement.obj
 0001:00006fb0       ??_E?$_Ref_count_obj@V?$vector@UtagDATE_STRUCT@@V?$allocator@UtagDATE_STRUCT@@@std@@@std@@@std@@UAEPAXI@Z 10007fb0 f i * CIL library *:* CIL module *
 0001:00006fb0       ??_G?$_Ref_count_obj@V?$vector@HV?$allocator@H@std@@@std@@@std@@UAEPAXI@Z 10007fb0 f i BoundDatum.obj
 0001:00006fb0       ??_G?$_Ref_count_obj@V?$vector@DV?$allocator@D@std@@@std@@@std@@UAEPAXI@Z 10007fb0 f i OdbcStatement.obj
 0001:00006fb0       ??_G?$_Ref_count_obj@V?$vector@UtagSS_TIMESTAMPOFFSET_STRUCT@@V?$allocator@UtagSS_TIMESTAMPOFFSET_STRUCT@@@std@@@std@@@std@@UAEPAXI@Z 10007fb0 f i OdbcStatement.obj
 0001:00006fb0       ??_E?$_Ref_count_obj@V?$vector@IV?$allocator@I@std@@@std@@@std@@UAEPAXI@Z 10007fb0 f i * CIL library *:* CIL module *
 0001:00006fb0       ??_G?$_Ref_count_obj@V?$vector@UtagDATE_STRUCT@@V?$allocator@UtagDATE_STRUCT@@@std@@@std@@@std@@UAEPAXI@Z 10007fb0 f i BoundDatum.obj
 0001:00006fb0       ??_E?$_Ref_count_obj@V?$vector@UtagSS_TIMESTAMPOFFSET_STRUCT@@V?$allocator@UtagSS_TIMESTAMPOFFSET_STRUCT@@@std@@@std@@@std@@UAEPAXI@Z 10007fb0 f i * CIL library *:* CIL module *
 0001:00006fb0       ??_G?$_Ref_count_obj@V?$vector@IV?$allocator@I@std@@@std@@@std@@UAEPAXI@Z 10007fb0 f i BoundDatum.obj
 0001:00006fb0       ??_E?$_Ref_count_obj@V?$vector@UtagTIMESTAMP_STRUCT@@V?$allocator@UtagTIMESTAMP_STRUCT@@@std@@@std@@@std@@UAEPAXI@Z 10007fb0 f i * CIL library *:* CIL module *
 0001:00006fb0       ??_E?$_Ref_count_obj@V?$vector@UtagSQL_NUMERIC_STRUCT@@V?$allocator@UtagSQL_NUMERIC_STRUCT@@@std@@@std@@@std@@UAEPAXI@Z 10007fb0 f i * CIL library *:* CIL module *
 0001:00006fb0       ??_G?$_Ref_count_obj@V?$vector@GV?$allocator@G@std@@@std@@@std@@UAEPAXI@Z 10007fb0 f i OdbcStatement.obj
 0001:00006fb0       ??_E?$_Ref_count_obj@V?$vector@_JV?$allocator@_J@std@@@std@@@std@@UAEPAXI@Z 10007fb0 f i * CIL library *:* CIL module *
 0001:00006fb0       ??_E?$_Ref_count_obj@V?$vector@DV?$allocator@D@std@@@std@@@std@@UAEPAXI@Z 10007fb0 f i * CIL library *:* CIL module *
 0001:00006fb0       ??_G?$_Ref_count_obj@V?$vector@UtagTIMESTAMP_STRUCT@@V?$allocator@UtagTIMESTAMP_STRUCT@@@std@@@std@@@std@@UAEPAXI@Z 10007fb0 f i OdbcStatement.obj
 0001:00006fb0       ??_E?$_Ref_count_obj@V?$vector@GV?$allocator@G@std@@@std@@@std@@UAEPAXI@Z 10007fb0 f i * CIL library *:* CIL module *
 0001:00006fb0       ??_E?$_Ref_count_obj@V?$vector@NV?$allocator@N@std@@@std@@@std@@UAEPAXI@Z 10007fb0 f i * CIL library *:* CIL module *
 0001:00006fb0       ??_G?$_Ref_count_obj@V?$vector@UtagSS_TIME2_STRUCT@@V?$allocator@UtagSS_TIME2_STRUCT@@@std@@@std@@@std@@UAEPAXI@Z 10007fb0 f i BoundDatum.obj
 0001:00006fb0       ??_G?$_Ref_count_obj@V?$vector@UtagSQL_NUMERIC_STRUCT@@V?$allocator@UtagSQL_NUMERIC_STRUCT@@@std@@@std@@@std@@UAEPAXI@Z 10007fb0 f i BoundDatum.obj
 0001:00006fb0       ??_G?$_Ref_count_obj@V?$vector@_JV?$allocator@_J@std@@@std@@@std@@UAEPAXI@Z 10007fb0 f i OdbcStatement.obj
 0001:00006fb0       ??_E?$_Ref_count_obj@V?$vector@HV?$allocator@H@std@@@std@@@std@@UAEPAXI@Z 10007fb0 f i * CIL library *:* CIL module *
 0001:00006fe0       ??_G?$_Ref_count_obj@VOdbcStatement@mssql@@@std@@UAEPAXI@Z 10007fe0 f i OdbcStatementCache.obj
 0001:00006fe0       ??_E?$_Ref_count_obj@VOdbcStatement@mssql@@@std@@UAEPAXI@Z 10007fe0 f i * CIL library *:* CIL module *
 0001:00006fe0       ??_E?$_Ref_count_obj@VDatumStorage@mssql@@@std@@UAEPAXI@Z 10007fe0 f i * CIL library *:* CIL module *
 0001:00006fe0       ??_G?$_Ref_count_obj@VDatumStorage@mssql@@@std@@UAEPAXI@Z 10007fe0 f i OdbcStatement.obj
 0001:00007010       ??_G?$_Ref_count_obj@VBoundDatumSet@mssql@@@std@@UAEPAXI@Z 10008010 f i OdbcStatement.obj
 0001:00007010       ??_E?$_Ref_count_obj@VBoundDatumSet@mssql@@@std@@UAEPAXI@Z 10008010 f i * CIL library *:* CIL module *
 0001:00007040       ??_E?$_Ref_count_del@VResultSet@mssql@@U?$default_delete@VResultSet@mssql@@@std@@@std@@UAEPAXI@Z 10008040 f i * CIL library *:* CIL module *
 0001:00007040       ??_G?$_Ref_count_del@VResultSet@mssql@@U?$default_delete@VResultSet@mssql@@@std@@@std@@UAEPAXI@Z 10008040 f i OdbcStatement.obj
 0001:00007040       ??_E?$_Ref_count_obj@VNullColumn@mssql@@@std@@UAEPAXI@Z 10008040 f i * CIL library *:* CIL module *
 0001:00007040       ??_G?$_Ref_count_obj@VNullColumn@mssql@@@std@@UAEPAXI@Z 10008040 f i OdbcStatement.obj
 0001:00007070       ??_G?$_Ref_count_obj@VTimestampColumn@mssql@@@std@@UAEPAXI@Z 10008070 f i OdbcStatement.obj
 0001:00007070       ??_E?$_Ref_count_obj@VTimestampColumn@mssql@@@std@@UAEPAXI@Z 10008070 f i * CIL library *:* CIL module *
 0001:000070a0       ??_G?$_Ref_count_obj@VStringColumn@mssql@@@std@@UAEPAXI@Z 100080a0 f i OdbcStatement.obj
 0001:000070a0       ??_E?$_Ref_count_obj@VNumberColumn@mssql@@@std@@UAEPAXI@Z 100080a0 f i * CIL library *:* CIL module *
 0001:000070a0       ??_E?$_Ref_count_obj@VIntColumn@mssql@@@std@@UAEPAXI@Z 100080a0 f i * CIL library *:* CIL module *
 0001:000070a0       ??_E?$_Ref_count_obj@VStringColumn@mssql@@@std@@UAEPAXI@Z 100080a0 f i * CIL library *:* CIL module *
 0001:000070a0       ??_G?$_Ref_count_obj@VIntColumn@mssql@@@std@@UAEPAXI@Z 100080a0 f i OdbcStatement.obj
 0001:000070a0       ??_G?$_Ref_count_obj@VNumberColumn@mssql@@@std@@UAEPAXI@Z 100080a0 f i OdbcStatement.obj
 0001:000070d0       ??0?$vector@UtagTIMESTAMP_STRUCT@@V?$allocator@UtagTIMESTAMP_STRUCT@@@std@@@std@@QAE@I@Z 100080d0 f i OdbcStatement.obj
 0001:00007140       ??0?$vector@UtagSS_TIMESTAMPOFFSET_STRUCT@@V?$allocator@UtagSS_TIMESTAMPOFFSET_STRUCT@@@std@@@std@@QAE@I@Z 10008140 f i OdbcStatement.obj
 0001:000071c0       ??0?$vector@NV?$allocator@N@std@@@std@@QAE@I@Z 100081c0 f i OdbcStatement.obj
 0001:000071c0       ??0?$vector@_JV?$allocator@_J@std@@@std@@QAE@I@Z 100081c0 f i OdbcStatement.obj
 0001:00007220       ??0?$vector@GV?$allocator@G@std@@@std@@QAE@I@Z 10008220 f i OdbcStatement.obj
 0001:00007280       ?allocate@?$_Wrap_alloc@V?$allocator@UtagSS_TIMESTAMPOFFSET_STRUCT@@@std@@@std@@QAEPAUtagSS_TIMESTAMPOFFSET_STRUCT@@I@Z 10008280 f i OdbcStatement.obj
 0001:000072e0       ?allocate@?$_Wrap_alloc@V?$allocator@UtagTIMESTAMP_STRUCT@@@std@@@std@@QAEPAUtagTIMESTAMP_STRUCT@@I@Z 100082e0 f i OdbcStatement.obj
 0001:00007340       ?allocate@?$_Wrap_alloc@V?$allocator@_J@std@@@std@@QAEPA_JI@Z 10008340 f i OdbcStatement.obj
 0001:00007340       ?allocate@?$_Wrap_alloc@V?$allocator@N@std@@@std@@QAEPANI@Z 10008340 f i OdbcStatement.obj
 0001:000073a0       ?_Destroy@?$_Ref_count_del@VResultSet@mssql@@U?$default_delete@VResultSet@mssql@@@std@@@std@@EAEXXZ 100083a0 f i OdbcStatement.obj
 0001:000073f0       ?_Get_deleter@?$_Ref_count_del@VResultSet@mssql@@U?$default_delete@VResultSet@mssql@@@std@@@std@@UBEPAXABVtype_info@@@Z 100083f0 f i OdbcStatement.obj
 0001:00007420       ??1ColumnDefinition@ResultSet@mssql@@QAE@XZ 10008420 f i OdbcStatement.obj
 0001:000074c0       ??0ColumnDefinition@ResultSet@mssql@@QAE@$$QAU012@@Z 100084c0 f i OdbcStatement.obj
 0001:00007550       ??0OdbcStatementCache@mssql@@QAE@V?$shared_ptr@VOdbcConnectionHandle@mssql@@@std@@@Z 10008550 f   OdbcStatementCache.obj
 0001:00007630       ?clear@OdbcStatementCache@mssql@@QAEXXZ 10008630 f   OdbcStatementCache.obj
 0001:000076a0       ?find@OdbcStatementCache@mssql@@AAE?AV?$shared_ptr@VOdbcStatement@mssql@@@std@@J@Z 100086a0 f   OdbcStatementCache.obj
 0001:00007730       ?store@OdbcStatementCache@mssql@@AAE?AV?$shared_ptr@VOdbcStatement@mssql@@@std@@V34@@Z 10008730 f   OdbcStatementCache.obj
 0001:000077b0       ?checkout@OdbcStatementCache@mssql@@QAE?AV?$shared_ptr@VOdbcStatement@mssql@@@std@@J@Z 100087b0 f   OdbcStatementCache.obj
 0001:000078a0       ?erase@?$_Tree@V?$_Tmap_traits@IV?$shared_ptr@VOperation@mssql@@@std@@U?$less@I@2@V?$allocator@U?$pair@$$CBIV?$shared_ptr@VOperation@mssql@@@std@@@std@@@2@$0A@@std@@@std@@QAE?AV?$_Tree_iterator@V?$_Tree_val@U?$_Tree_simple_types@U?$pair@$$CBIV?$shared_ptr@VOperation@mssql@@@std@@@std@@@std@@@std@@@2@V?$_Tree_const_iterator@V?$_Tree_val@U?$_Tree_simple_types@U?$pair@$$CBIV?$shared_ptr@VOperation@mssql@@@std@@@std@@@std@@@std@@@2@0@Z 100088a0 f i OperationManager.obj
 0001:000078a0       ?erase@?$_Tree@V?$_Tmap_traits@JV?$shared_ptr@VOdbcStatement@mssql@@@std@@U?$less@J@2@V?$allocator@U?$pair@$$CBJV?$shared_ptr@VOdbcStatement@mssql@@@std@@@std@@@2@$0A@@std@@@std@@QAE?AV?$_Tree_iterator@V?$_Tree_val@U?$_Tree_simple_types@U?$pair@$$CBJV?$shared_ptr@VOdbcStatement@mssql@@@std@@@std@@@std@@@std@@@2@V?$_Tree_const_iterator@V?$_Tree_val@U?$_Tree_simple_types@U?$pair@$$CBJV?$shared_ptr@VOdbcStatement@mssql@@@std@@@std@@@std@@@std@@@2@0@Z 100088a0 f i OdbcStatementCache.obj
 0001:00007960       ?erase@?$_Tree@V?$_Tmap_traits@IV?$shared_ptr@VOperation@mssql@@@std@@U?$less@I@2@V?$allocator@U?$pair@$$CBIV?$shared_ptr@VOperation@mssql@@@std@@@std@@@2@$0A@@std@@@std@@QAE?AV?$_Tree_iterator@V?$_Tree_val@U?$_Tree_simple_types@U?$pair@$$CBIV?$shared_ptr@VOperation@mssql@@@std@@@std@@@std@@@std@@@2@V?$_Tree_const_iterator@V?$_Tree_val@U?$_Tree_simple_types@U?$pair@$$CBIV?$shared_ptr@VOperation@mssql@@@std@@@std@@@std@@@std@@@2@@Z 10008960 f i OperationManager.obj
 0001:00007960       ?erase@?$_Tree@V?$_Tmap_traits@JV?$shared_ptr@VOdbcStatement@mssql@@@std@@U?$less@J@2@V?$allocator@U?$pair@$$CBJV?$shared_ptr@VOdbcStatement@mssql@@@std@@@std@@@2@$0A@@std@@@std@@QAE?AV?$_Tree_iterator@V?$_Tree_val@U?$_Tree_simple_types@U?$pair@$$CBJV?$shared_ptr@VOdbcStatement@mssql@@@std@@@std@@@std@@@std@@@2@V?$_Tree_const_iterator@V?$_Tree_val@U?$_Tree_simple_types@U?$pair@$$CBJV?$shared_ptr@VOdbcStatement@mssql@@@std@@@std@@@std@@@std@@@2@@Z 10008960 f i OdbcStatementCache.obj
 0001:00007c30       ?_Rrotate@?$_Tree@V?$_Tmap_traits@JV?$shared_ptr@VOdbcStatement@mssql@@@std@@U?$less@J@2@V?$allocator@U?$pair@$$CBJV?$shared_ptr@VOdbcStatement@mssql@@@std@@@std@@@2@$0A@@std@@@std@@IAEXPAU?$_Tree_node@U?$pair@$$CBJV?$shared_ptr@VOdbcStatement@mssql@@@std@@@std@@PAX@2@@Z 10008c30 f i OdbcStatementCache.obj
 0001:00007c30       ?_Rrotate@?$_Tree@V?$_Tmap_traits@IV?$shared_ptr@VOperation@mssql@@@std@@U?$less@I@2@V?$allocator@U?$pair@$$CBIV?$shared_ptr@VOperation@mssql@@@std@@@std@@@2@$0A@@std@@@std@@IAEXPAU?$_Tree_node@U?$pair@$$CBIV?$shared_ptr@VOperation@mssql@@@std@@@std@@PAX@2@@Z 10008c30 f i OperationManager.obj
 0001:00007c90       ?_Lrotate@?$_Tree@V?$_Tmap_traits@JV?$shared_ptr@VOdbcStatement@mssql@@@std@@U?$less@J@2@V?$allocator@U?$pair@$$CBJV?$shared_ptr@VOdbcStatement@mssql@@@std@@@std@@@2@$0A@@std@@@std@@IAEXPAU?$_Tree_node@U?$pair@$$CBJV?$shared_ptr@VOdbcStatement@mssql@@@std@@@std@@PAX@2@@Z 10008c90 f i OdbcStatementCache.obj
 0001:00007c90       ?_Lrotate@?$_Tree@V?$_Tmap_traits@IV?$shared_ptr@VOperation@mssql@@@std@@U?$less@I@2@V?$allocator@U?$pair@$$CBIV?$shared_ptr@VOperation@mssql@@@std@@@std@@@2@$0A@@std@@@std@@IAEXPAU?$_Tree_node@U?$pair@$$CBIV?$shared_ptr@VOperation@mssql@@@std@@@std@@PAX@2@@Z 10008c90 f i OperationManager.obj
 0001:00007ce0       ?_Erase@?$_Tree@V?$_Tmap_traits@IV?$shared_ptr@VOperation@mssql@@@std@@U?$less@I@2@V?$allocator@U?$pair@$$CBIV?$shared_ptr@VOperation@mssql@@@std@@@std@@@2@$0A@@std@@@std@@IAEXPAU?$_Tree_node@U?$pair@$$CBIV?$shared_ptr@VOperation@mssql@@@std@@@std@@PAX@2@@Z 10008ce0 f i OperationManager.obj
 0001:00007ce0       ?_Erase@?$_Tree@V?$_Tmap_traits@JV?$shared_ptr@VOdbcStatement@mssql@@@std@@U?$less@J@2@V?$allocator@U?$pair@$$CBJV?$shared_ptr@VOdbcStatement@mssql@@@std@@@std@@@2@$0A@@std@@@std@@IAEXPAU?$_Tree_node@U?$pair@$$CBJV?$shared_ptr@VOdbcStatement@mssql@@@std@@@std@@PAX@2@@Z 10008ce0 f i OdbcStatementCache.obj
 0001:00007d40       ??E?$_Tree_unchecked_const_iterator@V?$_Tree_val@U?$_Tree_simple_types@U?$pair@$$CBIV?$shared_ptr@VOperation@mssql@@@std@@@std@@@std@@@std@@U_Iterator_base0@2@@std@@QAEAAV01@XZ 10008d40 f i OperationManager.obj
 0001:00007d40       ??E?$_Tree_unchecked_const_iterator@V?$_Tree_val@U?$_Tree_simple_types@U?$pair@$$CBJV?$shared_ptr@VOdbcStatement@mssql@@@std@@@std@@@std@@@std@@U_Iterator_base0@2@@std@@QAEAAV01@XZ 10008d40 f i OdbcStatementCache.obj
 0001:00007d90       ??$_Eqrange@J@?$_Tree@V?$_Tmap_traits@JV?$shared_ptr@VOdbcStatement@mssql@@@std@@U?$less@J@2@V?$allocator@U?$pair@$$CBJV?$shared_ptr@VOdbcStatement@mssql@@@std@@@std@@@2@$0A@@std@@@std@@IBE?AU?$pair@V?$_Tree_const_iterator@V?$_Tree_val@U?$_Tree_simple_types@U?$pair@$$CBJV?$shared_ptr@VOdbcStatement@mssql@@@std@@@std@@@std@@@std@@@std@@V12@@1@ABJ@Z 10008d90 f i OdbcStatementCache.obj
 0001:00007e10       ??$_For_each_unchecked@V?$_Tree_unchecked_iterator@V?$_Tree_val@U?$_Tree_simple_types@U?$pair@$$CBJV?$shared_ptr@VOdbcStatement@mssql@@@std@@@std@@@std@@@std@@@std@@V<lambda_24cd1fcbd0c80e23a3f88b1bf6bc2f94>@@@std@@YAXV?$_Tree_unchecked_iterator@V?$_Tree_val@U?$_Tree_simple_types@U?$pair@$$CBJV?$shared_ptr@VOdbcStatement@mssql@@@std@@@std@@@std@@@std@@@0@0AAV<lambda_24cd1fcbd0c80e23a3f88b1bf6bc2f94>@@@Z 10008e10 f i OdbcStatementCache.obj
 0001:00007e90       ??$_For_each_unchecked@PAJV<lambda_5ea2d4df29e8bbe885f43ce7593d9ffc>@@@std@@YAXPAJ0AAV<lambda_5ea2d4df29e8bbe885f43ce7593d9ffc>@@@Z 10008e90 f i OdbcStatementCache.obj
 0001:00007f00       ??$emplace@U?$pair@JV?$shared_ptr@VOdbcStatement@mssql@@@std@@@std@@@?$_Tree@V?$_Tmap_traits@JV?$shared_ptr@VOdbcStatement@mssql@@@std@@U?$less@J@2@V?$allocator@U?$pair@$$CBJV?$shared_ptr@VOdbcStatement@mssql@@@std@@@std@@@2@$0A@@std@@@std@@QAE?AU?$pair@V?$_Tree_iterator@V?$_Tree_val@U?$_Tree_simple_types@U?$pair@$$CBJV?$shared_ptr@VOdbcStatement@mssql@@@std@@@std@@@std@@@std@@@std@@_N@1@$$QAU?$pair@JV?$shared_ptr@VOdbcStatement@mssql@@@std@@@1@@Z 10008f00 f i OdbcStatementCache.obj
 0001:00007f80       ?_Insert_n@?$vector@JV?$allocator@J@std@@@std@@IAE?AV?$_Vector_iterator@V?$_Vector_val@U?$_Simple_types@J@std@@@std@@@2@V?$_Vector_const_iterator@V?$_Vector_val@U?$_Simple_types@J@std@@@std@@@2@IABJ@Z 10008f80 f i OdbcStatementCache.obj
 0001:00008160       ?allocate@?$_Wrap_alloc@V?$allocator@I@std@@@std@@QAEPAII@Z 10009160 f i BoundDatum.obj
 0001:00008160       ?allocate@?$_Wrap_alloc@V?$allocator@H@std@@@std@@QAEPAHI@Z 10009160 f i BoundDatum.obj
 0001:00008160       ?allocate@?$_Wrap_alloc@V?$allocator@J@std@@@std@@QAEPAJI@Z 10009160 f i OdbcStatementCache.obj
 0001:000081c0       ?_Ufill@?$vector@JV?$allocator@J@std@@@std@@IAEPAJPAJIPBJ@Z 100091c0 f i OdbcStatementCache.obj
 0001:000081f0       ??$_Insert_nohint@AAU?$pair@$$CBJV?$shared_ptr@VOdbcStatement@mssql@@@std@@@std@@PAU?$_Tree_node@U?$pair@$$CBJV?$shared_ptr@VOdbcStatement@mssql@@@std@@@std@@PAX@2@@?$_Tree@V?$_Tmap_traits@JV?$shared_ptr@VOdbcStatement@mssql@@@std@@U?$less@J@2@V?$allocator@U?$pair@$$CBJV?$shared_ptr@VOdbcStatement@mssql@@@std@@@std@@@2@$0A@@std@@@std@@IAE?AU?$pair@V?$_Tree_iterator@V?$_Tree_val@U?$_Tree_simple_types@U?$pair@$$CBJV?$shared_ptr@VOdbcStatement@mssql@@@std@@@std@@@std@@@std@@@std@@_N@1@_NAAU?$pair@$$CBJV?$shared_ptr@VOdbcStatement@mssql@@@std@@@1@PAU?$_Tree_node@U?$pair@$$CBJV?$shared_ptr@VOdbcStatement@mssql@@@std@@@std@@PAX@1@@Z 100091f0 f i OdbcStatementCache.obj
 0001:000082b0       ??$fill@PAJJ@std@@YAXPAJ0ABJ@Z 100092b0 f i OdbcStatementCache.obj
 0001:000082e0       ?_Destroy_if_not_nil@?$_Tree@V?$_Tmap_traits@JV?$shared_ptr@VOdbcStatement@mssql@@@std@@U?$less@J@2@V?$allocator@U?$pair@$$CBJV?$shared_ptr@VOdbcStatement@mssql@@@std@@@std@@@2@$0A@@std@@@std@@IAEXPAU?$_Tree_node@U?$pair@$$CBJV?$shared_ptr@VOdbcStatement@mssql@@@std@@@std@@PAX@2@@Z 100092e0 f i OdbcStatementCache.obj
 0001:000082e0       ?_Destroy_if_not_nil@?$_Tree@V?$_Tmap_traits@IV?$shared_ptr@VOperation@mssql@@@std@@U?$less@I@2@V?$allocator@U?$pair@$$CBIV?$shared_ptr@VOperation@mssql@@@std@@@std@@@2@$0A@@std@@@std@@IAEXPAU?$_Tree_node@U?$pair@$$CBIV?$shared_ptr@VOperation@mssql@@@std@@@std@@PAX@2@@Z 100092e0 f i OperationManager.obj
 0001:00008320       ??F?$_Tree_unchecked_const_iterator@V?$_Tree_val@U?$_Tree_simple_types@U?$pair@$$CBIV?$shared_ptr@VOperation@mssql@@@std@@@std@@@std@@@std@@U_Iterator_base0@2@@std@@QAEAAV01@XZ 10009320 f i OperationManager.obj
 0001:00008320       ??F?$_Tree_unchecked_const_iterator@V?$_Tree_val@U?$_Tree_simple_types@U?$pair@$$CBJV?$shared_ptr@VOdbcStatement@mssql@@@std@@@std@@@std@@@std@@U_Iterator_base0@2@@std@@QAEAAV01@XZ 10009320 f i OdbcStatementCache.obj
 0001:00008380       ??$_Insert_at@AAU?$pair@$$CBIV?$shared_ptr@VOperation@mssql@@@std@@@std@@PAU?$_Tree_node@U?$pair@$$CBIV?$shared_ptr@VOperation@mssql@@@std@@@std@@PAX@2@@?$_Tree@V?$_Tmap_traits@IV?$shared_ptr@VOperation@mssql@@@std@@U?$less@I@2@V?$allocator@U?$pair@$$CBIV?$shared_ptr@VOperation@mssql@@@std@@@std@@@2@$0A@@std@@@std@@IAE?AV?$_Tree_iterator@V?$_Tree_val@U?$_Tree_simple_types@U?$pair@$$CBIV?$shared_ptr@VOperation@mssql@@@std@@@std@@@std@@@std@@@1@_NPAU?$_Tree_node@U?$pair@$$CBIV?$shared_ptr@VOperation@mssql@@@std@@@std@@PAX@1@AAU?$pair@$$CBIV?$shared_ptr@VOperation@mssql@@@std@@@1@1@Z 10009380 f i OperationManager.obj
 0001:00008380       ??$_Insert_at@AAU?$pair@$$CBJV?$shared_ptr@VOdbcStatement@mssql@@@std@@@std@@PAU?$_Tree_node@U?$pair@$$CBJV?$shared_ptr@VOdbcStatement@mssql@@@std@@@std@@PAX@2@@?$_Tree@V?$_Tmap_traits@JV?$shared_ptr@VOdbcStatement@mssql@@@std@@U?$less@J@2@V?$allocator@U?$pair@$$CBJV?$shared_ptr@VOdbcStatement@mssql@@@std@@@std@@@2@$0A@@std@@@std@@IAE?AV?$_Tree_iterator@V?$_Tree_val@U?$_Tree_simple_types@U?$pair@$$CBJV?$shared_ptr@VOdbcStatement@mssql@@@std@@@std@@@std@@@std@@@1@_NPAU?$_Tree_node@U?$pair@$$CBJV?$shared_ptr@VOdbcStatement@mssql@@@std@@@std@@PAX@1@AAU?$pair@$$CBJV?$shared_ptr@VOdbcStatement@mssql@@@std@@@1@1@Z 10009380 f i OdbcStatementCache.obj
 0001:00008590       ??0ReadRowOperation@mssql@@QAE@V?$shared_ptr@VOdbcConnection@mssql@@@std@@IV?$Local@VObject@v8@@@v8@@@Z 10009590 f i OdbcConnectionBridge.obj
 0001:00008650       ??_ECloseOperation@mssql@@UAEPAXI@Z 10009650 f i * CIL library *:* CIL module *
 0001:00008650       ??_GUnbindOperation@mssql@@UAEPAXI@Z 10009650 f i OdbcConnectionBridge.obj
 0001:00008650       ??_EFreeStatementOperation@mssql@@UAEPAXI@Z 10009650 f i * CIL library *:* CIL module *
 0001:00008650       ??_EUnbindOperation@mssql@@UAEPAXI@Z 10009650 f i * CIL library *:* CIL module *
 0001:00008650       ??_EOdbcOperation@mssql@@UAEPAXI@Z 10009650 f i * CIL library *:* CIL module *
 0001:00008650       ??_EBeginTranOperation@mssql@@UAEPAXI@Z 10009650 f i * CIL library *:* CIL module *
 0001:00008650       ??_EReadRowOperation@mssql@@UAEPAXI@Z 10009650 f i * CIL library *:* CIL module *
 0001:00008650       ??_GReadRowOperation@mssql@@UAEPAXI@Z 10009650 f i OdbcConnectionBridge.obj
 0001:00008650       ??_GOdbcOperation@mssql@@UAEPAXI@Z 10009650 f i OdbcOperation.obj
 0001:00008650       ??_GFreeStatementOperation@mssql@@UAEPAXI@Z 10009650 f i OdbcConnectionBridge.obj
 0001:00008650       ??_GBeginTranOperation@mssql@@UAEPAXI@Z 10009650 f i BeginTranOperation.obj
 0001:00008650       ??_GCloseOperation@mssql@@UAEPAXI@Z 10009650 f i CloseOperation.obj
 0001:00008680       ??0ReadNextResultOperation@mssql@@QAE@V?$shared_ptr@VOdbcConnection@mssql@@@std@@IV?$Local@VObject@v8@@@v8@@@Z 10009680 f i OdbcConnectionBridge.obj
 0001:00008750       ??_GReadNextResultOperation@mssql@@UAEPAXI@Z 10009750 f i OdbcConnectionBridge.obj
 0001:00008750       ??_EReadNextResultOperation@mssql@@UAEPAXI@Z 10009750 f i * CIL library *:* CIL module *
 0001:00008780       ??0ReadColumnOperation@mssql@@QAE@V?$shared_ptr@VOdbcConnection@mssql@@@std@@IHV?$Local@VObject@v8@@@v8@@@Z 10009780 f i OdbcConnectionBridge.obj
 0001:00008850       ??_GReadColumnOperation@mssql@@UAEPAXI@Z 10009850 f i OdbcConnectionBridge.obj
 0001:00008850       ??_EReadColumnOperation@mssql@@UAEPAXI@Z 10009850 f i * CIL library *:* CIL module *
 0001:00008850       ??_EEndTranOperation@mssql@@UAEPAXI@Z 10009850 f i * CIL library *:* CIL module *
 0001:00008850       ??_GEndTranOperation@mssql@@UAEPAXI@Z 10009850 f i EndTranOperation.obj
 0001:00008880       ??0FreeStatementOperation@mssql@@QAE@V?$shared_ptr@VOdbcConnection@mssql@@@std@@IV?$Local@VObject@v8@@@v8@@@Z 10009880 f i OdbcConnectionBridge.obj
 0001:00008930       ??0UnbindOperation@mssql@@QAE@V?$shared_ptr@VOdbcConnection@mssql@@@std@@IV?$Local@VObject@v8@@@v8@@@Z 10009930 f i OdbcConnectionBridge.obj
 0001:000089f0       ??0OdbcConnectionBridge@mssql@@QAE@XZ 100099f0 f   OdbcConnectionBridge.obj
 0001:00008a70       ?Close@OdbcConnectionBridge@mssql@@QAE?AV?$Local@VValue@v8@@@v8@@V?$Local@VObject@v8@@@4@@Z 10009a70 f   OdbcConnectionBridge.obj
 0001:00008b60       ?BeginTransaction@OdbcConnectionBridge@mssql@@QAE?AV?$Local@VValue@v8@@@v8@@V?$Local@VObject@v8@@@4@@Z 10009b60 f   OdbcConnectionBridge.obj
 0001:00008c50       ?Commit@OdbcConnectionBridge@mssql@@QAE?AV?$Local@VValue@v8@@@v8@@V?$Local@VObject@v8@@@4@@Z 10009c50 f   OdbcConnectionBridge.obj
 0001:00008d40       ?Rollback@OdbcConnectionBridge@mssql@@QAE?AV?$Local@VValue@v8@@@v8@@V?$Local@VObject@v8@@@4@@Z 10009d40 f   OdbcConnectionBridge.obj
 0001:00008e30       ?Query@OdbcConnectionBridge@mssql@@QBE?AV?$Local@VValue@v8@@@v8@@V?$Local@VNumber@v8@@@4@V?$Local@VObject@v8@@@4@V?$Local@VArray@v8@@@4@1@Z 10009e30 f   OdbcConnectionBridge.obj
 0001:00009000       ?QueryPrepared@OdbcConnectionBridge@mssql@@QBE?AV?$Local@VValue@v8@@@v8@@V?$Local@VNumber@v8@@@4@V?$Local@VArray@v8@@@4@V?$Local@VObject@v8@@@4@@Z 1000a000 f   OdbcConnectionBridge.obj
 0001:000090f0       ?Prepare@OdbcConnectionBridge@mssql@@QBE?AV?$Local@VValue@v8@@@v8@@V?$Local@VNumber@v8@@@4@V?$Local@VObject@v8@@@4@1@Z 1000a0f0 f   OdbcConnectionBridge.obj
 0001:000092c0       ?CallProcedure@OdbcConnectionBridge@mssql@@QBE?AV?$Local@VValue@v8@@@v8@@V?$Local@VNumber@v8@@@4@V?$Local@VObject@v8@@@4@V?$Local@VArray@v8@@@4@1@Z 1000a2c0 f   OdbcConnectionBridge.obj
 0001:000094c0       ?UnbindParameters@OdbcConnectionBridge@mssql@@QAE?AV?$Local@VValue@v8@@@v8@@V?$Local@VNumber@v8@@@4@V?$Local@VObject@v8@@@4@@Z 1000a4c0 f   OdbcConnectionBridge.obj
 0001:000095c0       ?FreeStatement@OdbcConnectionBridge@mssql@@QAE?AV?$Local@VValue@v8@@@v8@@V?$Local@VNumber@v8@@@4@V?$Local@VObject@v8@@@4@@Z 1000a5c0 f   OdbcConnectionBridge.obj
 0001:00009750       ?ReadRow@OdbcConnectionBridge@mssql@@QBE?AV?$Local@VValue@v8@@@v8@@V?$Local@VNumber@v8@@@4@V?$Local@VObject@v8@@@4@@Z 1000a750 f   OdbcConnectionBridge.obj
 0001:00009850       ?ReadNextResult@OdbcConnectionBridge@mssql@@QBE?AV?$Local@VValue@v8@@@v8@@V?$Local@VNumber@v8@@@4@V?$Local@VObject@v8@@@4@@Z 1000a850 f   OdbcConnectionBridge.obj
 0001:00009950       ?ReadColumn@OdbcConnectionBridge@mssql@@QBE?AV?$Local@VValue@v8@@@v8@@V?$Local@VNumber@v8@@@4@0V?$Local@VObject@v8@@@4@@Z 1000a950 f   OdbcConnectionBridge.obj
 0001:00009a60       ?Open@OdbcConnectionBridge@mssql@@QAE?AV?$Local@VValue@v8@@@v8@@V?$Local@VObject@v8@@@4@00@Z 1000aa60 f   OdbcConnectionBridge.obj
 0001:00009c70       ?_Destroy@?$_Ref_count_obj@VOdbcConnection@mssql@@@std@@EAEXXZ 1000ac70 f i OdbcConnectionBridge.obj
 0001:00009c80       ??_E?$_Ref_count_obj@VFreeStatementOperation@mssql@@@std@@UAEPAXI@Z 1000ac80 f i * CIL library *:* CIL module *
 0001:00009c80       ??_G?$_Ref_count_obj@VReadRowOperation@mssql@@@std@@UAEPAXI@Z 1000ac80 f i OdbcConnectionBridge.obj
 0001:00009c80       ??_E?$_Ref_count_obj@VCloseOperation@mssql@@@std@@UAEPAXI@Z 1000ac80 f i * CIL library *:* CIL module *
 0001:00009c80       ??_E?$_Ref_count_obj@VUnbindOperation@mssql@@@std@@UAEPAXI@Z 1000ac80 f i * CIL library *:* CIL module *
 0001:00009c80       ??_G?$_Ref_count_obj@VFreeStatementOperation@mssql@@@std@@UAEPAXI@Z 1000ac80 f i OdbcConnectionBridge.obj
 0001:00009c80       ??_G?$_Ref_count_obj@VUnbindOperation@mssql@@@std@@UAEPAXI@Z 1000ac80 f i OdbcConnectionBridge.obj
 0001:00009c80       ??_E?$_Ref_count_obj@VReadRowOperation@mssql@@@std@@UAEPAXI@Z 1000ac80 f i * CIL library *:* CIL module *
 0001:00009c80       ??_E?$_Ref_count_obj@VBeginTranOperation@mssql@@@std@@UAEPAXI@Z 1000ac80 f i * CIL library *:* CIL module *
 0001:00009c80       ??_G?$_Ref_count_obj@VBeginTranOperation@mssql@@@std@@UAEPAXI@Z 1000ac80 f i OdbcConnectionBridge.obj
 0001:00009c80       ??_G?$_Ref_count_obj@VCloseOperation@mssql@@@std@@UAEPAXI@Z 1000ac80 f i OdbcConnectionBridge.obj
 0001:00009cb0       ??_E?$_Ref_count_obj@VReadColumnOperation@mssql@@@std@@UAEPAXI@Z 1000acb0 f i * CIL library *:* CIL module *
 0001:00009cb0       ??_E?$_Ref_count_obj@VEndTranOperation@mssql@@@std@@UAEPAXI@Z 1000acb0 f i * CIL library *:* CIL module *
 0001:00009cb0       ??_G?$_Ref_count_obj@VReadColumnOperation@mssql@@@std@@UAEPAXI@Z 1000acb0 f i OdbcConnectionBridge.obj
 0001:00009cb0       ??_G?$_Ref_count_obj@VEndTranOperation@mssql@@@std@@UAEPAXI@Z 1000acb0 f i OdbcConnectionBridge.obj
 0001:00009ce0       ??_E?$_Ref_count_obj@VProcedureOperation@mssql@@@std@@UAEPAXI@Z 1000ace0 f i * CIL library *:* CIL module *
 0001:00009ce0       ??_E?$_Ref_count_obj@VQueryOperation@mssql@@@std@@UAEPAXI@Z 1000ace0 f i * CIL library *:* CIL module *
 0001:00009ce0       ??_G?$_Ref_count_obj@VProcedureOperation@mssql@@@std@@UAEPAXI@Z 1000ace0 f i OdbcConnectionBridge.obj
 0001:00009ce0       ??_E?$_Ref_count_obj@VPrepareOperation@mssql@@@std@@UAEPAXI@Z 1000ace0 f i * CIL library *:* CIL module *
 0001:00009ce0       ??_G?$_Ref_count_obj@VPrepareOperation@mssql@@@std@@UAEPAXI@Z 1000ace0 f i OdbcConnectionBridge.obj
 0001:00009ce0       ??_G?$_Ref_count_obj@VQueryOperation@mssql@@@std@@UAEPAXI@Z 1000ace0 f i OdbcConnectionBridge.obj
 0001:00009d10       ??_E?$_Ref_count_obj@VQueryPreparedOperation@mssql@@@std@@UAEPAXI@Z 1000ad10 f i * CIL library *:* CIL module *
 0001:00009d10       ??_G?$_Ref_count_obj@VQueryPreparedOperation@mssql@@@std@@UAEPAXI@Z 1000ad10 f i OdbcConnectionBridge.obj
 0001:00009d40       ??_G?$_Ref_count_obj@VReadNextResultOperation@mssql@@@std@@UAEPAXI@Z 1000ad40 f i OdbcConnectionBridge.obj
 0001:00009d40       ??_E?$_Ref_count_obj@VReadNextResultOperation@mssql@@@std@@UAEPAXI@Z 1000ad40 f i * CIL library *:* CIL module *
 0001:00009d70       ??_G?$_Ref_count_obj@VOpenOperation@mssql@@@std@@UAEPAXI@Z 1000ad70 f i OdbcConnectionBridge.obj
 0001:00009d70       ??_E?$_Ref_count_obj@VOpenOperation@mssql@@@std@@UAEPAXI@Z 1000ad70 f i * CIL library *:* CIL module *
 0001:00009da0       ??_GOperation@mssql@@UAEPAXI@Z 1000ada0 f i Operation.obj
 0001:00009da0       ??_EOperation@mssql@@UAEPAXI@Z 1000ada0 f i * CIL library *:* CIL module *
 0001:00009df0       ?_Mtx_lockX@std@@YAHPAU_Mtx_internal_imp_t@@@Z 1000adf0 f i OperationManager.obj
 0001:00009e10       ?_Mtx_unlockX@std@@YAHPAU_Mtx_internal_imp_t@@@Z 1000ae10 f i OperationManager.obj
 0001:00009e30       ?Add@OperationManager@mssql@@QAE_NV?$shared_ptr@VOperation@mssql@@@std@@@Z 1000ae30 f   OperationManager.obj
 0001:00009f30       ?OnForeground@OperationManager@mssql@@CAXPAUuv_work_s@@@Z 1000af30 f   OperationManager.obj
 0001:00009fb0       ?OnBackground@OperationManager@mssql@@CAXPAUuv_work_s@@@Z 1000afb0 f   OperationManager.obj
 0001:00009ff0       ??1?$lock_guard@Vmutex@std@@@std@@QAE@XZ 1000aff0 f i OperationManager.obj
 0001:0000a010       ??$_Eqrange@I@?$_Tree@V?$_Tmap_traits@IV?$shared_ptr@VOperation@mssql@@@std@@U?$less@I@2@V?$allocator@U?$pair@$$CBIV?$shared_ptr@VOperation@mssql@@@std@@@std@@@2@$0A@@std@@@std@@IBE?AU?$pair@V?$_Tree_const_iterator@V?$_Tree_val@U?$_Tree_simple_types@U?$pair@$$CBIV?$shared_ptr@VOperation@mssql@@@std@@@std@@@std@@@std@@@std@@V12@@1@ABI@Z 1000b010 f i OperationManager.obj
 0001:0000a090       ??$emplace@U?$pair@IV?$shared_ptr@VOperation@mssql@@@std@@@std@@@?$_Tree@V?$_Tmap_traits@IV?$shared_ptr@VOperation@mssql@@@std@@U?$less@I@2@V?$allocator@U?$pair@$$CBIV?$shared_ptr@VOperation@mssql@@@std@@@std@@@2@$0A@@std@@@std@@QAE?AU?$pair@V?$_Tree_iterator@V?$_Tree_val@U?$_Tree_simple_types@U?$pair@$$CBIV?$shared_ptr@VOperation@mssql@@@std@@@std@@@std@@@std@@@std@@_N@1@$$QAU?$pair@IV?$shared_ptr@VOperation@mssql@@@std@@@1@@Z 1000b090 f i OperationManager.obj
 0001:0000a110       ??$_Insert_nohint@AAU?$pair@$$CBIV?$shared_ptr@VOperation@mssql@@@std@@@std@@PAU?$_Tree_node@U?$pair@$$CBIV?$shared_ptr@VOperation@mssql@@@std@@@std@@PAX@2@@?$_Tree@V?$_Tmap_traits@IV?$shared_ptr@VOperation@mssql@@@std@@U?$less@I@2@V?$allocator@U?$pair@$$CBIV?$shared_ptr@VOperation@mssql@@@std@@@std@@@2@$0A@@std@@@std@@IAE?AU?$pair@V?$_Tree_iterator@V?$_Tree_val@U?$_Tree_simple_types@U?$pair@$$CBIV?$shared_ptr@VOperation@mssql@@@std@@@std@@@std@@@std@@@std@@_N@1@_NAAU?$pair@$$CBIV?$shared_ptr@VOperation@mssql@@@std@@@1@PAU?$_Tree_node@U?$pair@$$CBIV?$shared_ptr@VOperation@mssql@@@std@@@std@@PAX@1@@Z 1000b110 f i OperationManager.obj
 0001:0000a1d0       ?LastError@OdbcStatement@mssql@@QBE?AV?$shared_ptr@VOdbcError@mssql@@@std@@XZ 1000b1d0 f i OdbcOperation.obj
 0001:0000a240       ??0OdbcOperation@mssql@@QAE@V?$shared_ptr@VOdbcConnection@mssql@@@std@@IV?$Local@VObject@v8@@@v8@@@Z 1000b240 f   OdbcOperation.obj
 0001:0000a360       ??0OdbcOperation@mssql@@QAE@V?$shared_ptr@VOdbcConnection@mssql@@@std@@V?$Local@VObject@v8@@@v8@@@Z 1000b360 f   OdbcOperation.obj
 0001:0000a480       ??1OdbcOperation@mssql@@UAE@XZ 1000b480 f   OdbcOperation.obj
 0001:0000a550       ?fetchStatement@OdbcOperation@mssql@@IAEXXZ 1000b550 f   OdbcOperation.obj
 0001:0000a5e0       ?getFailure@OdbcOperation@mssql@@QAEXXZ 1000b5e0 f   OdbcOperation.obj
 0001:0000a750       ?InvokeBackground@OdbcOperation@mssql@@UAEXXZ 1000b750 f   OdbcOperation.obj
 0001:0000a780       ?Error@OdbcOperation@mssql@@QBEHQAV?$Local@VValue@v8@@@v8@@@Z 1000b780 f   OdbcOperation.obj
 0001:0000a870       ?Success@OdbcOperation@mssql@@QAEHQAV?$Local@VValue@v8@@@v8@@@Z 1000b870 f   OdbcOperation.obj
 0001:0000a920       ?CompleteForeground@OdbcOperation@mssql@@UAEXXZ 1000b920 f   OdbcOperation.obj
 0001:0000aa00       ??_H@YGXPAXIIP6EPAX0@Z@Z   1000ba00 f i OdbcOperation.obj
 0001:0000aa30       ??0BeginTranOperation@mssql@@QAE@V?$shared_ptr@VOdbcConnection@mssql@@@std@@V?$Local@VObject@v8@@@v8@@@Z 1000ba30 f   BeginTranOperation.obj
 0001:0000aae0       ?TryInvokeOdbc@BeginTranOperation@mssql@@UAE_NXZ 1000bae0 f   BeginTranOperation.obj
 0001:0000ab20       ??0CloseOperation@mssql@@QAE@V?$shared_ptr@VOdbcConnection@mssql@@@std@@V?$Local@VObject@v8@@@v8@@@Z 1000bb20 f   CloseOperation.obj
 0001:0000abd0       ?TryInvokeOdbc@CloseOperation@mssql@@UAE_NXZ 1000bbd0 f   CloseOperation.obj
 0001:0000ac20       ??0EndTranOperation@mssql@@QAE@V?$shared_ptr@VOdbcConnection@mssql@@@std@@FV?$Local@VObject@v8@@@v8@@@Z 1000bc20 f   EndTranOperation.obj
 0001:0000ace0       ?TryInvokeOdbc@EndTranOperation@mssql@@UAE_NXZ 1000bce0 f   EndTranOperation.obj
 0001:0000ad40       ??0OpenOperation@mssql@@QAE@V?$shared_ptr@VOdbcConnection@mssql@@@std@@ABV?$basic_string@_WU?$char_traits@_W@std@@V?$allocator@_W@2@@3@HV?$Local@VObject@v8@@@v8@@2@Z 1000bd40 f   OpenOperation.obj
 0001:0000ae40       ??_GOpenOperation@mssql@@UAEPAXI@Z 1000be40 f i OpenOperation.obj
 0001:0000ae40       ??_EOpenOperation@mssql@@UAEPAXI@Z 1000be40 f i * CIL library *:* CIL module *
 0001:0000ae70       ??1OpenOperation@mssql@@UAE@XZ 1000be70 f   OpenOperation.obj
 0001:0000aee0       ?TryInvokeOdbc@OpenOperation@mssql@@UAE_NXZ 1000bee0 f   OpenOperation.obj
 0001:0000af00       ?CreateCompletionArg@OpenOperation@mssql@@UAE?AV?$Local@VValue@v8@@@v8@@XZ 1000bf00 f   OpenOperation.obj
 0001:0000af40       ??0PrepareOperation@mssql@@QAE@V?$shared_ptr@VOdbcConnection@mssql@@@std@@ABV?$basic_string@_WU?$char_traits@_W@std@@V?$allocator@_W@2@@3@IIV?$Local@VObject@v8@@@v8@@@Z 1000bf40 f   PrepareOperation.obj
 0001:0000b000       ??_EPrepareOperation@mssql@@UAEPAXI@Z 1000c000 f i * CIL library *:* CIL module *
 0001:0000b000       ??_EQueryOperation@mssql@@UAEPAXI@Z 1000c000 f i * CIL library *:* CIL module *
 0001:0000b000       ??_GProcedureOperation@mssql@@UAEPAXI@Z 1000c000 f i ProcedureOperation.obj
 0001:0000b000       ??_GPrepareOperation@mssql@@UAEPAXI@Z 1000c000 f i PrepareOperation.obj
 0001:0000b000       ??_EProcedureOperation@mssql@@UAEPAXI@Z 1000c000 f i * CIL library *:* CIL module *
 0001:0000b000       ??_GQueryOperation@mssql@@UAEPAXI@Z 1000c000 f i QueryOperation.obj
 0001:0000b030       ??1QueryOperation@mssql@@UAE@XZ 1000c030 f i PrepareOperation.obj
 0001:0000b0b0       ?TryInvokeOdbc@PrepareOperation@mssql@@UAE_NXZ 1000c0b0 f   PrepareOperation.obj
 0001:0000b160       ??0ProcedureOperation@mssql@@QAE@V?$shared_ptr@VOdbcConnection@mssql@@@std@@ABV?$basic_string@_WU?$char_traits@_W@std@@V?$allocator@_W@2@@3@IIV?$Local@VObject@v8@@@v8@@@Z 1000c160 f   ProcedureOperation.obj
 0001:0000b220       ?TryInvokeOdbc@QueryOperation@mssql@@UAE_NXZ 1000c220 f   QueryOperation.obj
 0001:0000b220       ?TryInvokeOdbc@ProcedureOperation@mssql@@UAE_NXZ 1000c220 f   ProcedureOperation.obj
 0001:0000b330       ?CreateCompletionArg@ProcedureOperation@mssql@@UAE?AV?$Local@VValue@v8@@@v8@@XZ 1000c330 f   ProcedureOperation.obj
 0001:0000b390       ___local_stdio_printf_options 1000c390 f i QueryOperation.obj
 0001:0000b3a0       _sprintf_s                 1000c3a0 f i QueryOperation.obj
 0001:0000b3e0       ?what@exception@stdext@@UBEPBDXZ 1000c3e0 f i QueryOperation.obj
 0001:0000b3f0       ?_Raise@exception@stdext@@QBEXXZ 1000c3f0 f i QueryOperation.obj
 0001:0000b420       ?destroy@stl_condition_variable_win7@details@Concurrency@@UAEXXZ 1000c420 f i libcpmt:cond.obj
 0001:0000b420       ?NotifyAffinitizedWork@FairScheduleGroupSegment@details@Concurrency@@UAEXXZ 1000c420 f i libconcrt:SchedulerBase.obj
 0001:0000b420       @_guard_check_icall_nop@4  1000c420 f i LIBCMT:guard_support.obj
 0001:0000b420       ?_Doraise@exception@stdext@@MBEXXZ 1000c420 f i QueryOperation.obj
 0001:0000b420       ?_Unlock@?$basic_streambuf@DU?$char_traits@D@std@@@std@@UAEXXZ 1000c420 f i QueryOperation.obj
 0001:0000b420       ?destroy@stl_critical_section_win7@details@Concurrency@@UAEXXZ 1000c420 f i libcpmt:mutex.obj
 0001:0000b420       ?_Lock@?$basic_streambuf@DU?$char_traits@D@std@@@std@@UAEXXZ 1000c420 f i QueryOperation.obj
 0001:0000b420       ___except_validate_jump_buffer 1000c420 f i libvcruntime:jbcxrval.obj
 0001:0000b420       ___except_validate_context_record 1000c420 f i libvcruntime:jbcxrval.obj
 0001:0000b420       ??3@YAXPAX0@Z              1000c420 f i libcpmt:mutex.obj
 0001:0000b420       ?RMAwaken@InternalContextBase@details@Concurrency@@EAEXXZ 1000c420 f i libconcrt:InternalContextBase.obj
 0001:0000b420       ?destroy@stl_condition_variable_vista@details@Concurrency@@UAEXXZ 1000c420 f i libcpmt:cond.obj
 0001:0000b420       ??1critical_section@Concurrency@@QAE@XZ 1000c420 f i libconcrt:rtlocks.obj
 0001:0000b420       ?Destroy@WaitAnyBlock@details@Concurrency@@UAEXXZ 1000c420 f i libconcrt:event.obj
 0001:0000b430       ??_Gexception@stdext@@UAEPAXI@Z 1000c430 f i QueryOperation.obj
 0001:0000b430       ??_Eruntime_error@std@@UAEPAXI@Z 1000c430 f i * CIL library *:* CIL module *
 0001:0000b430       ??_Einvalid_argument@std@@UAEPAXI@Z 1000c430 f i * CIL library *:* CIL module *
 0001:0000b430       ??_Elogic_error@std@@UAEPAXI@Z 1000c430 f i * CIL library *:* CIL module *
 0001:0000b430       ??_Eexception@stdext@@UAEPAXI@Z 1000c430 f i * CIL library *:* CIL module *
 0001:0000b430       ??_Ginvalid_argument@std@@UAEPAXI@Z 1000c430 f i Utility.obj
 0001:0000b430       ??_Gruntime_error@std@@UAEPAXI@Z 1000c430 f i QueryOperation.obj
 0001:0000b430       ??_Glogic_error@std@@UAEPAXI@Z 1000c430 f i Utility.obj
 0001:0000b460       ??0_Locinfo@std@@QAE@PBD@Z 1000c460 f i QueryOperation.obj
 0001:0000b4e0       ??1_Locinfo@std@@QAE@XZ    1000c4e0 f i QueryOperation.obj
 0001:0000b580       ??_G_Facet_base@std@@UAEPAXI@Z 1000c580 f i QueryOperation.obj
 0001:0000b580       ??_E_Facet_base@std@@UAEPAXI@Z 1000c580 f i * CIL library *:* CIL module *
 0001:0000b5b0       ?_Incref@facet@locale@std@@UAEXXZ 1000c5b0 f i QueryOperation.obj
 0001:0000b5c0       ?_Decref@facet@locale@std@@UAEPAV_Facet_base@3@XZ 1000c5c0 f i QueryOperation.obj
 0001:0000b5e0       ??1locale@std@@QAE@XZ      1000c5e0 f i QueryOperation.obj
 0001:0000b600       ?_Getcat@?$ctype@D@std@@SAIPAPBVfacet@locale@2@PBV42@@Z 1000c600 f i QueryOperation.obj
 0001:0000b690       ?do_tolower@?$ctype@D@std@@MBEDD@Z 1000c690 f i QueryOperation.obj
 0001:0000b6b0       ?do_tolower@?$ctype@D@std@@MBEPBDPADPBD@Z 1000c6b0 f i QueryOperation.obj
 0001:0000b6f0       ?do_toupper@?$ctype@D@std@@MBEDD@Z 1000c6f0 f i QueryOperation.obj
 0001:0000b710       ?do_toupper@?$ctype@D@std@@MBEPBDPADPBD@Z 1000c710 f i QueryOperation.obj
 0001:0000b750       ?do_widen@?$ctype@D@std@@MBEDD@Z 1000c750 f i QueryOperation.obj
 0001:0000b760       ?do_widen@?$ctype@D@std@@MBEPBDPBD0PAD@Z 1000c760 f i QueryOperation.obj
 0001:0000b780       ?do_narrow@?$ctype@D@std@@MBEDDD@Z 1000c780 f i QueryOperation.obj
 0001:0000b790       ?do_narrow@?$ctype@D@std@@MBEPBDPBD0DPAD@Z 1000c790 f i QueryOperation.obj
 0001:0000b7b0       ??_G?$ctype@D@std@@MAEPAXI@Z 1000c7b0 f i QueryOperation.obj
 0001:0000b7b0       ??_E?$ctype@D@std@@MAEPAXI@Z 1000c7b0 f i * CIL library *:* CIL module *
 0001:0000b800       ??_E_Generic_error_category@std@@UAEPAXI@Z 1000c800 f i * CIL library *:* CIL module *
 0001:0000b800       ??_E_Iostream_error_category@std@@UAEPAXI@Z 1000c800 f i * CIL library *:* CIL module *
 0001:0000b800       ??_G_Iostream_error_category@std@@UAEPAXI@Z 1000c800 f i QueryOperation.obj
 0001:0000b800       ??_Eerror_category@std@@UAEPAXI@Z 1000c800 f i * CIL library *:* CIL module *
 0001:0000b800       ??_G_Generic_error_category@std@@UAEPAXI@Z 1000c800 f i QueryOperation.obj
 0001:0000b800       ??_Gerror_category@std@@UAEPAXI@Z 1000c800 f i QueryOperation.obj
 0001:0000b830       ?default_error_condition@error_category@std@@UBE?AVerror_condition@2@H@Z 1000c830 f i QueryOperation.obj
 0001:0000b840       ?equivalent@error_category@std@@UBE_NHABVerror_condition@2@@Z 1000c840 f i QueryOperation.obj
 0001:0000b8a0       ?equivalent@error_category@std@@UBE_NABVerror_code@2@H@Z 1000c8a0 f i QueryOperation.obj
 0001:0000b8d0       ?_Makestr@_System_error@std@@CA?AV?$basic_string@DU?$char_traits@D@std@@V?$allocator@D@2@@2@Verror_code@2@V32@@Z 1000c8d0 f i QueryOperation.obj
 0001:0000b970       ??0_System_error@std@@IAE@Verror_code@1@ABV?$basic_string@DU?$char_traits@D@std@@V?$allocator@D@2@@1@@Z 1000c970 f i QueryOperation.obj
 0001:0000ba10       ??_Efailure@ios_base@std@@UAEPAXI@Z 1000ca10 f i * CIL library *:* CIL module *
 0001:0000ba10       ??_Esystem_error@std@@UAEPAXI@Z 1000ca10 f i * CIL library *:* CIL module *
 0001:0000ba10       ??_Gsystem_error@std@@UAEPAXI@Z 1000ca10 f i QueryOperation.obj
 0001:0000ba10       ??_Gfailure@ios_base@std@@UAEPAXI@Z 1000ca10 f i QueryOperation.obj
 0001:0000ba10       ??_G_System_error@std@@UAEPAXI@Z 1000ca10 f i QueryOperation.obj
 0001:0000ba10       ??_E_System_error@std@@UAEPAXI@Z 1000ca10 f i * CIL library *:* CIL module *
 0001:0000ba40       ??0system_error@std@@QAE@Verror_code@1@PBD@Z 1000ca40 f i QueryOperation.obj
 0001:0000bae0       ??1system_error@std@@UAE@XZ 1000cae0 f i QueryOperation.obj
 0001:0000bae0       ??1invalid_argument@std@@UAE@XZ 1000cae0 f i Utility.obj
 0001:0000baf0       ?name@_Generic_error_category@std@@UBEPBDXZ 1000caf0 f i QueryOperation.obj
 0001:0000bb00       ?message@_Generic_error_category@std@@UBE?AV?$basic_string@DU?$char_traits@D@std@@V?$allocator@D@2@@2@H@Z 1000cb00 f i QueryOperation.obj
 0001:0000bb60       ?name@_Iostream_error_category@std@@UBEPBDXZ 1000cb60 f i QueryOperation.obj
 0001:0000bb70       ?message@_Iostream_error_category@std@@UBE?AV?$basic_string@DU?$char_traits@D@std@@V?$allocator@D@2@@2@H@Z 1000cb70 f i QueryOperation.obj
 0001:0000bbb0       ?_Doraise@failure@ios_base@std@@MBEXXZ 1000cbb0 f i QueryOperation.obj
 0001:0000bbc0       ?clear@ios_base@std@@QAEXH_N@Z 1000cbc0 f i QueryOperation.obj
 0001:0000bc50       ?_Init@ios_base@std@@IAEXXZ 1000cc50 f i QueryOperation.obj
 0001:0000bcd0       ??_Gios_base@std@@UAEPAXI@Z 1000ccd0 f i QueryOperation.obj
 0001:0000bcd0       ??_Eios_base@std@@UAEPAXI@Z 1000ccd0 f i * CIL library *:* CIL module *
 0001:0000bd00       ??0QueryOperation@mssql@@QAE@V?$shared_ptr@VOdbcConnection@mssql@@@std@@ABV?$basic_string@_WU?$char_traits@_W@std@@V?$allocator@_W@2@@3@IIV?$Local@VObject@v8@@@v8@@@Z 1000cd00 f   QueryOperation.obj
 0001:0000be90       ?ParameterErrorToUserCallback@QueryOperation@mssql@@QBE_NIPBD@Z 1000ce90 f   QueryOperation.obj
 0001:0000c0b0       ?CreateCompletionArg@QueryOperation@mssql@@UAE?AV?$Local@VValue@v8@@@v8@@XZ 1000d0b0 f   QueryOperation.obj
 0001:0000c0b0       ?CreateCompletionArg@QueryPreparedOperation@mssql@@UAE?AV?$Local@VValue@v8@@@v8@@XZ 1000d0b0 f   QueryPreparedOperation.obj
 0001:0000c110       ??0?$basic_string@DU?$char_traits@D@std@@V?$allocator@D@2@@std@@QAE@$$QAV01@@Z 1000d110 f i QueryOperation.obj
 0001:0000c190       ??1?$basic_stringstream@DU?$char_traits@D@std@@V?$allocator@D@2@@std@@UAE@XZ 1000d190 f i QueryOperation.obj
 0001:0000c250       ?seekpos@?$basic_stringbuf@DU?$char_traits@D@std@@V?$allocator@D@2@@std@@MAE?AV?$fpos@U_Mbstatet@@@2@V32@H@Z 1000d250 f i QueryOperation.obj
 0001:0000c380       ?seekoff@?$basic_stringbuf@DU?$char_traits@D@std@@V?$allocator@D@2@@std@@MAE?AV?$fpos@U_Mbstatet@@@2@_JHH@Z 1000d380 f i QueryOperation.obj
 0001:0000c560       ?underflow@?$basic_stringbuf@DU?$char_traits@D@std@@V?$allocator@D@2@@std@@MAEHXZ 1000d560 f i QueryOperation.obj
 0001:0000c5c0       ?pbackfail@?$basic_stringbuf@DU?$char_traits@D@std@@V?$allocator@D@2@@std@@MAEHH@Z 1000d5c0 f i QueryOperation.obj
 0001:0000c620       ?overflow@?$basic_stringbuf@DU?$char_traits@D@std@@V?$allocator@D@2@@std@@MAEHH@Z 1000d620 f i QueryOperation.obj
 0001:0000c7e0       ??6?$basic_ostream@DU?$char_traits@D@std@@@std@@QAEAAV01@I@Z 1000d7e0 f i QueryOperation.obj
 0001:0000c900       ?imbue@?$basic_streambuf@DU?$char_traits@D@std@@@std@@MAEXABVlocale@2@@Z 1000d900 f i QueryOperation.obj
 0001:0000c910       ?EnterHyperCriticalRegion@ContextBase@details@Concurrency@@QAEHXZ 1000d910 f i libconcrt:ContextBase.obj
 0001:0000c910       ?ExitHyperCriticalRegion@ContextBase@details@Concurrency@@QAEHXZ 1000d910 f i libconcrt:ContextBase.obj
 0001:0000c910       ?GetDefaultDestination@VirtualProcessor@details@Concurrency@@UAEPAUIExecutionContext@3@XZ 1000d910 f i libconcrt:VirtualProcessor.obj
 0001:0000c910       ?EnterCriticalRegion@ContextBase@details@Concurrency@@QAEHXZ 1000d910 f i libconcrt:ContextBase.obj
 0001:0000c910       ?GetContextKind@ExternalContextBase@details@Concurrency@@EBE?AW4ContextKind@ContextBase@23@XZ 1000d910 f i libconcrt:ExternalContextBase.obj
 0001:0000c910       ?sync@?$basic_streambuf@DU?$char_traits@D@std@@@std@@MAEHXZ 1000d910 f i QueryOperation.obj
 0001:0000c910       ?ExitCriticalRegion@ContextBase@details@Concurrency@@QAEHXZ 1000d910 f i libconcrt:ContextBase.obj
 0001:0000c910       ?PreRunnableSearch@VirtualProcessor@details@Concurrency@@UAEPAVInternalContextBase@23@XZ 1000d910 f i libconcrt:VirtualProcessor.obj
 0001:0000c920       ?setbuf@?$basic_streambuf@DU?$char_traits@D@std@@@std@@MAEPAV12@PAD_J@Z 1000d920 f i QueryOperation.obj
 0001:0000c930       ?seekpos@?$basic_streambuf@DU?$char_traits@D@std@@@std@@MAE?AV?$fpos@U_Mbstatet@@@2@V32@H@Z 1000d930 f i QueryOperation.obj
 0001:0000c960       ?seekoff@?$basic_streambuf@DU?$char_traits@D@std@@@std@@MAE?AV?$fpos@U_Mbstatet@@@2@_JHH@Z 1000d960 f i QueryOperation.obj
 0001:0000c990       ?xsputn@?$basic_streambuf@DU?$char_traits@D@std@@@std@@MAE_JPBD_J@Z 1000d990 f i QueryOperation.obj
 0001:0000caa0       ?xsgetn@?$basic_streambuf@DU?$char_traits@D@std@@@std@@MAE_JPAD_J@Z 1000daa0 f i QueryOperation.obj
 0001:0000cbd0       ?uflow@?$basic_streambuf@DU?$char_traits@D@std@@@std@@MAEHXZ 1000dbd0 f i QueryOperation.obj
 0001:0000cc00       ?underflow@?$basic_streambuf@DU?$char_traits@D@std@@@std@@MAEHXZ 1000dc00 f i QueryOperation.obj
 0001:0000cc00       ?GetVirtualProcessorId@ExternalContextBase@details@Concurrency@@UBEIXZ 1000dc00 f i libconcrt:ExternalContextBase.obj
 0001:0000cc10       ?showmanyc@?$basic_streambuf@DU?$char_traits@D@std@@@std@@MAE_JXZ 1000dc10 f i QueryOperation.obj
 0001:0000cc20       ?pbackfail@?$basic_streambuf@DU?$char_traits@D@std@@@std@@MAEHH@Z 1000dc20 f i QueryOperation.obj
 0001:0000cc20       ?overflow@?$basic_streambuf@DU?$char_traits@D@std@@@std@@MAEHH@Z 1000dc20 f i QueryOperation.obj
 0001:0000cc30       ??_E?$basic_stringstream@DU?$char_traits@D@std@@V?$allocator@D@2@@std@@UAEPAXI@Z 1000dc30 f i * CIL library *:* CIL module *
 0001:0000cc30       ??_G?$basic_stringstream@DU?$char_traits@D@std@@V?$allocator@D@2@@std@@UAEPAXI@Z 1000dc30 f i QueryOperation.obj
 0001:0000cc70       ??_E?$basic_stringbuf@DU?$char_traits@D@std@@V?$allocator@D@2@@std@@UAEPAXI@Z 1000dc70 f i * CIL library *:* CIL module *
 0001:0000cc70       ??_G?$basic_stringbuf@DU?$char_traits@D@std@@V?$allocator@D@2@@std@@UAEPAXI@Z 1000dc70 f i QueryOperation.obj
 0001:0000ccd0       ??_E?$basic_iostream@DU?$char_traits@D@std@@@std@@UAEPAXI@Z 1000dcd0 f i * CIL library *:* CIL module *
 0001:0000ccd0       ??_G?$basic_iostream@DU?$char_traits@D@std@@@std@@UAEPAXI@Z 1000dcd0 f i QueryOperation.obj
 0001:0000cd00       ??_E?$basic_ostream@DU?$char_traits@D@std@@@std@@UAEPAXI@Z 1000dd00 f i * CIL library *:* CIL module *
 0001:0000cd00       ??_G?$basic_ostream@DU?$char_traits@D@std@@@std@@UAEPAXI@Z 1000dd00 f i QueryOperation.obj
 0001:0000cd50       ??_E?$basic_istream@DU?$char_traits@D@std@@@std@@UAEPAXI@Z 1000dd50 f i * CIL library *:* CIL module *
 0001:0000cd50       ??_G?$basic_istream@DU?$char_traits@D@std@@@std@@UAEPAXI@Z 1000dd50 f i QueryOperation.obj
 0001:0000cda0       ??_E?$basic_streambuf@DU?$char_traits@D@std@@@std@@UAEPAXI@Z 1000dda0 f i * CIL library *:* CIL module *
 0001:0000cda0       ??_G?$basic_streambuf@DU?$char_traits@D@std@@@std@@UAEPAXI@Z 1000dda0 f i QueryOperation.obj
 0001:0000cdf0       ??_E?$basic_ios@DU?$char_traits@D@std@@@std@@UAEPAXI@Z 1000ddf0 f i * CIL library *:* CIL module *
 0001:0000cdf0       ??_G?$basic_ios@DU?$char_traits@D@std@@@std@@UAEPAXI@Z 1000ddf0 f i QueryOperation.obj
 0001:0000ce20       ??_D?$basic_iostream@DU?$char_traits@D@std@@@std@@QAEXXZ 1000de20 f i QueryOperation.obj
 0001:0000ce90       ??1sentry@?$basic_ostream@DU?$char_traits@D@std@@@std@@QAE@XZ 1000de90 f i QueryOperation.obj
 0001:0000cf10       ??0sentry@?$basic_ostream@DU?$char_traits@D@std@@@std@@QAE@AAV12@@Z 1000df10 f i QueryOperation.obj
 0001:0000cf80       ?do_put@?$num_put@DV?$ostreambuf_iterator@DU?$char_traits@D@std@@@std@@@std@@MBE?AV?$ostreambuf_iterator@DU?$char_traits@D@std@@@2@V32@AAVios_base@2@DPBX@Z 1000df80 f i QueryOperation.obj
 0001:0000cff0       ?do_put@?$num_put@DV?$ostreambuf_iterator@DU?$char_traits@D@std@@@std@@@std@@MBE?AV?$ostreambuf_iterator@DU?$char_traits@D@std@@@2@V32@AAVios_base@2@DO@Z 1000dff0 f i QueryOperation.obj
 0001:0000d190       ?do_put@?$num_put@DV?$ostreambuf_iterator@DU?$char_traits@D@std@@@std@@@std@@MBE?AV?$ostreambuf_iterator@DU?$char_traits@D@std@@@2@V32@AAVios_base@2@DN@Z 1000e190 f i QueryOperation.obj
 0001:0000d330       ?do_put@?$num_put@DV?$ostreambuf_iterator@DU?$char_traits@D@std@@@std@@@std@@MBE?AV?$ostreambuf_iterator@DU?$char_traits@D@std@@@2@V32@AAVios_base@2@D_K@Z 1000e330 f i QueryOperation.obj
 0001:0000d3b0       ?do_put@?$num_put@DV?$ostreambuf_iterator@DU?$char_traits@D@std@@@std@@@std@@MBE?AV?$ostreambuf_iterator@DU?$char_traits@D@std@@@2@V32@AAVios_base@2@D_J@Z 1000e3b0 f i QueryOperation.obj
 0001:0000d430       ?do_put@?$num_put@DV?$ostreambuf_iterator@DU?$char_traits@D@std@@@std@@@std@@MBE?AV?$ostreambuf_iterator@DU?$char_traits@D@std@@@2@V32@AAVios_base@2@DK@Z 1000e430 f i QueryOperation.obj
 0001:0000d4b0       ?do_put@?$num_put@DV?$ostreambuf_iterator@DU?$char_traits@D@std@@@std@@@std@@MBE?AV?$ostreambuf_iterator@DU?$char_traits@D@std@@@2@V32@AAVios_base@2@DJ@Z 1000e4b0 f i QueryOperation.obj
 0001:0000d530       ?do_put@?$num_put@DV?$ostreambuf_iterator@DU?$char_traits@D@std@@@std@@@std@@MBE?AV?$ostreambuf_iterator@DU?$char_traits@D@std@@@2@V32@AAVios_base@2@D_N@Z 1000e530 f i QueryOperation.obj
 0001:0000d6f0       ?assign@?$basic_string@DU?$char_traits@D@std@@V?$allocator@D@2@@std@@QAEAAV12@ID@Z 1000e6f0 f i QueryOperation.obj
 0001:0000d7c0       ?append@?$basic_string@DU?$char_traits@D@std@@V?$allocator@D@2@@std@@QAEAAV12@PBDI@Z 1000e7c0 f i QueryOperation.obj
 0001:0000d8f0       ?append@?$basic_string@DU?$char_traits@D@std@@V?$allocator@D@2@@std@@QAEAAV12@ABV12@II@Z 1000e8f0 f i QueryOperation.obj
 0001:0000d9f0       ?_Assign_rv@?$basic_string@DU?$char_traits@D@std@@V?$allocator@D@2@@std@@QAEX$$QAV12@@Z 1000e9f0 f i QueryOperation.obj
 0001:0000da60       ?_Tidy@?$basic_stringbuf@DU?$char_traits@D@std@@V?$allocator@D@2@@std@@IAEXXZ 1000ea60 f i QueryOperation.obj
 0001:0000db10       ??0?$basic_iostream@DU?$char_traits@D@std@@@std@@QAE@PAV?$basic_streambuf@DU?$char_traits@D@std@@@1@@Z 1000eb10 f i QueryOperation.obj
 0001:0000dba0       ?_Pnavail@?$basic_streambuf@DU?$char_traits@D@std@@@std@@IBE_JXZ 1000eba0 f i QueryOperation.obj
 0001:0000dbc0       ?_Gnavail@?$basic_streambuf@DU?$char_traits@D@std@@@std@@IBE_JXZ 1000ebc0 f i QueryOperation.obj
 0001:0000dbe0       ??_E?$num_put@DV?$ostreambuf_iterator@DU?$char_traits@D@std@@@std@@@std@@MAEPAXI@Z 1000ebe0 f i * CIL library *:* CIL module *
 0001:0000dbe0       ??_G?$num_put@DV?$ostreambuf_iterator@DU?$char_traits@D@std@@@std@@@std@@MAEPAXI@Z 1000ebe0 f i QueryOperation.obj
 0001:0000dc10       ?do_truename@?$numpunct@D@std@@MBE?AV?$basic_string@DU?$char_traits@D@std@@V?$allocator@D@2@@2@XZ 1000ec10 f i QueryOperation.obj
 0001:0000dc60       ?do_falsename@?$numpunct@D@std@@MBE?AV?$basic_string@DU?$char_traits@D@std@@V?$allocator@D@2@@2@XZ 1000ec60 f i QueryOperation.obj
 0001:0000dcb0       ?do_grouping@?$numpunct@D@std@@MBE?AV?$basic_string@DU?$char_traits@D@std@@V?$allocator@D@2@@2@XZ 1000ecb0 f i QueryOperation.obj
 0001:0000dd00       ?do_thousands_sep@?$numpunct@D@std@@MBEDXZ 1000ed00 f i QueryOperation.obj
 0001:0000dd10       ?truename@?$numpunct@D@std@@QBE?AV?$basic_string@DU?$char_traits@D@std@@V?$allocator@D@2@@2@XZ 1000ed10 f i QueryOperation.obj
 0001:0000dd80       ?falsename@?$numpunct@D@std@@QBE?AV?$basic_string@DU?$char_traits@D@std@@V?$allocator@D@2@@2@XZ 1000ed80 f i QueryOperation.obj
 0001:0000ddf0       ?_Rep@?$num_put@DV?$ostreambuf_iterator@DU?$char_traits@D@std@@@std@@@std@@ABA?AV?$ostreambuf_iterator@DU?$char_traits@D@std@@@2@V32@DI@Z 1000edf0 f i QueryOperation.obj
 0001:0000de60       ?_Put@?$num_put@DV?$ostreambuf_iterator@DU?$char_traits@D@std@@@std@@@std@@ABA?AV?$ostreambuf_iterator@DU?$char_traits@D@std@@@2@V32@PBDI@Z 1000ee60 f i QueryOperation.obj
 0001:0000dee0       ?_Iput@?$num_put@DV?$ostreambuf_iterator@DU?$char_traits@D@std@@@std@@@std@@ABA?AV?$ostreambuf_iterator@DU?$char_traits@D@std@@@2@V32@AAVios_base@2@DPADI@Z 1000eee0 f i QueryOperation.obj
 0001:0000e270       ?_Ifmt@?$num_put@DV?$ostreambuf_iterator@DU?$char_traits@D@std@@@std@@@std@@ABAPADPADPBDH@Z 1000f270 f i QueryOperation.obj
 0001:0000e300       ?_Fput@?$num_put@DV?$ostreambuf_iterator@DU?$char_traits@D@std@@@std@@@std@@ABA?AV?$ostreambuf_iterator@DU?$char_traits@D@std@@@2@V32@AAVios_base@2@DPBDI@Z 1000f300 f i QueryOperation.obj
 0001:0000e710       ?_Ffmt@?$num_put@DV?$ostreambuf_iterator@DU?$char_traits@D@std@@@std@@@std@@ABAPADPADDH@Z 1000f710 f i QueryOperation.obj
 0001:0000e7d0       ?_Chassign@?$basic_string@DU?$char_traits@D@std@@V?$allocator@D@2@@std@@QAEXIID@Z 1000f7d0 f i QueryOperation.obj
 0001:0000e820       ?append@?$basic_string@DU?$char_traits@D@std@@V?$allocator@D@2@@std@@QAEAAV12@ID@Z 1000f820 f i QueryOperation.obj
 0001:0000e8c0       ?assign@?$basic_string@DU?$char_traits@D@std@@V?$allocator@D@2@@std@@QAEAAV12@$$QAV12@@Z 1000f8c0 f i QueryOperation.obj
 0001:0000e920       ?flush@?$basic_ostream@DU?$char_traits@D@std@@@std@@QAEAAV12@XZ 1000f920 f i QueryOperation.obj
 0001:0000e9a0       ??0?$basic_streambuf@DU?$char_traits@D@std@@@std@@IAE@XZ 1000f9a0 f i QueryOperation.obj
 0001:0000ea20       ??_E?$numpunct@D@std@@MAEPAXI@Z 1000fa20 f i * CIL library *:* CIL module *
 0001:0000ea20       ??_G?$numpunct@D@std@@MAEPAXI@Z 1000fa20 f i QueryOperation.obj
 0001:0000ea70       ?grouping@?$numpunct@D@std@@QBE?AV?$basic_string@DU?$char_traits@D@std@@V?$allocator@D@2@@2@XZ 1000fa70 f i QueryOperation.obj
 0001:0000eae0       ?insert@?$basic_string@DU?$char_traits@D@std@@V?$allocator@D@2@@std@@QAEAAV12@IID@Z 1000fae0 f i QueryOperation.obj
 0001:0000ebe0       ?init@?$basic_ios@DU?$char_traits@D@std@@@std@@IAEXPAV?$basic_streambuf@DU?$char_traits@D@std@@@2@_N@Z 1000fbe0 f i QueryOperation.obj
 0001:0000ec70       ??$use_facet@V?$ctype@D@std@@@std@@YAABV?$ctype@D@0@ABVlocale@0@@Z 1000fc70 f i QueryOperation.obj
 0001:0000ed70       ??$_Immortalize@V_Iostream_error_category@std@@@std@@YAAAV_Iostream_error_category@0@XZ 1000fd70 f i QueryOperation.obj
 0001:0000ede0       ??$?6U?$char_traits@D@std@@@std@@YAAAV?$basic_ostream@DU?$char_traits@D@std@@@0@AAV10@PBD@Z 1000fde0 f i QueryOperation.obj
 0001:0000f060       ??$use_facet@V?$num_put@DV?$ostreambuf_iterator@DU?$char_traits@D@std@@@std@@@std@@@std@@YAABV?$num_put@DV?$ostreambuf_iterator@DU?$char_traits@D@std@@@std@@@0@ABVlocale@0@@Z 10010060 f i QueryOperation.obj
 0001:0000f160       ??$use_facet@V?$numpunct@D@std@@@std@@YAABV?$numpunct@D@0@ABVlocale@0@@Z 10010160 f i QueryOperation.obj
 0001:0000f260       ?_Getcat@?$numpunct@D@std@@SAIPAPBVfacet@locale@2@PBV42@@Z 10010260 f i QueryOperation.obj
 0001:0000f2e0       ?_Getcat@?$num_put@DV?$ostreambuf_iterator@DU?$char_traits@D@std@@@std@@@std@@SAIPAPBVfacet@locale@2@PBV42@@Z 100102e0 f i QueryOperation.obj
 0001:0000f350       ?_Init@?$numpunct@D@std@@IAEXABV_Locinfo@2@_N@Z 10010350 f i QueryOperation.obj
 0001:0000f484       ??_E?$basic_ostream@DU?$char_traits@D@std@@@std@@$4PPPPPPPM@A@AEPAXI@Z 10010484 f i QueryOperation.obj
 0001:0000f48c       ??_E?$basic_stringstream@DU?$char_traits@D@std@@V?$allocator@D@2@@std@@$4PPPPPPPM@A@AEPAXI@Z 1001048c f i QueryOperation.obj
 0001:0000f494       ??_E?$basic_istream@DU?$char_traits@D@std@@@std@@$4PPPPPPPM@A@AEPAXI@Z 10010494 f i QueryOperation.obj
 0001:0000f49c       ??_E?$basic_iostream@DU?$char_traits@D@std@@@std@@$4PPPPPPPM@A@AEPAXI@Z 1001049c f i QueryOperation.obj
 0001:0000f4b0       ?TryInvokeOdbc@ReadColumnOperation@mssql@@UAE_NXZ 100104b0 f   ReadColumnOperation.obj
 0001:0000f520       ?CreateCompletionArg@ReadColumnOperation@mssql@@UAE?AV?$Local@VValue@v8@@@v8@@XZ 10010520 f   ReadColumnOperation.obj
 0001:0000f540       ??0QueryPreparedOperation@mssql@@QAE@V?$shared_ptr@VOdbcConnection@mssql@@@std@@IIV?$Local@VObject@v8@@@v8@@@Z 10010540 f   QueryPreparedOperation.obj
 0001:0000f6b0       ??_EQueryPreparedOperation@mssql@@UAEPAXI@Z 100106b0 f i * CIL library *:* CIL module *
 0001:0000f6b0       ??_GQueryPreparedOperation@mssql@@UAEPAXI@Z 100106b0 f i QueryPreparedOperation.obj
 0001:0000f710       ?ParameterErrorToUserCallback@QueryPreparedOperation@mssql@@QBE_NIPBD@Z 10010710 f   QueryPreparedOperation.obj
 0001:0000f930       ?TryInvokeOdbc@QueryPreparedOperation@mssql@@UAE_NXZ 10010930 f   QueryPreparedOperation.obj
 0001:0000f970       ?SweepWaitNode@SingleWaitBlock@details@Concurrency@@UAE_NXZ 10010970 f   libconcrt:event.obj
 0001:0000f970       ?AllowGeneralFetchOfReservedContexts@SchedulerBase@details@Concurrency@@MAE_NXZ 10010970 f   libconcrt:SchedulerBase.obj
 0001:0000f970       ?TryInvokeOdbc@FreeStatementOperation@mssql@@UAE_NXZ 10010970 f   FreeStatementOperation.obj
 0001:0000f970       ___acrt_uninitialize_command_line 10010970 f   libucrt:argv_data.obj
 0001:0000f980       ?TryInvokeOdbc@ReadNextResultOperation@mssql@@UAE_NXZ 10010980 f   ReadNextResultOperation.obj
 0001:0000fa00       ?CreateCompletionArg@ReadNextResultOperation@mssql@@UAE?AV?$Local@VValue@v8@@@v8@@XZ 10010a00 f   ReadNextResultOperation.obj
 0001:0000fb70       ?TryInvokeOdbc@ReadRowOperation@mssql@@UAE_NXZ 10010b70 f   ReadRowOperation.obj
 0001:0000fbd0       ?CreateCompletionArg@ReadRowOperation@mssql@@UAE?AV?$Local@VValue@v8@@@v8@@XZ 10010bd0 f   ReadRowOperation.obj
 0001:0000fd50       ?getEntry@ResultSet@mssql@@CA?AV?$Local@VObject@v8@@@v8@@AAUnodeTypeFactory@2@ABUColumnDefinition@12@@Z 10010d50 f   ResultSet.obj
 0001:0000ff10       ??$_For_each_unchecked@PAUColumnDefinition@ResultSet@mssql@@V<lambda_a5315f8c1a54af07970c450ea5cb1ecd>@@@std@@YAXPAUColumnDefinition@ResultSet@mssql@@0AAV<lambda_a5315f8c1a54af07970c450ea5cb1ecd>@@@Z 10010f10 f i ResultSet.obj
 0001:0000ff60       ??0exception@stdext@@QAE@ABV01@@Z 10010f60 f i Utility.obj
 0001:0000ff80       ??0invalid_argument@std@@QAE@PBD@Z 10010f80 f i Utility.obj
 0001:0000ffa0       ?FromV8String@mssql@@YA?AV?$basic_string@_WU?$char_traits@_W@std@@V?$allocator@_W@2@@std@@V?$Local@VString@v8@@@v8@@@Z 10010fa0 f   Utility.obj
 0001:00010070       ?w2a@mssql@@YA?AV?$basic_string@DU?$char_traits@D@std@@V?$allocator@D@2@@std@@PB_W@Z 10011070 f   Utility.obj
 0001:00010140       ??0invalid_argument@std@@QAE@ABV01@@Z 10011140 f i Utility.obj
 0001:00010160       ??0logic_error@std@@QAE@ABV01@@Z 10011160 f i Utility.obj
 0001:00010180       ?hex2bin@mssql@@YAHPBDPAD@Z 10011180 f   Utility.obj
 0001:00010250       ?hexify@mssql@@YA?AV?$basic_string@DU?$char_traits@D@std@@V?$allocator@D@2@@std@@_K@Z 10011250 f   Utility.obj
 0001:000103d0       ?encodeNumericStruct@mssql@@YAXNHHAAUtagSQL_NUMERIC_STRUCT@@@Z 100113d0 f   Utility.obj
 0001:00010600       ?error@nodeTypeFactory@mssql@@QBE?AV?$Local@VObject@v8@@@v8@@ABV?$basic_stringstream@DU?$char_traits@D@std@@V?$allocator@D@2@@std@@@Z 10011600 f   Utility.obj
 0001:00010690       ?newDate@nodeTypeFactory@mssql@@QBE?AV?$Local@VValue@v8@@@v8@@NH@Z 10011690 f   Utility.obj
 0001:00010730       ?resize@?$vector@DV?$allocator@D@std@@@std@@QAEXI@Z 10011730 f i Utility.obj
 0001:00010780       ?append@?$basic_string@_WU?$char_traits@_W@std@@V?$allocator@_W@2@@std@@QAEAAV12@PB_WI@Z 10011780 f i Utility.obj
 0001:000108b0       ?_Reserve@?$vector@DV?$allocator@D@std@@@std@@IAEXI@Z 100118b0 f i Utility.obj
 0001:00010910       ?append@?$basic_string@_WU?$char_traits@_W@std@@V?$allocator@_W@2@@std@@QAEAAV12@ABV12@II@Z 10011910 f i Utility.obj
 0001:00010a20       ?str@?$basic_stringbuf@DU?$char_traits@D@std@@V?$allocator@D@2@@std@@QBE?AV?$basic_string@DU?$char_traits@D@std@@V?$allocator@D@2@@2@XZ 10011a20 f i Utility.obj
 0001:00010b20       ?_Reallocate@?$vector@DV?$allocator@D@std@@@std@@IAEXI@Z 10011b20 f i Utility.obj
 0001:00010be0       ??$?HDU?$char_traits@D@std@@V?$allocator@D@1@@std@@YA?AV?$basic_string@DU?$char_traits@D@std@@V?$allocator@D@2@@0@PBDABV10@@Z 10011be0 f i Utility.obj
 0001:00010c50       ??$_Construct@V?$reverse_iterator@V?$_String_iterator@V?$_String_val@U?$_Simple_types@D@std@@@std@@@std@@@std@@@?$basic_string@DU?$char_traits@D@std@@V?$allocator@D@2@@std@@QAEXV?$reverse_iterator@V?$_String_iterator@V?$_String_val@U?$_Simple_types@D@std@@@std@@@std@@@1@0Uinput_iterator_tag@1@@Z 10011c50 f i Utility.obj
 0001:00010cf0       ?ReserveNumerics@DatumStorage@mssql@@QAEXI@Z 10011cf0 f i BoundDatum.obj
 0001:00010d90       ?ReserveInt32@DatumStorage@mssql@@QAEXI@Z 10011d90 f i BoundDatum.obj
 0001:00010e20       ?ReserveUInt32@DatumStorage@mssql@@QAEXI@Z 10011e20 f i BoundDatum.obj
 0001:00010eb0       ?Reservetime2@DatumStorage@mssql@@QAEXI@Z 10011eb0 f i BoundDatum.obj
 0001:00010f50       ?Decode@nodeTypeCounter@mssql@@QAEXV?$Local@VValue@v8@@@v8@@@Z 10011f50 f i BoundDatum.obj
 0001:00011140       ?reserveNull@BoundDatum@mssql@@AAEXJ@Z 10012140 f   BoundDatum.obj
 0001:000111d0       ?bindWVarChar@BoundDatum@mssql@@AAEXABV?$Local@VValue@v8@@@v8@@@Z 100121d0 f   BoundDatum.obj
 0001:00011210       ?bindVarChar@BoundDatum@mssql@@AAEXABV?$Local@VValue@v8@@@v8@@@Z 10012210 f   BoundDatum.obj
 0001:000112a0       ?reserveVarChar@BoundDatum@mssql@@AAEXI@Z 100122a0 f   BoundDatum.obj
 0001:00011370       ?getMaxStrLen@mssql@@YAHABV?$Local@VValue@v8@@@v8@@@Z 10012370 f   BoundDatum.obj
 0001:000113e0       ?reserveWVarCharArray@BoundDatum@mssql@@AAEXII@Z 100123e0 f   BoundDatum.obj
 0001:00011480       ?bindWVarCharArray@BoundDatum@mssql@@AAEXABV?$Local@VValue@v8@@@v8@@@Z 10012480 f   BoundDatum.obj
 0001:00011570       ?bindWVarChar@BoundDatum@mssql@@AAEXABV?$Local@VValue@v8@@@v8@@H@Z 10012570 f   BoundDatum.obj
 0001:00011630       ?getMaxObjectLen@mssql@@YAIABV?$Local@VValue@v8@@@v8@@@Z 10012630 f   BoundDatum.obj
 0001:00011690       ?reserveVarBinaryArray@BoundDatum@mssql@@AAEXII@Z 10012690 f   BoundDatum.obj
 0001:000117a0       ?bindVarBinary@BoundDatum@mssql@@AAEXAAV?$Local@VValue@v8@@@v8@@@Z 100127a0 f   BoundDatum.obj
 0001:00011840       ?bindVarBinaryArray@BoundDatum@mssql@@AAEXABV?$Local@VValue@v8@@@v8@@@Z 10012840 f   BoundDatum.obj
 0001:00011930       ?bindBoolean@BoundDatum@mssql@@AAEXABV?$Local@VValue@v8@@@v8@@@Z 10012930 f   BoundDatum.obj
 0001:000119a0       ?bindBooleanArray@BoundDatum@mssql@@AAEXABV?$Local@VValue@v8@@@v8@@@Z 100129a0 f   BoundDatum.obj
 0001:00011a40       ?reserveBoolean@BoundDatum@mssql@@AAEXJ@Z 10012a40 f   BoundDatum.obj
 0001:00011b50       ?bindNumeric@BoundDatum@mssql@@AAEXABV?$Local@VValue@v8@@@v8@@@Z 10012b50 f   BoundDatum.obj
 0001:00011bf0       ?reserveNumeric@BoundDatum@mssql@@AAEXJ@Z 10012bf0 f   BoundDatum.obj
 0001:00011c90       ?bindTinyInt@BoundDatum@mssql@@AAEXABV?$Local@VValue@v8@@@v8@@@Z 10012c90 f   BoundDatum.obj
 0001:00011d00       ?bindSmallInt@BoundDatum@mssql@@AAEXABV?$Local@VValue@v8@@@v8@@@Z 10012d00 f   BoundDatum.obj
 0001:00011d70       ?bindInt32@BoundDatum@mssql@@AAEXABV?$Local@VValue@v8@@@v8@@@Z 10012d70 f   BoundDatum.obj
 0001:00011de0       ?bindInt32Array@BoundDatum@mssql@@AAEXABV?$Local@VValue@v8@@@v8@@@Z 10012de0 f   BoundDatum.obj
 0001:00011ea0       ?reserveInt32@BoundDatum@mssql@@AAEXJ@Z 10012ea0 f   BoundDatum.obj
 0001:00011f40       ?bindUint32@BoundDatum@mssql@@AAEXABV?$Local@VValue@v8@@@v8@@@Z 10012f40 f   BoundDatum.obj
 0001:00011fa0       ?bindUint32Array@BoundDatum@mssql@@AAEXABV?$Local@VValue@v8@@@v8@@@Z 10012fa0 f   BoundDatum.obj
 0001:00012060       ?reserveUint32@BoundDatum@mssql@@AAEXJ@Z 10013060 f   BoundDatum.obj
 0001:00012100       ?bindDate@BoundDatum@mssql@@AAEXABV?$Local@VValue@v8@@@v8@@@Z 10013100 f   BoundDatum.obj
 0001:000121c0       ?reserveDate@BoundDatum@mssql@@AAEXJ@Z 100131c0 f   BoundDatum.obj
 0001:000122d0       ?bindTime@BoundDatum@mssql@@AAEXABV?$Local@VValue@v8@@@v8@@@Z 100132d0 f   BoundDatum.obj
 0001:000123a0       ?reserveTime@BoundDatum@mssql@@AAEXJ@Z 100133a0 f   BoundDatum.obj
 0001:00012450       ?bindTimeStamp@BoundDatum@mssql@@AAEXABV?$Local@VValue@v8@@@v8@@@Z 10013450 f   BoundDatum.obj
 0001:00012540       ?reserveTimeStamp@BoundDatum@mssql@@AAEXJ@Z 10013540 f   BoundDatum.obj
 0001:000125f0       ?bindTimeStampOffset@BoundDatum@mssql@@AAEXABV?$Local@VValue@v8@@@v8@@@Z 100135f0 f   BoundDatum.obj
 0001:00012690       ?reserveTimeStampOffset@BoundDatum@mssql@@AAEXJ@Z 10013690 f   BoundDatum.obj
 0001:000127a0       ?bindTimeStampOffsetArray@BoundDatum@mssql@@AAEXABV?$Local@VValue@v8@@@v8@@@Z 100137a0 f   BoundDatum.obj
 0001:00012890       ?bindInteger@BoundDatum@mssql@@AAEXABV?$Local@VValue@v8@@@v8@@@Z 10013890 f   BoundDatum.obj
 0001:000128f0       ?reserveInteger@BoundDatum@mssql@@AAEXJ@Z 100138f0 f   BoundDatum.obj
 0001:000129a0       ?bindIntegerArray@BoundDatum@mssql@@AAEXABV?$Local@VValue@v8@@@v8@@@Z 100139a0 f   BoundDatum.obj
 0001:00012a50       ?bindFloat@BoundDatum@mssql@@AAEXABV?$Local@VValue@v8@@@v8@@@Z 10013a50 f   BoundDatum.obj
 0001:00012ac0       ?bindReal@BoundDatum@mssql@@AAEXABV?$Local@VValue@v8@@@v8@@@Z 10013ac0 f   BoundDatum.obj
 0001:00012b30       ?bindDouble@BoundDatum@mssql@@AAEXABV?$Local@VValue@v8@@@v8@@@Z 10013b30 f   BoundDatum.obj
 0001:00012b90       ?reserveDouble@BoundDatum@mssql@@AAEXJ@Z 10013b90 f   BoundDatum.obj
 0001:00012c40       ?bindDoubleArray@BoundDatum@mssql@@AAEXABV?$Local@VValue@v8@@@v8@@@Z 10013c40 f   BoundDatum.obj
 0001:00012ce0       ?bindNumber@BoundDatum@mssql@@AAEXABV?$Local@VValue@v8@@@v8@@@Z 10013ce0 f   BoundDatum.obj
 0001:00012dc0       ?bindDatumType@BoundDatum@mssql@@AAE_NAAV?$Local@VValue@v8@@@v8@@@Z 10013dc0 f   BoundDatum.obj
 0001:00012f80       ?isNumeric@mssql@@YA_NAAV?$basic_string@_WU?$char_traits@_W@std@@V?$allocator@_W@2@@std@@@Z 10013f80 f   BoundDatum.obj
 0001:00012ff0       ?isDate@mssql@@YA_NABV?$basic_string@_WU?$char_traits@_W@std@@V?$allocator@_W@2@@std@@@Z 10013ff0 f   BoundDatum.obj
 0001:00013060       ?SqlTypeSMapsToNumeric@mssql@@YA_NV?$Local@VValue@v8@@@v8@@@Z 10014060 f   BoundDatum.obj
 0001:00013110       ?SqlTypeSMapsToUInt32@mssql@@YA_NV?$Local@VValue@v8@@@v8@@@Z 10014110 f   BoundDatum.obj
 0001:000131d0       ?SqlTypeSMapsToInt32@mssql@@YA_NV?$Local@VValue@v8@@@v8@@@Z 100141d0 f   BoundDatum.obj
 0001:000132c0       ?SqlTypeSMapsTotring@mssql@@YA_NV?$Local@VValue@v8@@@v8@@@Z 100142c0 f   BoundDatum.obj
 0001:000133a0       ?SqlTypeSMapsToBoolean@mssql@@YA_NV?$Local@VValue@v8@@@v8@@@Z 100143a0 f   BoundDatum.obj
 0001:00013460       ?SqlTypeSMapsToDate@mssql@@YA_NV?$Local@VValue@v8@@@v8@@@Z 10014460 f   BoundDatum.obj
 0001:00013510       ?reserveOutputParam@mssql@@YA?AV?$Local@VValue@v8@@@v8@@V23@H@Z 10014510 f   BoundDatum.obj
 0001:00013680       ?procBind@BoundDatum@mssql@@AAE_NAAV?$Local@VValue@v8@@@v8@@0@Z 10014680 f   BoundDatum.obj
 0001:00013780       ?assignPrecision@BoundDatum@mssql@@AAEXAAV?$Local@VObject@v8@@@v8@@@Z 10014780 f   BoundDatum.obj
 0001:000138d0       ?userBind@BoundDatum@mssql@@AAE_NAAV?$Local@VValue@v8@@@v8@@0@Z 100148d0 f   BoundDatum.obj
 0001:00013ca0       ?bindObject@BoundDatum@mssql@@AAE_NAAV?$Local@VValue@v8@@@v8@@@Z 10014ca0 f   BoundDatum.obj
 0001:00013dc0       ?bindArray@BoundDatum@mssql@@AAE_NAAV?$Local@VValue@v8@@@v8@@@Z 10014dc0 f   BoundDatum.obj
 0001:00013f70       ?unbindNumber@BoundDatum@mssql@@ABE?AV?$Local@VValue@v8@@@v8@@XZ 10014f70 f   BoundDatum.obj
 0001:00014010       ?reserveColumnType@BoundDatum@mssql@@QAEXFI@Z 10015010 f   BoundDatum.obj
 0001:000141c0       ?unbind@BoundDatum@mssql@@QBE?AV?$Local@VValue@v8@@@v8@@XZ 100151c0 f   BoundDatum.obj
 0001:00014310       ?_Reserve@?$vector@JV?$allocator@J@std@@@std@@IAEXI@Z 10015310 f i BoundDatum.obj
 0001:00014370       ?_Reallocate@?$vector@JV?$allocator@J@std@@@std@@IAEXI@Z 10015370 f i BoundDatum.obj
 0001:00014410       ?_Destroy@?$_Ref_count_obj@V?$vector@UtagDATE_STRUCT@@V?$allocator@UtagDATE_STRUCT@@@std@@@std@@@std@@EAEXXZ 10015410 f i BoundDatum.obj
 0001:00014450       ?_Destroy@?$_Ref_count_obj@V?$vector@UtagSS_TIME2_STRUCT@@V?$allocator@UtagSS_TIME2_STRUCT@@@std@@@std@@@std@@EAEXXZ 10015450 f i BoundDatum.obj
 0001:00014490       ?_Destroy@?$_Ref_count_obj@V?$vector@IV?$allocator@I@std@@@std@@@std@@EAEXXZ 10015490 f i BoundDatum.obj
 0001:00014490       ?_Destroy@?$_Ref_count_obj@V?$vector@HV?$allocator@H@std@@@std@@@std@@EAEXXZ 10015490 f i BoundDatum.obj
 0001:000144c0       ?_Destroy@?$_Ref_count_obj@V?$vector@UtagSQL_NUMERIC_STRUCT@@V?$allocator@UtagSQL_NUMERIC_STRUCT@@@std@@@std@@@std@@EAEXXZ 100154c0 f i BoundDatum.obj
 0001:00014500       ?compare@?$basic_string@_WU?$char_traits@_W@std@@V?$allocator@_W@2@@std@@QBEHPB_W@Z 10015500 f i BoundDatum.obj
 0001:00014590       ?deallocate@?$_Wrap_alloc@V?$allocator@UtagDATE_STRUCT@@@std@@@std@@QAEXPAUtagDATE_STRUCT@@I@Z 10015590 f i BoundDatum.obj
 0001:000145f0       ?deallocate@?$_Wrap_alloc@V?$allocator@UtagSS_TIME2_STRUCT@@@std@@@std@@QAEXPAUtagSS_TIME2_STRUCT@@I@Z 100155f0 f i BoundDatum.obj
 0001:00014650       ?deallocate@?$_Wrap_alloc@V?$allocator@UtagSQL_NUMERIC_STRUCT@@@std@@@std@@QAEXPAUtagSQL_NUMERIC_STRUCT@@I@Z 10015650 f i BoundDatum.obj
 0001:000146b0       ??0?$vector@UtagSQL_NUMERIC_STRUCT@@V?$allocator@UtagSQL_NUMERIC_STRUCT@@@std@@@std@@QAE@I@Z 100156b0 f i BoundDatum.obj
 0001:00014730       ??0?$vector@UtagDATE_STRUCT@@V?$allocator@UtagDATE_STRUCT@@@std@@@std@@QAE@I@Z 10015730 f i BoundDatum.obj
 0001:000147a0       ??0?$vector@UtagSS_TIME2_STRUCT@@V?$allocator@UtagSS_TIME2_STRUCT@@@std@@@std@@QAE@I@Z 100157a0 f i BoundDatum.obj
 0001:00014820       ??0?$vector@HV?$allocator@H@std@@@std@@QAE@I@Z 10015820 f i BoundDatum.obj
 0001:00014820       ??0?$vector@IV?$allocator@I@std@@@std@@QAE@I@Z 10015820 f i BoundDatum.obj
 0001:00014880       ?allocate@?$_Wrap_alloc@V?$allocator@UtagDATE_STRUCT@@@std@@@std@@QAEPAUtagDATE_STRUCT@@I@Z 10015880 f i BoundDatum.obj
 0001:000148e0       ?allocate@?$_Wrap_alloc@V?$allocator@UtagSS_TIME2_STRUCT@@@std@@@std@@QAEPAUtagSS_TIME2_STRUCT@@I@Z 100158e0 f i BoundDatum.obj
 0001:00014940       ?allocate@?$_Wrap_alloc@V?$allocator@UtagSQL_NUMERIC_STRUCT@@@std@@@std@@QAEPAUtagSQL_NUMERIC_STRUCT@@I@Z 10015940 f i BoundDatum.obj
 0001:000149a0       ?TryInvokeOdbc@UnbindOperation@mssql@@UAE_NXZ 100159a0 f   UnbindOperation.obj
 0001:000149b0       ?CreateCompletionArg@UnbindOperation@mssql@@UAE?AV?$Local@VValue@v8@@@v8@@XZ 100159b0 f   UnbindOperation.obj
 0001:000149e0       ??0BoundDatum@mssql@@QAE@XZ 100159e0 f i BoundDatumSet.obj
 0001:00014b10       ??0BoundDatum@mssql@@QAE@$$QAV01@@Z 10015b10 f i BoundDatumSet.obj
 0001:00014be0       ?reserve@BoundDatumSet@mssql@@QAE_NV?$shared_ptr@VResultSet@mssql@@@std@@@Z 10015be0 f   BoundDatumSet.obj
 0001:00014da0       ?bind@BoundDatumSet@mssql@@QAE_NAAV?$Local@VArray@v8@@@v8@@@Z 10015da0 f   BoundDatumSet.obj
 0001:00014fa0       ?push_back@?$vector@VBoundDatum@mssql@@V?$allocator@VBoundDatum@mssql@@@std@@@std@@QAEX$$QAVBoundDatum@mssql@@@Z 10015fa0 f i BoundDatumSet.obj
 0001:00015020       ??4?$vector@JV?$allocator@J@std@@@std@@QAEAAV01@ABV01@@Z 10016020 f i BoundDatumSet.obj
 0001:00015110       ?_Reserve@?$vector@VBoundDatum@mssql@@V?$allocator@VBoundDatum@mssql@@@std@@@std@@IAEXI@Z 10016110 f i BoundDatumSet.obj
 0001:000151b0       ?_Buy@?$vector@JV?$allocator@J@std@@@std@@IAE_NI@Z 100161b0 f i BoundDatumSet.obj
 0001:00015210       ?_Reallocate@?$vector@VBoundDatum@mssql@@V?$allocator@VBoundDatum@mssql@@@std@@@std@@IAEXI@Z 10016210 f i BoundDatumSet.obj
 0001:000152d0       ?allocate@?$allocator@VBoundDatum@mssql@@@std@@QAEPAVBoundDatum@mssql@@I@Z 100162d0 f i BoundDatumSet.obj
 0001:00015330       ??$_For_each_unchecked@PAVBoundDatum@mssql@@V<lambda_5cc714db9f58327a36438a876f093d3e>@@@std@@YAXPAVBoundDatum@mssql@@0AAV<lambda_5cc714db9f58327a36438a876f093d3e>@@@Z 10016330 f i BoundDatumSet.obj
 0001:0001538e       ??0bad_alloc@std@@QAE@ABV01@@Z 1001638e f i libcpmt:xthrow.obj
 0001:000153a9       ??0bad_alloc@std@@QAE@XZ   100163a9 f i libcpmt:xthrow.obj
 0001:000153c1       ??0exception@std@@QAE@ABV01@@Z 100163c1 f i libcpmt:xthrow.obj
 0001:000153ed       ??0exception@std@@QAE@QBD@Z 100163ed f i libcpmt:xthrow.obj
 0001:00015424       ??0length_error@std@@QAE@ABV01@@Z 10016424 f i libcpmt:xthrow.obj
 0001:0001543f       ??0length_error@std@@QAE@PBD@Z 1001643f f i libcpmt:xthrow.obj
 0001:00015460       ??0out_of_range@std@@QAE@ABV01@@Z 10016460 f i libcpmt:xthrow.obj
 0001:0001547b       ??0out_of_range@std@@QAE@PBD@Z 1001647b f i libcpmt:xthrow.obj
 0001:0001549c       ??0runtime_error@std@@QAE@ABV01@@Z 1001649c f i libcpmt:xthrow.obj
 0001:000154b7       ?_Xlength_error@std@@YAXPBD@Z 100164b7 f   libcpmt:xthrow.obj
 0001:000154d7       ?_Xout_of_range@std@@YAXPBD@Z 100164d7 f   libcpmt:xthrow.obj
 0001:000154f7       ?what@exception@std@@UBEPBDXZ 100164f7 f i libcpmt:xthrow.obj
 0001:00015504       ??$_Immortalize@V_Generic_error_category@std@@@std@@YAAAV_Generic_error_category@0@XZ 10016504 f i libcpmt:thread0.obj
 0001:0001553a       ??0_System_error@std@@QAE@ABV01@@Z 1001653a f i libcpmt:thread0.obj
 0001:00015564       ??0system_error@std@@QAE@ABV01@@Z 10016564 f i libcpmt:thread0.obj
 0001:0001557f       ??0system_error@std@@QAE@HABVerror_category@1@PBD@Z 1001657f f i libcpmt:thread0.obj
 0001:000155cd       ?_Throw_C_error@std@@YAXH@Z 100165cd f   libcpmt:thread0.obj
 0001:000155fa       ?_Throw_Cpp_error@std@@YAXH@Z 100165fa f   libcpmt:thread0.obj
 0001:0001562f       ?generic_category@std@@YAABVerror_category@1@XZ 1001662f f i libcpmt:thread0.obj
 0001:00015634       ??0stl_critical_section_vista@details@Concurrency@@QAE@XZ 10016634 f i libcpmt:mutex.obj
 0001:00015654       ??0stl_critical_section_win7@details@Concurrency@@QAE@XZ 10016654 f i libcpmt:mutex.obj
 0001:0001566b       ??1GlobalCore@details@Concurrency@@QAE@XZ 1001666b f i libcpmt:mutex.obj
 0001:00015678       ??_EGlobalCore@details@Concurrency@@QAEPAXI@Z 10016678 f i libcpmt:mutex.obj
 0001:00015700       ?create_stl_critical_section@details@Concurrency@@YAXPAVstl_critical_section_interface@12@@Z 10016700 f i libcpmt:mutex.obj
 0001:00015775       ?destroy@stl_critical_section_concrt@details@Concurrency@@UAEXXZ 10016775 f i libcpmt:mutex.obj
 0001:0001577d       ?destroy@stl_critical_section_vista@details@Concurrency@@UAEXXZ 1001677d f i libcpmt:mutex.obj
 0001:00015788       ?lock@stl_critical_section_concrt@details@Concurrency@@UAEXXZ 10016788 f i libcpmt:mutex.obj
 0001:00015790       ?lock@stl_critical_section_vista@details@Concurrency@@UAEXXZ 10016790 f i libcpmt:mutex.obj
 0001:0001579b       ?lock@stl_critical_section_win7@details@Concurrency@@UAEXXZ 1001679b f i libcpmt:mutex.obj
 0001:0001592c       ?try_lock@stl_critical_section_concrt@details@Concurrency@@UAE_NXZ 1001692c f i libcpmt:mutex.obj
 0001:00015934       ?try_lock@stl_critical_section_vista@details@Concurrency@@UAE_NXZ 10016934 f i libcpmt:mutex.obj
 0001:00015945       ?try_lock@stl_critical_section_win7@details@Concurrency@@UAE_NXZ 10016945 f i libcpmt:mutex.obj
 0001:00015959       ?try_lock_for@stl_critical_section_concrt@details@Concurrency@@UAE_NI@Z 10016959 f i libcpmt:mutex.obj
 0001:00015965       ?try_lock_for@stl_critical_section_vista@details@Concurrency@@UAE_NI@Z 10016965 f i libcpmt:mutex.obj
 0001:00015978       ?try_lock_for@stl_critical_section_win7@details@Concurrency@@UAE_NI@Z 10016978 f i libcpmt:mutex.obj
 0001:00015980       ?unlock@stl_critical_section_concrt@details@Concurrency@@UAEXXZ 10016980 f i libcpmt:mutex.obj
 0001:00015988       ?unlock@stl_critical_section_vista@details@Concurrency@@UAEXXZ 10016988 f i libcpmt:mutex.obj
 0001:00015993       ?unlock@stl_critical_section_win7@details@Concurrency@@UAEXXZ 10016993 f i libcpmt:mutex.obj
 0001:0001599e       __Mtx_clear_owner          1001699e f   libcpmt:mutex.obj
 0001:000159ad       __Mtx_destroy_in_situ      100169ad f   libcpmt:mutex.obj
 0001:000159cb       __Mtx_getconcrtcs          100169cb f   libcpmt:mutex.obj
 0001:000159d6       __Mtx_init_in_situ         100169d6 f   libcpmt:mutex.obj
 0001:000159f7       __Mtx_lock                 100169f7 f   libcpmt:mutex.obj
 0001:00015a08       __Mtx_reset_owner          10016a08 f   libcpmt:mutex.obj
 0001:00015a1c       __Mtx_unlock               10016a1c f   libcpmt:mutex.obj
 0001:00015a46       ??0_Init_locks@std@@QAE@XZ 10016a46 f   libcpmt:xlock.obj
 0001:00015a73       ??0_Lockit@std@@QAE@H@Z    10016a73 f   libcpmt:xlock.obj
 0001:00015aa4       ??1_Init_locks@std@@QAE@XZ 10016aa4 f   libcpmt:xlock.obj
 0001:00015acb       ??1_Lockit@std@@QAE@XZ     10016acb f   libcpmt:xlock.obj
 0001:00015aea       ??0_Locimp@locale@std@@AAE@_N@Z 10016aea f i libcpmt:locale0.obj
 0001:00015b2d       ??1_Fac_node@std@@QAE@XZ   10016b2d f i libcpmt:locale0.obj
 0001:00015b8c       ??1_Fac_tidy_reg_t@std@@QAE@XZ 10016b8c f i libcpmt:locale0.obj
 0001:00015bb3       ??1_Locimp@locale@std@@MAE@XZ 10016bb3 f i libcpmt:locale0.obj
 0001:00015c0e       ??4?$_Yarn@D@std@@QAEAAV01@PBD@Z 10016c0e f i libcpmt:locale0.obj
 0001:00015c62       ??_G_Locimp@locale@std@@MAEPAXI@Z 10016c62 f i libcpmt:locale0.obj
 0001:00015c62       ??_E_Locimp@locale@std@@MAEPAXI@Z 10016c62 f i libcpmt:locale0.obj
 0001:00015c84       ?_Facet_Register@std@@YAXPAV_Facet_base@1@@Z 10016c84 f   libcpmt:locale0.obj
 0001:00015cb2       ?_Getgloballocale@locale@std@@CAPAV_Locimp@12@XZ 10016cb2 f   libcpmt:locale0.obj
 0001:00015cb8       ?_Init@locale@std@@CAPAV_Locimp@12@_N@Z 10016cb8 f   libcpmt:locale0.obj
 0001:00015d46       ?_Locimp_dtor@_Locimp@locale@std@@CAXPAV123@@Z 10016d46 f   libcpmt:locale0.obj
 0001:00015dbb       ?_Locinfo_ctor@_Locinfo@std@@SAXPAV12@PBD@Z 10016dbb f   libcpmt:locale0.obj
 0001:00015e06       ?_Locinfo_dtor@_Locinfo@std@@SAXPAV12@@Z 10016e06 f   libcpmt:locale0.obj
 0001:00015e28       ?_New_Locimp@_Locimp@locale@std@@CAPAV123@_N@Z 10016e28 f   libcpmt:locale0.obj
 0001:00015e4d       ?_Setgloballocale@locale@std@@CAXPAX@Z 10016e4d f   libcpmt:locale0.obj
 0001:00015e75       __Deletegloballocale       10016e75 f   libcpmt:locale0.obj
 0001:00015eda       ?_Callfns@ios_base@std@@AAEXW4event@12@@Z 10016eda f i libcpmt:ios.obj
 0001:00015f0c       ?_Ios_base_dtor@ios_base@std@@CAXPAV12@@Z 10016f0c f   libcpmt:ios.obj
 0001:00015f4c       ?_Tidy@ios_base@std@@AAEXXZ 10016f4c f i libcpmt:ios.obj
 0001:00015f94       ?_Syserror_map@std@@YAPBDH@Z 10016f94 f   libcpmt:syserror.obj
 0001:00015fb9       __Getctype                 10016fb9 f   libcpmt:_tolower.obj
 0001:00016024       __Tolower                  10017024 f   libcpmt:_tolower.obj
 0001:0001611e       __Getcvt                   1001711e f   libcpmt:xwctomb.obj
 0001:0001618b       __Toupper                  1001718b f   libcpmt:_toupper.obj
 0001:00016285       __Xtime_diff_to_millis2    10017285 f   libcpmt:xtime.obj
 0001:000162c7       __Xtime_get_ticks          100172c7 f   libcpmt:xtime.obj
 0001:0001638d       _xtime_get                 1001738d f   libcpmt:xtime.obj
 0001:0001677e       ___crtAcquireSRWLockExclusive 1001777e f   libcpmt:winapisupp.obj
 0001:0001679d       ___crtCloseThreadpoolTimer 1001779d f   libcpmt:winapisupp.obj
 0001:000167be       ___crtCloseThreadpoolWait  100177be f   libcpmt:winapisupp.obj
 0001:000167df       ___crtCreateEventExW       100177df f   libcpmt:winapisupp.obj
 0001:00016824       ___crtCreateSemaphoreExW   10017824 f   libcpmt:winapisupp.obj
 0001:0001687a       ___crtCreateThreadpoolTimer 1001787a f   libcpmt:winapisupp.obj
 0001:000168a5       ___crtCreateThreadpoolWait 100178a5 f   libcpmt:winapisupp.obj
 0001:000168d0       ___crtFlushProcessWriteBuffers 100178d0 f   libcpmt:winapisupp.obj
 0001:000168ea       ___crtFreeLibraryWhenCallbackReturns 100178ea f   libcpmt:winapisupp.obj
 0001:0001690e       ___crtGetCurrentProcessorNumber 1001790e f   libcpmt:winapisupp.obj
 0001:0001692c       ___crtGetSystemTimePreciseAsFileTime 1001792c f   libcpmt:winapisupp.obj
 0001:00016955       ___crtGetTickCount64       10017955 f   libcpmt:winapisupp.obj
 0001:00016979       ___crtInitializeConditionVariable 10017979 f   libcpmt:winapisupp.obj
 0001:00016998       ___crtInitializeCriticalSectionEx 10017998 f   libcpmt:winapisupp.obj
 0001:000169d0       ___crtInitializeSRWLock    100179d0 f   libcpmt:winapisupp.obj
 0001:000169ef       ___crtReleaseSRWLockExclusive 100179ef f   libcpmt:winapisupp.obj
 0001:00016a0e       ___crtSetThreadpoolTimer   10017a0e f   libcpmt:winapisupp.obj
 0001:00016a38       ___crtSetThreadpoolWait    10017a38 f   libcpmt:winapisupp.obj
 0001:00016a5f       ___crtSleepConditionVariableCS 10017a5f f   libcpmt:winapisupp.obj
 0001:00016a84       ___crtSleepConditionVariableSRW 10017a84 f   libcpmt:winapisupp.obj
 0001:00016aac       ___crtTryAcquireSRWLockExclusive 10017aac f   libcpmt:winapisupp.obj
 0001:00016acb       ___crtWaitForThreadpoolTimerCallbacks 10017acb f   libcpmt:winapisupp.obj
 0001:00016aef       ___crtWakeAllConditionVariable 10017aef f   libcpmt:winapisupp.obj
 0001:00016b0e       ___crtWakeConditionVariable 10017b0e f   libcpmt:winapisupp.obj
 0001:00016b2d       __Mtxdst                   10017b2d f   libcpmt:xmtx.obj
 0001:00016b3b       __Mtxinit                  10017b3b f   libcpmt:xmtx.obj
 0001:00016b52       __Mtxlock                  10017b52 f   libcpmt:xmtx.obj
 0001:00016b60       __Mtxunlock                10017b60 f   libcpmt:xmtx.obj
 0001:00016b6e       ??1_Init_atexit@@QAE@XZ    10017b6e f i libcpmt:iosptrs.obj
 0001:00016bd2       ?_Atexit@@YAXP6AXXZ@Z      10017bd2 f   libcpmt:iosptrs.obj
 0001:00016c00       ??0bad_cast@std@@QAE@ABV01@@Z 10017c00 f i libcpmt:locale.obj
 0001:00016c1b       ___crtLCMapStringA         10017c1b f   libcpmt:StlLCMapStringA.obj
 0001:00016e1e       __freea_crt                10017e1e f i libcpmt:StlLCMapStringA.obj
 0001:00016e3c       _GetTableIndexFromLocaleName 10017e3c f   libcpmt:winapinls.obj
 0001:00016e8a       ___crtDownlevelLocaleNameToLCID 10017e8a f   libcpmt:winapinls.obj
 0001:00016eb4       ___crtLCMapStringEx        10017eb4 f   libcpmt:winapinls.obj
 0001:00016f0a       ___wcsnicmp_ascii          10017f0a f   libcpmt:winapinls.obj
 0001:00016f7d       @__security_check_cookie@4 10017f7d f   LIBCMT:_secchk_.obj
 0001:00016f8e       ??2@YAPAXI@Z               10017f8e f   LIBCMT:new_scalar.obj
 0001:00016fc1       ??3@YAXPAX@Z               10017fc1 f   LIBCMT:delete_scalar.obj
 0001:00016fc6       ??3@YAXPAXI@Z              10017fc6 f   LIBCMT:delete_scalar_size.obj
 0001:00017018       ___scrt_acquire_startup_lock 10018018 f   LIBCMT:utility.obj
 0001:0001704d       ___scrt_dllmain_after_initialize_c 1001804d f   LIBCMT:utility.obj
 0001:00017078       ___scrt_dllmain_before_initialize_c 10018078 f   LIBCMT:utility.obj
 0001:00017086       ___scrt_dllmain_crt_thread_attach 10018086 f   LIBCMT:utility.obj
 0001:000170a5       ___scrt_dllmain_crt_thread_detach 100180a5 f   LIBCMT:utility.obj
 0001:000170b2       ___scrt_dllmain_exception_filter 100180b2 f   LIBCMT:utility.obj
 0001:000170e5       ___scrt_dllmain_uninitialize_c 100180e5 f   LIBCMT:utility.obj
 0001:00017108       ___scrt_dllmain_uninitialize_critical 10018108 f   LIBCMT:utility.obj
 0001:00017115       ___scrt_initialize_crt     10018115 f   LIBCMT:utility.obj
 0001:0001714e       ___scrt_initialize_onexit_tables 1001814e f   LIBCMT:utility.obj
 0001:000171e5       ___scrt_is_nonwritable_in_current_image 100181e5 f   LIBCMT:utility.obj
 0001:0001726f       ___scrt_release_startup_lock 1001826f f   LIBCMT:utility.obj
 0001:0001728c       ___scrt_uninitialize_crt   1001828c f   LIBCMT:utility.obj
 0001:000172b4       __onexit                   100182b4 f   LIBCMT:utility.obj
 0001:000172ef       _atexit                    100182ef f   LIBCMT:utility.obj
 0001:00017304       ??_V@YAXPAX@Z              10018304 f   LIBCMT:delete_array.obj
 0001:00017309       ??_U@YAPAXI@Z              10018309 f   LIBCMT:new_array.obj
 0001:00017312       ??_Etype_info@@UAEPAXI@Z   10018312 f i LIBCMT:std_type_info_static.obj
 0001:00017312       ??_Gtype_info@@UAEPAXI@Z   10018312 f i LIBCMT:std_type_info_static.obj
 0001:00017411       __Init_thread_footer       10018411 f   LIBCMT:thread_safe_statics.obj
 0001:00017450       __Init_thread_header       10018450 f   LIBCMT:thread_safe_statics.obj
 0001:00017496       __Init_thread_lock         10018496 f   LIBCMT:thread_safe_statics.obj
 0001:000174a2       __Init_thread_notify       100184a2 f   LIBCMT:thread_safe_statics.obj
 0001:000174e3       __Init_thread_unlock       100184e3 f   LIBCMT:thread_safe_statics.obj
 0001:000174ef       __Init_thread_wait         100184ef f   LIBCMT:thread_safe_statics.obj
 0001:0001785c       __DllMainCRTStartup@12     1001885c f   LIBCMT:dll_dllmain.obj
 0001:0001787f       @_guard_check_icall@4      1001887f f i LIBCMT:checkcfg.obj
 0001:00017885       __EH_epilog3               10018885 f   LIBCMT:ehprolg3.obj
 0001:0001789a       __EH_epilog3_GS            1001889a f   LIBCMT:ehprolg3.obj
 0001:000178ab       __EH_prolog3               100188ab f   LIBCMT:ehprolg3.obj
 0001:000178df       __EH_prolog3_GS            100188df f   LIBCMT:ehprolg3.obj
 0001:00017916       __EH_prolog3_catch         10018916 f   LIBCMT:ehprolg3.obj
 0001:0001794d       ??_M@YGXPAXIIP6EX0@Z@Z     1001894d f   LIBCMT:ehvecdtr.obj
 0001:000179c7       ?__ArrayUnwind@@YGXPAXIIP6EX0@Z@Z 100189c7 f   LIBCMT:ehvecdtr.obj
 0001:00017a34       ??_V@YAXPAXI@Z             10018a34 f   LIBCMT:delete_array_size.obj
 0001:00017a50       __aulldvrm                 10018a50 f   LIBCMT:ulldvrm.obj
 0001:00017af0       __alloca_probe_16          10018af0 f   LIBCMT:alloca16.obj
 0001:00017b06       __alloca_probe_8           10018b06     LIBCMT:alloca16.obj
 0001:00017b20       __allmul                   10018b20 f   LIBCMT:llmul.obj
 0001:00017b60       __aulldiv                  10018b60 f   LIBCMT:ulldiv.obj
 0001:00017bc8       ___raise_securityfailure   10018bc8 f   LIBCMT:gs_report.obj
 0001:00017bf0       ___report_gsfailure        10018bf0 f   LIBCMT:gs_report.obj
 0001:00017ceb       ___report_rangecheckfailure 10018ceb f   LIBCMT:gs_report.obj
 0001:00017cf7       ___report_securityfailure  10018cf7 f   LIBCMT:gs_report.obj
 0001:00017dc7       ??0bad_array_new_length@std@@QAE@ABV01@@Z 10018dc7 f i LIBCMT:throw_bad_alloc.obj
 0001:00017de2       ??0bad_array_new_length@std@@QAE@XZ 10018de2 f i LIBCMT:throw_bad_alloc.obj
 0001:00017dfa       ?__scrt_throw_std_bad_alloc@@YAXXZ 10018dfa f   LIBCMT:throw_bad_alloc.obj
 0001:00017dfa       ?_Xbad_alloc@std@@YAXXZ    10018dfa f   libcpmt:xthrow.obj
 0001:00017e17       ?__scrt_throw_std_bad_array_new_length@@YAXXZ 10018e17 f   LIBCMT:throw_bad_alloc.obj
 0001:00017e34       ___isa_available_init      10018e34 f   LIBCMT:_cpu_disp_.obj
 0001:00017fce       ___scrt_is_ucrt_dll_in_use 10018fce f   LIBCMT:ucrt_detection.obj
 0001:00017fda       ___scrt_fastfail           10018fda f   LIBCMT:utility_desktop.obj
 0001:000180f5       __crt_debugger_hook        100190f5 f   LIBCMT:utility_desktop.obj
 0001:00018100       __SEH_prolog4              10019100 f   LIBCMT:_sehprolg4_.obj
 0001:00018146       __SEH_epilog4              10019146 f   LIBCMT:_sehprolg4_.obj
 0001:0001815b       ___security_init_cookie    1001915b f   LIBCMT:gs_support.obj
 0001:000181f7       _DllMain@12                100191f7 f   LIBCMT:dll_dllmain_stub.obj
 0001:000181fd       ?__scrt_initialize_type_info@@YAXXZ 100191fd f   LIBCMT:tncleanup.obj
 0001:00018209       ?__scrt_uninitialize_type_info@@YAXXZ 10019209 f   LIBCMT:tncleanup.obj
 0001:00018215       ___local_stdio_scanf_options 10019215 f i LIBCMT:default_local_stdio_options.obj
 0001:0001821b       ___scrt_initialize_default_local_stdio_options 1001921b f   LIBCMT:default_local_stdio_options.obj
 0001:00018238       ___scrt_get_dyn_tls_init_callback 10019238 f   LIBCMT:dyn_tls_init.obj
 0001:0001823e       __RTC_Initialize           1001923e f   LIBCMT:_initsect_.obj
 0001:00018269       __RTC_Terminate            10019269 f   LIBCMT:_initsect_.obj
 0001:000182a0       __chkstk                   100192a0 f   LIBCMT:chkstk.obj
 0001:000182a0       __alloca_probe             100192a0 f   LIBCMT:chkstk.obj
 0001:000182cd       ??0LockQueueNode@details@Concurrency@@QAE@I@Z 100192cd f i libconcrt:rtlocks.obj
 0001:00018373       ??0_ReentrantBlockingLock@details@Concurrency@@QAE@XZ 10019373 f   libconcrt:rtlocks.obj
 0001:00018373       ??0_NonReentrantBlockingLock@details@Concurrency@@QAE@XZ 10019373 f   libconcrt:rtlocks.obj
 0001:00018388       ??0_ReaderWriterLock@details@Concurrency@@QAE@XZ 10019388 f   libconcrt:rtlocks.obj
 0001:00018398       ??0critical_section@Concurrency@@QAE@XZ 10019398 f   libconcrt:rtlocks.obj
 0001:000183c2       ??0improper_lock@Concurrency@@QAE@ABV01@@Z 100193c2 f i libconcrt:rtlocks.obj
 0001:000183dd       ??0scoped_lock@critical_section@Concurrency@@QAE@AAV12@@Z 100193dd f   libconcrt:rtlocks.obj
 0001:00018422       ??1_NonReentrantBlockingLock@details@Concurrency@@QAE@XZ 10019422 f   libconcrt:rtlocks.obj
 0001:00018422       ??1_ReentrantBlockingLock@details@Concurrency@@QAE@XZ 10019422 f   libconcrt:rtlocks.obj
 0001:0001842a       ??1scoped_lock@critical_section@Concurrency@@QAE@XZ 1001942a f   libconcrt:rtlocks.obj
 0001:00018462       ?Block@LockQueueNode@details@Concurrency@@QAEXI@Z 10019462 f i libconcrt:rtlocks.obj
 0001:000184ea       ?CurrentContext@SchedulerBase@details@Concurrency@@SAPAVContextBase@23@XZ 100194ea f i libconcrt:rtlocks.obj
 0001:0001850c       ?DerefTimerNode@LockQueueNode@details@Concurrency@@QAEXXZ 1001950c f i libconcrt:rtlocks.obj
 0001:0001852b       ?DispatchNodeTimeoutTimer@LockQueueNode@details@Concurrency@@SGXPAU_TP_CALLBACK_INSTANCE@@PAXPAU_TP_TIMER@@@Z 1001952b f i libconcrt:rtlocks.obj
 0001:00018571       ?DispatchNodeTimeoutTimerXP@LockQueueNode@details@Concurrency@@SGXPAXE@Z 10019571 f i libconcrt:rtlocks.obj
 0001:000185bd       ?TryCompensateTimer@LockQueueNode@details@Concurrency@@QAEXXZ 100195bd f i libconcrt:rtlocks.obj
 0001:000185e2       ?Unblock@LockQueueNode@details@Concurrency@@QAE_NXZ 100195e2 f i libconcrt:rtlocks.obj
 0001:00018613       ?UpdateQueuePosition@LockQueueNode@details@Concurrency@@QAEXPAV123@@Z 10019613 f i libconcrt:rtlocks.obj
 0001:0001867c       ?WaitForNextNode@LockQueueNode@details@Concurrency@@QAEPAV123@XZ 1001967c f i libconcrt:rtlocks.obj
 0001:000186a9       ?_Acquire@_NonReentrantBlockingLock@details@Concurrency@@QAEXXZ 100196a9 f   libconcrt:rtlocks.obj
 0001:000186a9       ?_Acquire@_ReentrantBlockingLock@details@Concurrency@@QAEXXZ 100196a9 f   libconcrt:rtlocks.obj
 0001:000186b1       ?_AcquireRead@_ReaderWriterLock@details@Concurrency@@QAEXXZ 100196b1 f   libconcrt:rtlocks.obj
 0001:000186e1       ?_AcquireWrite@_ReaderWriterLock@details@Concurrency@@QAEXXZ 100196e1 f   libconcrt:rtlocks.obj
 0001:0001870f       ?_Acquire_lock@critical_section@Concurrency@@QAE_NPAX_N@Z 1001970f f   libconcrt:rtlocks.obj
 0001:000187b0       ?_FlushWriteOwners@_ReaderWriterLock@details@Concurrency@@QAEXXZ 100197b0 f   libconcrt:rtlocks.obj
 0001:000187c6       ?_Flush_current_owner@critical_section@Concurrency@@QAEXXZ 100197c6 f   libconcrt:rtlocks.obj
 0001:000187de       ?_Initialize@_SpinCount@details@Concurrency@@SAXXZ 100197de f   libconcrt:rtlocks.obj
 0001:000187f5       ?_Release@_NonReentrantBlockingLock@details@Concurrency@@QAEXXZ 100197f5 f   libconcrt:rtlocks.obj
 0001:000187f5       ?_Release@_ReentrantBlockingLock@details@Concurrency@@QAEXXZ 100197f5 f   libconcrt:rtlocks.obj
 0001:000187fd       ?_ReleaseRead@_ReaderWriterLock@details@Concurrency@@QAEXXZ 100197fd f   libconcrt:rtlocks.obj
 0001:00018801       ?_ReleaseWrite@_ReaderWriterLock@details@Concurrency@@QAEXXZ 10019801 f   libconcrt:rtlocks.obj
 0001:0001880c       ?_SetSpinCount@?$_SpinWait@$00@details@Concurrency@@QAEXI@Z 1001980c f i libconcrt:rtlocks.obj
 0001:0001882e       ?_SetSpinCount@?$_SpinWait@$0A@@details@Concurrency@@QAEXI@Z 1001982e f i libconcrt:rtlocks.obj
 0001:00018852       ?_SpinOnce@?$_SpinWait@$00@details@Concurrency@@QAE_NXZ 10019852 f i libconcrt:rtlocks.obj
 0001:000188d9       ?_SpinOnce@?$_SpinWait@$0A@@details@Concurrency@@QAE_NXZ 100198d9 f i libconcrt:rtlocks.obj
 0001:00018950       ?_Switch_to_active@critical_section@Concurrency@@AAEXPAX@Z 10019950 f   libconcrt:rtlocks.obj
 0001:0001899f       ?_TryAcquireWrite@_ReaderWriterLock@details@Concurrency@@QAE_NXZ 1001999f f   libconcrt:rtlocks.obj
 0001:000189b6       ?_WaitEquals@_ReaderWriterLock@details@Concurrency@@CAXADJJJ@Z 100199b6 f   libconcrt:rtlocks.obj
 0001:000189ef       ?lock@critical_section@Concurrency@@QAEXXZ 100199ef f   libconcrt:rtlocks.obj
 0001:00018a1f       ?try_lock@critical_section@Concurrency@@QAE_NXZ 10019a1f f   libconcrt:rtlocks.obj
 0001:00018a6c       ?try_lock_for@critical_section@Concurrency@@QAE_NI@Z 10019a6c f   libconcrt:rtlocks.obj
 0001:00018aca       ?unlock@critical_section@Concurrency@@QAEXXZ 10019aca f   libconcrt:rtlocks.obj
 0001:00018b3b       ??0scheduler_resource_allocation_error@Concurrency@@QAE@ABV01@@Z 10019b3b f i libconcrt:Platform.obj
 0001:00018b5f       ??1DefaultWaiterPool@platform@details@Concurrency@@QAE@XZ 10019b5f f i libconcrt:Platform.obj
 0001:00018b84       ??1WaiterThreadPool@platform@details@Concurrency@@QAE@XZ 10019b84 f i libconcrt:Platform.obj
 0001:00018ba6       ?InitializeSystemFunctionPointers@platform@details@Concurrency@@YAXXZ 10019ba6 f   libconcrt:Platform.obj
 0001:00018c59       ?__ChangeTimerQueueTimer@platform@details@Concurrency@@YAHPAX0KK@Z 10019c59 f   libconcrt:Platform.obj
 0001:00018c70       ?__CloseThreadHandle@platform@details@Concurrency@@YAXPAX@Z 10019c70 f   libconcrt:Platform.obj
 0001:00018c7e       ?__CreateAutoResetEvent@platform@details@Concurrency@@YAPAX_N@Z 10019c7e f   libconcrt:Platform.obj
 0001:00018cd5       ?__CreateThread@platform@details@Concurrency@@YAPAXPAU_SECURITY_ATTRIBUTES@@IP6GKPAX@Z1KPAK@Z 10019cd5 f   libconcrt:Platform.obj
 0001:00018cf2       ?__CreateTimerQueueTimer@platform@details@Concurrency@@YAHPAPAXPAXP6GX1E@Z1KKK@Z 10019cf2 f   libconcrt:Platform.obj
 0001:00018d12       ?__DeleteTimerQueueTimer@platform@details@Concurrency@@YAXPAX00@Z 10019d12 f   libconcrt:Platform.obj
 0001:00018d41       ?__GetCurrentProcessorNumberEx@platform@details@Concurrency@@YAXPAU_PROCESSOR_NUMBER@@@Z 10019d41 f   libconcrt:Platform.obj
 0001:00018d62       ?__GetLogicalProcessorInformation@platform@details@Concurrency@@YAPAU_SYSTEM_LOGICAL_PROCESSOR_INFORMATION@@PAK@Z 10019d62 f   libconcrt:Platform.obj
 0001:00018ded       ?__GetLogicalProcessorInformationEx@platform@details@Concurrency@@YAPAU_SYSTEM_LOGICAL_PROCESSOR_INFORMATION_EX@@W4_LOGICAL_PROCESSOR_RELATIONSHIP@@PAK@Z 10019ded f   libconcrt:Platform.obj
 0001:00018ea3       ?__GetNumaHighestNodeNumber@platform@details@Concurrency@@YAKXZ 10019ea3 f   libconcrt:Platform.obj
 0001:00018eea       ?__GetThreadGroupAffinity@platform@details@Concurrency@@YAHPAXPAU_GROUP_AFFINITY@@@Z 10019eea f   libconcrt:Platform.obj
 0001:00018f44       ?__GetThreadPriority@platform@details@Concurrency@@YAHPAX@Z 10019f44 f   libconcrt:Platform.obj
 0001:00018f52       ?__GetTickCount64@platform@details@Concurrency@@YA_KXZ 10019f52 f   libconcrt:Platform.obj
 0001:00018f57       ?__InitializeCriticalSectionEx@platform@details@Concurrency@@YAHPAU_RTL_CRITICAL_SECTION@@K@Z 10019f57 f   libconcrt:Platform.obj
 0001:00018f6c       ?__RegisterWaitForSingleObject@platform@details@Concurrency@@YAPAXPAXP6GX0E@Z0@Z 10019f6c f   libconcrt:Platform.obj
 0001:00018fc0       ?__SetThreadGroupAffinity@platform@details@Concurrency@@YAHPAXPBU_GROUP_AFFINITY@@@Z 10019fc0 f   libconcrt:Platform.obj
 0001:00019003       ?__SetThreadPriority@platform@details@Concurrency@@YAXPAXH@Z 1001a003 f   libconcrt:Platform.obj
 0001:00019049       ?__SignalObjectAndWait@platform@details@Concurrency@@YAKPAX0KH@Z 1001a049 f   libconcrt:Platform.obj
 0001:00019060       ?__Sleep@platform@details@Concurrency@@YAXK@Z 1001a060 f   libconcrt:Platform.obj
 0001:0001906e       ?__SwitchToThread@platform@details@Concurrency@@YAXXZ 1001a06e f   libconcrt:Platform.obj
 0001:00019074       ?__TlsAlloc@platform@details@Concurrency@@YAKXZ 1001a074 f   libconcrt:Platform.obj
 0001:000190b5       ?__TlsFree@platform@details@Concurrency@@YAXK@Z 1001a0b5 f   libconcrt:Platform.obj
 0001:000190c3       ?__TlsGetValue@platform@details@Concurrency@@YAPAXK@Z 1001a0c3 f   libconcrt:Platform.obj
 0001:000190d1       ?__TlsSetValue@platform@details@Concurrency@@YAXKPAX@Z 1001a0d1 f   libconcrt:Platform.obj
 0001:00019117       ?__UnregisterWait@platform@details@Concurrency@@YAXPAX@Z 1001a117 f   libconcrt:Platform.obj
 0001:00019125       ?__WaitForThread@platform@details@Concurrency@@YAKPAXK@Z 1001a125 f   libconcrt:Platform.obj
 0001:00019138       ?notify@WaiterThread@platform@details@Concurrency@@AAEX_N@Z 1001a138 f i libconcrt:Platform.obj
 0001:0001916c       __concrt_static_cleanup    1001a16c f   libconcrt:utils.obj
 0001:0001917a       ?DeleteAsyncTimerAndUnloadLibrary@details@Concurrency@@YAXPAU_TP_TIMER@@@Z 1001a17a f   libconcrt:utils.obj
 0001:000191b6       ?DecodePointer@Security@details@Concurrency@@SAPAXPAX@Z 1001a1b6 f   libconcrt:utils.obj
 0001:000191b6       ?EncodePointer@Security@details@Concurrency@@SAPAXPAX@Z 1001a1b6 f   libconcrt:utils.obj
 0001:000191c3       ?FreeLibraryAndDestroyThread@details@Concurrency@@YAXK@Z 1001a1c3 f   libconcrt:utils.obj
 0001:000191ed       ?InitializeCookie@Security@details@Concurrency@@SAKXZ 1001a1ed f   libconcrt:utils.obj
 0001:0001923b       ?LoadLibraryAndCreateThread@details@Concurrency@@YAPAXPAU_SECURITY_ATTRIBUTES@@KP6GKPAX@Z1KPAK@Z 1001a23b f   libconcrt:utils.obj
 0001:00019281       ?ReferenceLoadLibrary@details@Concurrency@@YAXXZ 1001a281 f   libconcrt:utils.obj
 0001:00019317       ?RegisterAsyncTimerAndLoadLibrary@details@Concurrency@@YAPAU_TP_TIMER@@KP6GXPAU_TP_CALLBACK_INSTANCE@@PAXPAU3@@Z1_N@Z 1001a317 f   libconcrt:utils.obj
 0001:00019378       ?RegisterAsyncWaitAndLoadLibrary@details@Concurrency@@YAPAU_TP_WAIT@@PAXP6GXPAU_TP_CALLBACK_INSTANCE@@0PAU3@K@Z0@Z 1001a378 f   libconcrt:utils.obj
 0001:000193b1       ?UnRegisterAsyncTimerAndUnloadLibrary@details@Concurrency@@YAXPAU_TP_CALLBACK_INSTANCE@@PAU_TP_TIMER@@@Z 1001a3b1 f   libconcrt:utils.obj
 0001:000193e7       ?UnRegisterAsyncWaitAndUnloadLibrary@details@Concurrency@@YAXPAU_TP_CALLBACK_INSTANCE@@PAU_TP_WAIT@@@Z 1001a3e7 f   libconcrt:utils.obj
 0001:0001941c       ?_Acquire@_CriticalNonReentrantLock@details@Concurrency@@QAEXXZ 1001a41c f   libconcrt:utils.obj
 0001:0001941c       ?_Acquire@_HyperNonReentrantLock@details@Concurrency@@QAEXXZ 1001a41c f   libconcrt:utils.obj
 0001:0001942c       ?_Acquire@_NonReentrantLock@details@Concurrency@@QAEXXZ 1001a42c f i libconcrt:utils.obj
 0001:0001945f       ?_Release@_HyperNonReentrantLock@details@Concurrency@@QAEXXZ 1001a45f f   libconcrt:utils.obj
 0001:0001945f       ?_Release@_CriticalNonReentrantLock@details@Concurrency@@QAEXXZ 1001a45f f   libconcrt:utils.obj
 0001:0001946a       ?_Sleep0@details@Concurrency@@YAXXZ 1001a46a f   libconcrt:utils.obj
 0001:00019473       ?_TryAcquire@_CriticalNonReentrantLock@details@Concurrency@@QAE_NXZ 1001a473 f   libconcrt:utils.obj
 0001:00019493       ?_TryAcquire@_NonReentrantLock@details@Concurrency@@QAE_NXZ 1001a493 f i libconcrt:utils.obj
 0001:000194a8       ?_UnderlyingYield@details@Concurrency@@YAXXZ 1001a4a8 f   libconcrt:utils.obj
 0001:000194ce       __vfwprintf_l              1001a4ce f i libconcrt:utils.obj
 0001:000194f1       _fwprintf                  1001a4f1 f i libconcrt:utils.obj
 0001:0001950a       ??0context_self_unblock@Concurrency@@QAE@XZ 1001a50a f   libconcrt:Exceptions.obj
 0001:0001951b       ??0context_unblock_unbalanced@Concurrency@@QAE@XZ 1001a51b f   libconcrt:Exceptions.obj
 0001:0001952c       ??0improper_lock@Concurrency@@QAE@PBD@Z 1001a52c f   libconcrt:Exceptions.obj
 0001:00019547       ??0improper_scheduler_attach@Concurrency@@QAE@XZ 1001a547 f   libconcrt:Exceptions.obj
 0001:00019558       ??0improper_scheduler_reference@Concurrency@@QAE@XZ 1001a558 f   libconcrt:Exceptions.obj
 0001:00019569       ??0invalid_oversubscribe_operation@Concurrency@@QAE@XZ 1001a569 f   libconcrt:Exceptions.obj
 0001:0001957a       ??0invalid_scheduler_policy_key@Concurrency@@QAE@PBD@Z 1001a57a f   libconcrt:Exceptions.obj
 0001:00019595       ??0invalid_scheduler_policy_thread_specification@Concurrency@@QAE@XZ 1001a595 f   libconcrt:Exceptions.obj
 0001:000195a6       ??0invalid_scheduler_policy_value@Concurrency@@QAE@PBD@Z 1001a5a6 f   libconcrt:Exceptions.obj
 0001:000195c1       ??0missing_wait@Concurrency@@QAE@XZ 1001a5c1 f   libconcrt:Exceptions.obj
 0001:000195d2       ??0nested_scheduler_missing_detach@Concurrency@@QAE@XZ 1001a5d2 f   libconcrt:Exceptions.obj
 0001:000195e3       ??0scheduler_resource_allocation_error@Concurrency@@QAE@J@Z 1001a5e3 f   libconcrt:Exceptions.obj
 0001:00019600       ??0scheduler_worker_creation_error@Concurrency@@QAE@J@Z 1001a600 f   libconcrt:Exceptions.obj
 0001:0001961d       ??0unsupported_os@Concurrency@@QAE@XZ 1001a61d f   libconcrt:Exceptions.obj
 0001:0001962e       ??1__non_rtti_object@std@@UAE@XZ 1001a62e f i libvcruntime:rtti.obj
 0001:0001962e       ??1missing_wait@Concurrency@@UAE@XZ 1001a62e f i libconcrt:Exceptions.obj
 0001:0001962e       ??1invalid_scheduler_policy_value@Concurrency@@UAE@XZ 1001a62e f i libconcrt:Exceptions.obj
 0001:0001962e       ??1bad_array_new_length@std@@UAE@XZ 1001a62e f i LIBCMT:throw_bad_alloc.obj
 0001:0001962e       ??1scheduler_resource_allocation_error@Concurrency@@UAE@XZ 1001a62e f i libconcrt:Platform.obj
 0001:0001962e       ??1bad_alloc@std@@UAE@XZ   1001a62e f i libcpmt:xthrow.obj
 0001:0001962e       ??1nested_scheduler_missing_detach@Concurrency@@UAE@XZ 1001a62e f i libconcrt:Exceptions.obj
 0001:0001962e       ??1improper_scheduler_reference@Concurrency@@UAE@XZ 1001a62e f i libconcrt:Exceptions.obj
 0001:0001962e       ??1invalid_scheduler_policy_key@Concurrency@@UAE@XZ 1001a62e f i libconcrt:Exceptions.obj
 0001:0001962e       ??1bad_exception@std@@UAE@XZ 1001a62e f i libvcruntime:frame.obj
 0001:0001962e       ??1out_of_range@std@@UAE@XZ 1001a62e f i libcpmt:xthrow.obj
 0001:0001962e       ??1_Interruption_exception@details@Concurrency@@UAE@XZ 1001a62e f i libconcrt:TaskCollection.obj
 0001:0001962e       ??1context_unblock_unbalanced@Concurrency@@UAE@XZ 1001a62e f i libconcrt:Exceptions.obj
 0001:0001962e       ??1length_error@std@@UAE@XZ 1001a62e f i libcpmt:xthrow.obj
 0001:0001962e       ??1improper_lock@Concurrency@@UAE@XZ 1001a62e f i libconcrt:rtlocks.obj
 0001:0001962e       ??1bad_cast@std@@UAE@XZ    1001a62e f i libcpmt:locale.obj
 0001:0001962e       ??1invalid_operation@Concurrency@@UAE@XZ 1001a62e f i libconcrt:ResourceManager.obj
 0001:0001962e       ??1invalid_oversubscribe_operation@Concurrency@@UAE@XZ 1001a62e f i libconcrt:Exceptions.obj
 0001:0001962e       ??1improper_scheduler_attach@Concurrency@@UAE@XZ 1001a62e f i libconcrt:Exceptions.obj
 0001:0001962e       ??1unsupported_os@Concurrency@@UAE@XZ 1001a62e f i libconcrt:Exceptions.obj
 0001:0001962e       ??1scheduler_worker_creation_error@Concurrency@@UAE@XZ 1001a62e f i libconcrt:Exceptions.obj
 0001:0001962e       ??1invalid_scheduler_policy_thread_specification@Concurrency@@UAE@XZ 1001a62e f i libconcrt:Exceptions.obj
 0001:0001962e       ??1context_self_unblock@Concurrency@@UAE@XZ 1001a62e f i libconcrt:Exceptions.obj
 0001:0001963f       ??_Ebad_exception@std@@UAEPAXI@Z 1001a63f f i libvcruntime:frame.obj
 0001:0001963f       ??_Ginvalid_oversubscribe_operation@Concurrency@@UAEPAXI@Z 1001a63f f i libconcrt:Exceptions.obj
 0001:0001963f       ??_Econtext_self_unblock@Concurrency@@UAEPAXI@Z 1001a63f f i libconcrt:Exceptions.obj
 0001:0001963f       ??_Einvalid_scheduler_policy_key@Concurrency@@UAEPAXI@Z 1001a63f f i libconcrt:Exceptions.obj
 0001:0001963f       ??_Gmissing_wait@Concurrency@@UAEPAXI@Z 1001a63f f i libconcrt:Exceptions.obj
 0001:0001963f       ??_Gnested_scheduler_missing_detach@Concurrency@@UAEPAXI@Z 1001a63f f i libconcrt:Exceptions.obj
 0001:0001963f       ??_Gimproper_lock@Concurrency@@UAEPAXI@Z 1001a63f f i libconcrt:rtlocks.obj
 0001:0001963f       ??_Ebad_array_new_length@std@@UAEPAXI@Z 1001a63f f i LIBCMT:throw_bad_alloc.obj
 0001:0001963f       ??_E_Interruption_exception@details@Concurrency@@UAEPAXI@Z 1001a63f f i libconcrt:TaskCollection.obj
 0001:0001963f       ??_Einvalid_operation@Concurrency@@UAEPAXI@Z 1001a63f f i libconcrt:ResourceManager.obj
 0001:0001963f       ??_Ebad_typeid@std@@UAEPAXI@Z 1001a63f f i libvcruntime:rtti.obj
 0001:0001963f       ??_Ebad_alloc@std@@UAEPAXI@Z 1001a63f f i libcpmt:xthrow.obj
 0001:0001963f       ??_Eimproper_lock@Concurrency@@UAEPAXI@Z 1001a63f f i libconcrt:rtlocks.obj
 0001:0001963f       ??_Gexception@std@@UAEPAXI@Z 1001a63f f i libcpmt:xthrow.obj
 0001:0001963f       ??_Gunsupported_os@Concurrency@@UAEPAXI@Z 1001a63f f i libconcrt:Exceptions.obj
 0001:0001963f       ??_Gcontext_unblock_unbalanced@Concurrency@@UAEPAXI@Z 1001a63f f i libconcrt:Exceptions.obj
 0001:0001963f       ??_Gbad_alloc@std@@UAEPAXI@Z 1001a63f f i libcpmt:xthrow.obj
 0001:0001963f       ??_Einvalid_oversubscribe_operation@Concurrency@@UAEPAXI@Z 1001a63f f i libconcrt:Exceptions.obj
 0001:0001963f       ??_Gbad_cast@std@@UAEPAXI@Z 1001a63f f i libcpmt:locale.obj
 0001:0001963f       ??_Gimproper_scheduler_attach@Concurrency@@UAEPAXI@Z 1001a63f f i libconcrt:Exceptions.obj
 0001:0001963f       ??_Gbad_array_new_length@std@@UAEPAXI@Z 1001a63f f i LIBCMT:throw_bad_alloc.obj
 0001:0001963f       ??_G__non_rtti_object@std@@UAEPAXI@Z 1001a63f f i libvcruntime:rtti.obj
 0001:0001963f       ??_Ginvalid_scheduler_policy_thread_specification@Concurrency@@UAEPAXI@Z 1001a63f f i libconcrt:Exceptions.obj
 0001:0001963f       ??_Gimproper_scheduler_reference@Concurrency@@UAEPAXI@Z 1001a63f f i libconcrt:Exceptions.obj
 0001:0001963f       ??_Einvalid_scheduler_policy_thread_specification@Concurrency@@UAEPAXI@Z 1001a63f f i libconcrt:Exceptions.obj
 0001:0001963f       ??_Eimproper_scheduler_attach@Concurrency@@UAEPAXI@Z 1001a63f f i libconcrt:Exceptions.obj
 0001:0001963f       ??_Gcontext_self_unblock@Concurrency@@UAEPAXI@Z 1001a63f f i libconcrt:Exceptions.obj
 0001:0001963f       ??_Ebad_cast@std@@UAEPAXI@Z 1001a63f f i libcpmt:locale.obj
 0001:0001963f       ??_Eexception@std@@UAEPAXI@Z 1001a63f f i libcpmt:xthrow.obj
 0001:0001963f       ??_Enested_scheduler_missing_detach@Concurrency@@UAEPAXI@Z 1001a63f f i libconcrt:Exceptions.obj
 0001:0001963f       ??_Glength_error@std@@UAEPAXI@Z 1001a63f f i libcpmt:xthrow.obj
 0001:0001963f       ??_Ginvalid_operation@Concurrency@@UAEPAXI@Z 1001a63f f i libconcrt:ResourceManager.obj
 0001:0001963f       ??_Einvalid_scheduler_policy_value@Concurrency@@UAEPAXI@Z 1001a63f f i libconcrt:Exceptions.obj
 0001:0001963f       ??_Econtext_unblock_unbalanced@Concurrency@@UAEPAXI@Z 1001a63f f i libconcrt:Exceptions.obj
 0001:0001963f       ??_Emissing_wait@Concurrency@@UAEPAXI@Z 1001a63f f i libconcrt:Exceptions.obj
 0001:0001963f       ??_Gbad_exception@std@@UAEPAXI@Z 1001a63f f i libvcruntime:frame.obj
 0001:0001963f       ??_Eout_of_range@std@@UAEPAXI@Z 1001a63f f i libcpmt:xthrow.obj
 0001:0001963f       ??_Ginvalid_scheduler_policy_key@Concurrency@@UAEPAXI@Z 1001a63f f i libconcrt:Exceptions.obj
 0001:0001963f       ??_G_Interruption_exception@details@Concurrency@@UAEPAXI@Z 1001a63f f i libconcrt:TaskCollection.obj
 0001:0001963f       ??_Elength_error@std@@UAEPAXI@Z 1001a63f f i libcpmt:xthrow.obj
 0001:0001963f       ??_Eimproper_scheduler_reference@Concurrency@@UAEPAXI@Z 1001a63f f i libconcrt:Exceptions.obj
 0001:0001963f       ??_E__non_rtti_object@std@@UAEPAXI@Z 1001a63f f i libvcruntime:rtti.obj
 0001:0001963f       ??_Gout_of_range@std@@UAEPAXI@Z 1001a63f f i libcpmt:xthrow.obj
 0001:0001963f       ??_Ginvalid_scheduler_policy_value@Concurrency@@UAEPAXI@Z 1001a63f f i libconcrt:Exceptions.obj
 0001:0001963f       ??_Eunsupported_os@Concurrency@@UAEPAXI@Z 1001a63f f i libconcrt:Exceptions.obj
 0001:0001963f       ??_Gbad_typeid@std@@UAEPAXI@Z 1001a63f f i libvcruntime:rtti.obj
 0001:0001966c       ??_Escheduler_worker_creation_error@Concurrency@@UAEPAXI@Z 1001a66c f i libconcrt:Exceptions.obj
 0001:0001966c       ??_Escheduler_resource_allocation_error@Concurrency@@UAEPAXI@Z 1001a66c f i libconcrt:Platform.obj
 0001:0001966c       ??_Gscheduler_resource_allocation_error@Concurrency@@UAEPAXI@Z 1001a66c f i libconcrt:Platform.obj
 0001:0001966c       ??_Gscheduler_worker_creation_error@Concurrency@@UAEPAXI@Z 1001a66c f i libconcrt:Exceptions.obj
 0001:00019699       ?Block@Context@Concurrency@@SAXXZ 1001a699 f   libconcrt:Context.obj
 0001:000196b5       ?CurrentContext@Context@Concurrency@@SAPAV12@XZ 1001a6b5 f   libconcrt:Context.obj
 0001:000196ba       ??0HardwareAffinity@details@Concurrency@@QAE@PAX@Z 1001a6ba f   libconcrt:ResourceManager.obj
 0001:000196db       ??0ResourceManager@details@Concurrency@@AAE@XZ 1001a6db f   libconcrt:ResourceManager.obj
 0001:000197be       ??0SchedulerCore@details@Concurrency@@QAE@XZ 1001a7be f i libconcrt:ResourceManager.obj
 0001:000197c9       ??0invalid_operation@Concurrency@@QAE@ABV01@@Z 1001a7c9 f i libconcrt:ResourceManager.obj
 0001:000197e4       ??0invalid_operation@Concurrency@@QAE@XZ 1001a7e4 f i libconcrt:ResourceManager.obj
 0001:000197f5       ??0unsupported_os@Concurrency@@QAE@ABV01@@Z 1001a7f5 f i libconcrt:ResourceManager.obj
 0001:00019810       ??1GlobalNode@details@Concurrency@@QAE@XZ 1001a810 f i libconcrt:ResourceManager.obj
 0001:0001981d       ??1ResourceManager@details@Concurrency@@AAE@XZ 1001a81d f   libconcrt:ResourceManager.obj
 0001:000198f2       ??1_Scoped_lock@_NonReentrantBlockingLock@details@Concurrency@@QAE@XZ 1001a8f2 f i libconcrt:ResourceManager.obj
 0001:000198f2       ??1_Scoped_lock@_ReentrantBlockingLock@details@Concurrency@@QAE@XZ 1001a8f2 f i libconcrt:SchedulerProxy.obj
 0001:0001992a       ??1_Scoped_lock@_NonReentrantLock@details@Concurrency@@QAE@XZ 1001a92a f i libconcrt:ResourceManager.obj
 0001:00019933       ??_EGlobalNode@details@Concurrency@@QAEPAXI@Z 1001a933 f i libconcrt:ResourceManager.obj
 0001:000199bb       ??_GAffinityRestriction@ResourceManager@details@Concurrency@@QAEPAXI@Z 1001a9bb f i libconcrt:ResourceManager.obj
 0001:000199e4       ?AddTail@?$List@VSchedulerProxy@details@Concurrency@@VCount@CollectionTypes@23@@details@Concurrency@@QAEXPAVSchedulerProxy@23@@Z 1001a9e4 f i libconcrt:ResourceManager.obj
 0001:00019a1d       ?AdjustDynamicAllocation@ResourceManager@details@Concurrency@@AAEIIII@Z 1001aa1d f   libconcrt:ResourceManager.obj
 0001:00019aef       ?ApplyAffinityLimits@AffinityRestriction@ResourceManager@details@Concurrency@@QAEXPAU_GROUP_AFFINITY@@@Z 1001aaef f i libconcrt:ResourceManager.obj
 0001:00019b12       ?ApplyAffinityRestrictions@ResourceManager@details@Concurrency@@CAXPAK@Z 1001ab12 f   libconcrt:ResourceManager.obj
 0001:00019b43       ?ApplyAffinityRestrictions@ResourceManager@details@Concurrency@@CAXPAU_GROUP_AFFINITY@@@Z 1001ab43 f   libconcrt:ResourceManager.obj
 0001:00019b6a       ?ApplyTo@HardwareAffinity@details@Concurrency@@QAEXPAX@Z 1001ab6a f   libconcrt:ResourceManager.obj
 0001:00019b7c       ?CaptureProcessAffinity@ResourceManager@details@Concurrency@@CAXXZ 1001ab7c f   libconcrt:ResourceManager.obj
 0001:00019c9c       ?CleanupTopologyInformation@ResourceManager@details@Concurrency@@CAXXZ 1001ac9c f   libconcrt:ResourceManager.obj
 0001:00019cb7       ?CommitStolenCores@ResourceManager@details@Concurrency@@AAEXPAVSchedulerProxy@23@@Z 1001acb7 f   libconcrt:ResourceManager.obj
 0001:00019dc6       ?ComputeDesiredHWThreadsWithExternalThread@SchedulerProxy@details@Concurrency@@QBEIXZ 1001adc6 f i libconcrt:ResourceManager.obj
 0001:00019de9       ?ComputeMinHWThreadsWithExternalThread@SchedulerProxy@details@Concurrency@@QBEIXZ 1001ade9 f i libconcrt:ResourceManager.obj
 0001:00019e16       ?CreateAllocatedNodeData@ResourceManager@details@Concurrency@@QAEPAUSchedulerNode@23@XZ 1001ae16 f   libconcrt:ResourceManager.obj
 0001:00019f4d       ?CreateDynamicRMWorker@ResourceManager@details@Concurrency@@AAEXXZ 1001af4d f   libconcrt:ResourceManager.obj
 0001:00019fb0       ?CreateNodeTopology@ResourceManager@details@Concurrency@@UAEXIPAIPAPAI0@Z 1001afb0 f   libconcrt:ResourceManager.obj
 0001:00019fb3       ?CreateResourceManager@Concurrency@@YAPAUIResourceManager@1@XZ 1001afb3 f   libconcrt:ResourceManager.obj
 0001:00019fb8       ?CreateSchedulerProxy@ResourceManager@details@Concurrency@@AAEPAVSchedulerProxy@23@PAUIScheduler@3@@Z 1001afb8 f   libconcrt:ResourceManager.obj
 0001:0001a019       ?CreateSingleton@ResourceManager@details@Concurrency@@SAPAV123@XZ 1001b019 f   libconcrt:ResourceManager.obj
 0001:0001a0ac       ?CurrentSubscriptionLevel@ResourceManager@details@Concurrency@@QAEIII@Z 1001b0ac f   libconcrt:ResourceManager.obj
 0001:0001a116       ?DesiredHWThreads@SchedulerProxy@details@Concurrency@@QBEIXZ 1001b116 f i libconcrt:ResourceManager.obj
 0001:0001a12f       ?DestroyAllocatedNodeData@ResourceManager@details@Concurrency@@QAEXPAUSchedulerNode@23@@Z 1001b12f f   libconcrt:ResourceManager.obj
 0001:0001a16b       ?DetermineTopology@ResourceManager@details@Concurrency@@AAEXXZ 1001b16b f   libconcrt:ResourceManager.obj
 0001:0001a47e       ?DiscardExistingSchedulerStatistics@ResourceManager@details@Concurrency@@AAEXXZ 1001b47e f   libconcrt:ResourceManager.obj
 0001:0001a4ea       ?DistributeCoresToSurvivingScheduler@ResourceManager@details@Concurrency@@AAE_NXZ 1001b4ea f   libconcrt:ResourceManager.obj
 0001:0001a68f       ?DistributeExclusiveCores@ResourceManager@details@Concurrency@@AAEXIIIII@Z 1001b68f f   libconcrt:ResourceManager.obj
 0001:0001a7d1       ?DistributeIdleCores@ResourceManager@details@Concurrency@@AAEXII@Z 1001b7d1 f   libconcrt:ResourceManager.obj
 0001:0001a957       ?DoCoreMigration@ResourceManager@details@Concurrency@@AAEXXZ 1001b957 f   libconcrt:ResourceManager.obj
 0001:0001abbb       ?DynamicAssignCores@ResourceManager@details@Concurrency@@AAEXPAVSchedulerProxy@23@II_N@Z 1001bbbb f   libconcrt:ResourceManager.obj
 0001:0001ac2a       ?DynamicMigrateCores@ResourceManager@details@Concurrency@@AAEXPAUDynamicAllocationData@23@PAVSchedulerProxy@23@II@Z 1001bc2a f   libconcrt:ResourceManager.obj
 0001:0001ad95       ?DynamicRMThreadProc@ResourceManager@details@Concurrency@@CGKPAX@Z 1001bd95 f   libconcrt:ResourceManager.obj
 0001:0001adae       ?DynamicResourceManager@ResourceManager@details@Concurrency@@AAEXXZ 1001bdae f   libconcrt:ResourceManager.obj
 0001:0001aeae       ?FindBestFitExclusiveAllocation@ResourceManager@details@Concurrency@@AAEIAAI0PAUDynamicAllocationData@23@II@Z 1001beae f   libconcrt:ResourceManager.obj
 0001:0001b1f2       ?FindBestFitIdleAllocation@ResourceManager@details@Concurrency@@AAEIIPAUDynamicAllocationData@23@I@Z 1001c1f2 f   libconcrt:ResourceManager.obj
 0001:0001b300       ?FindCoreForPartiallyFilledNode@ResourceManager@details@Concurrency@@AAE_NAAI0PAUDynamicAllocationData@23@I@Z 1001c300 f   libconcrt:ResourceManager.obj
 0001:0001b40b       ?FindGroupAffinity@AffinityRestriction@ResourceManager@details@Concurrency@@QAEPAUHardwareAffinity@34@G@Z 1001c40b f i libconcrt:ResourceManager.obj
 0001:0001b442       ?FlushStoreBuffers@ResourceManager@details@Concurrency@@QAEXXZ 1001c442 f   libconcrt:ResourceManager.obj
 0001:0001b474       ?GetCoreCount@ResourceManager@details@Concurrency@@SAIXZ 1001c474 f   libconcrt:ResourceManager.obj
 0001:0001b4bf       ?GetCurrentNodeAndCore@ResourceManager@details@Concurrency@@QAEIPAI@Z 1001c4bf f   libconcrt:ResourceManager.obj
 0001:0001b5cf       ?GetFirstExecutionResource@TopologyObject@GlobalNode@details@Concurrency@@UBEPAUITopologyExecutionResource@4@XZ 1001c5cf f i libconcrt:ResourceManager.obj
 0001:0001b5d9       ?GetFirstNode@ResourceManager@details@Concurrency@@UBEPAUITopologyNode@3@XZ 1001c5d9 f i libconcrt:ResourceManager.obj
 0001:0001b5e0       ?GetId@TopologyObject@GlobalCore@details@Concurrency@@UBEIXZ 1001c5e0 f i libconcrt:ResourceManager.obj
 0001:0001b5e0       ?GetExecutionResourceCount@TopologyObject@GlobalNode@details@Concurrency@@UBEIXZ 1001c5e0 f i libconcrt:ResourceManager.obj
 0001:0001b5e7       ?GetId@TopologyObject@GlobalNode@details@Concurrency@@UBEIXZ 1001c5e7 f i libconcrt:ResourceManager.obj
 0001:0001b5ee       ?GetNext@TopologyObject@GlobalCore@details@Concurrency@@UBEPAUITopologyExecutionResource@4@XZ 1001c5ee f   libconcrt:ResourceManager.obj
 0001:0001b605       ?GetNext@TopologyObject@GlobalNode@details@Concurrency@@UBEPAUITopologyNode@4@XZ 1001c605 f   libconcrt:ResourceManager.obj
 0001:0001b61c       ?GetNextGlobalCore@GlobalNode@details@Concurrency@@QAEPAUGlobalCore@23@PBU423@@Z 1001c61c f i libconcrt:ResourceManager.obj
 0001:0001b641       ?GetNextGlobalNode@ResourceManager@details@Concurrency@@QAEPAUGlobalNode@23@PBU423@@Z 1001c641 f i libconcrt:ResourceManager.obj
 0001:0001b666       ?GetNodeCount@ResourceManager@details@Concurrency@@SAIXZ 1001c666 f   libconcrt:ResourceManager.obj
 0001:0001b6b1       ?GetNumaNode@TopologyObject@GlobalNode@details@Concurrency@@UBEKXZ 1001c6b1 f i libconcrt:ResourceManager.obj
 0001:0001b6b8       ?GetOSVersion@Concurrency@@YA?AW4OSVersion@IResourceManager@1@XZ 1001c6b8 f   libconcrt:ResourceManager.obj
 0001:0001b6bd       ?GetProcessorCount@Concurrency@@YAIXZ 1001c6bd f   libconcrt:ResourceManager.obj
 0001:0001b6c2       ?GetProcessorNodeCount@Concurrency@@YAIXZ 1001c6c2 f   libconcrt:ResourceManager.obj
 0001:0001b6c7       ?GetSchedulerId@Concurrency@@YAIXZ 1001c6c7 f   libconcrt:ResourceManager.obj
 0001:0001b6d4       ?GetTopologyInformation@ResourceManager@details@Concurrency@@CAXW4_LOGICAL_PROCESSOR_RELATIONSHIP@@@Z 1001c6d4 f   libconcrt:ResourceManager.obj
 0001:0001b6fd       ?HandleBorrowedCores@ResourceManager@details@Concurrency@@AAEXPAVSchedulerProxy@23@PAUAllocationData@23@@Z 1001c6fd f   libconcrt:ResourceManager.obj
 0001:0001b818       ?HandleSharedCores@ResourceManager@details@Concurrency@@AAEXPAVSchedulerProxy@23@PAUDynamicAllocationData@23@@Z 1001c818 f   libconcrt:ResourceManager.obj
 0001:0001b96f       ?IncreaseFullyLoadedSchedulerAllocations@ResourceManager@details@Concurrency@@AAEXXZ 1001c96f f   libconcrt:ResourceManager.obj
 0001:0001b9a5       ?Initialize@GlobalCore@details@Concurrency@@QAEXPAUGlobalNode@23@IE@Z 1001c9a5 f i libconcrt:ResourceManager.obj
 0001:0001b9e4       ?Initialize@GlobalNode@details@Concurrency@@QAEXPAVResourceManager@23@GGKII@Z 1001c9e4 f i libconcrt:ResourceManager.obj
 0001:0001bb01       ?InitializeRMBuffers@ResourceManager@details@Concurrency@@AAEXXZ 1001cb01 f   libconcrt:ResourceManager.obj
 0001:0001bbc3       ?InitializeSystemInformation@ResourceManager@details@Concurrency@@CAX_N@Z 1001cbc3 f   libconcrt:ResourceManager.obj
 0001:0001bdfb       ?MinVprocHWThreads@SchedulerProxy@details@Concurrency@@QBEIXZ 1001cdfb f i libconcrt:ResourceManager.obj
 0001:0001be14       ?PerformAllocation@ResourceManager@details@Concurrency@@QAEPAVExecutionResource@23@PAVSchedulerProxy@23@_N1@Z 1001ce14 f   libconcrt:ResourceManager.obj
 0001:0001bf6c       ?PopulateCommonAllocationData@ResourceManager@details@Concurrency@@AAEXIPAVSchedulerProxy@23@PAUAllocationData@23@@Z 1001cf6c f   libconcrt:ResourceManager.obj
 0001:0001c034       ?PopulateDynamicAllocationData@ResourceManager@details@Concurrency@@AAEXXZ 1001d034 f   libconcrt:ResourceManager.obj
 0001:0001c15c       ?PreProcessDynamicAllocationData@ResourceManager@details@Concurrency@@AAEXXZ 1001d15c f   libconcrt:ResourceManager.obj
 0001:0001c22f       ?PreProcessStaticAllocationData@ResourceManager@details@Concurrency@@AAEXXZ 1001d22f f   libconcrt:ResourceManager.obj
 0001:0001c25e       ?PrepareReceiversForCoreTransfer@ResourceManager@details@Concurrency@@AAEII@Z 1001d25e f   libconcrt:ResourceManager.obj
 0001:0001c46d       ?RedistributeCoresAmongAll@ResourceManager@details@Concurrency@@AAEIPAVSchedulerProxy@23@III@Z 1001d46d f   libconcrt:ResourceManager.obj
 0001:0001c843       ?Reference@ResourceManager@details@Concurrency@@UAEIXZ 1001d843 f   libconcrt:ResourceManager.obj
 0001:0001c84d       ?RegisterScheduler@ResourceManager@details@Concurrency@@UAEPAUISchedulerProxy@3@PAUIScheduler@3@I@Z 1001d84d f   libconcrt:ResourceManager.obj
 0001:0001c893       ?Release@ResourceManager@details@Concurrency@@UAEIXZ 1001d893 f   libconcrt:ResourceManager.obj
 0001:0001c93e       ?ReleaseCoresOnExistingSchedulers@ResourceManager@details@Concurrency@@AAEIPAVSchedulerProxy@23@II@Z 1001d93e f   libconcrt:ResourceManager.obj
 0001:0001c995       ?ReleaseSchedulerResources@ResourceManager@details@Concurrency@@AAE_NPAVSchedulerProxy@23@0I@Z 1001d995 f   libconcrt:ResourceManager.obj
 0001:0001ca8d       ?Remove@?$List@VSchedulerProxy@details@Concurrency@@VCount@CollectionTypes@23@@details@Concurrency@@QAEXPAVSchedulerProxy@23@@Z 1001da8d f i libconcrt:ResourceManager.obj
 0001:0001cac3       ?RemoveExecutionResource@ResourceManager@details@Concurrency@@QAEXPAVExecutionResource@23@@Z 1001dac3 f   libconcrt:ResourceManager.obj
 0001:0001cb3a       ?RequestInitialVirtualProcessors@ResourceManager@details@Concurrency@@QAEPAUIExecutionResource@3@PAVSchedulerProxy@23@_N@Z 1001db3a f   libconcrt:ResourceManager.obj
 0001:0001cc4f       ?ReserveAtHigherUseCounts@ResourceManager@details@Concurrency@@AAEIPAVSchedulerProxy@23@I@Z 1001dc4f f   libconcrt:ResourceManager.obj
 0001:0001cc85       ?ReserveCores@ResourceManager@details@Concurrency@@AAEIPAVSchedulerProxy@23@II@Z 1001dc85 f   libconcrt:ResourceManager.obj
 0001:0001ce5b       ?ResetGlobalAllocationData@ResourceManager@details@Concurrency@@AAEXXZ 1001de5b f   libconcrt:ResourceManager.obj
 0001:0001ceb4       ?RetrieveSystemVersionInformation@ResourceManager@details@Concurrency@@CAXXZ 1001deb4 f   libconcrt:ResourceManager.obj
 0001:0001cfa4       ?RoundUpScaledAllocations@ResourceManager@details@Concurrency@@CAXPAPAUAllocationData@23@II@Z 1001dfa4 f   libconcrt:ResourceManager.obj
 0001:0001d165       ?SafeReference@ResourceManager@details@Concurrency@@AAE_NXZ 1001e165 f   libconcrt:ResourceManager.obj
 0001:0001d184       ?SendResourceNotifications@ResourceManager@details@Concurrency@@QAEXPAVSchedulerProxy@23@@Z 1001e184 f   libconcrt:ResourceManager.obj
 0001:0001d355       ?SetupStaticAllocationData@ResourceManager@details@Concurrency@@AAEXPAVSchedulerProxy@23@_N@Z 1001e355 f   libconcrt:ResourceManager.obj
 0001:0001d426       ?Shutdown@ResourceManager@details@Concurrency@@QAEXPAVSchedulerProxy@23@@Z 1001e426 f   libconcrt:ResourceManager.obj
 0001:0001d4f9       ?SubscribeCurrentThread@ResourceManager@details@Concurrency@@QAEPAVExecutionResource@23@PAVSchedulerProxy@23@@Z 1001e4f9 f   libconcrt:ResourceManager.obj
 0001:0001d54d       ?ToggleRMIdleState@ResourceManager@details@Concurrency@@AAEXPAUSchedulerNode@23@PAUSchedulerCore@23@PAUGlobalNode@23@PAUGlobalCore@23@PAUAllocationData@23@@Z 1001e54d f   libconcrt:ResourceManager.obj
 0001:0001d5ba       ?Version@ResourceManager@details@Concurrency@@SA?AW4OSVersion@IResourceManager@3@XZ 1001e5ba f   libconcrt:ResourceManager.obj
 0001:0001d603       ??$_InternalDeleteHelper@VExternalContextBase@details@Concurrency@@@details@Concurrency@@YAXPAVExternalContextBase@01@@Z 1001e603 f i libconcrt:SchedulerBase.obj
 0001:0001d625       ??$_InternalDeleteHelper@VInternalContextBase@details@Concurrency@@@details@Concurrency@@YAXPAVInternalContextBase@01@@Z 1001e625 f i libconcrt:SchedulerBase.obj
 0001:0001d649       ??$_InternalDeleteHelper@VScheduleGroupBase@details@Concurrency@@@details@Concurrency@@YAXPAVScheduleGroupBase@01@@Z 1001e649 f i libconcrt:SchedulerBase.obj
 0001:0001d66b       ??0?$Hash@II@details@Concurrency@@QAE@H@Z 1001e66b f i libconcrt:SchedulerBase.obj
 0001:0001d66b       ??0?$Hash@PAV_TaskCollection@details@Concurrency@@PAV123@@details@Concurrency@@QAE@H@Z 1001e66b f i libconcrt:ContextBase.obj
 0001:0001d6a9       ??0CacheLocalScheduleGroupSegment@details@Concurrency@@QAE@PAVScheduleGroupBase@12@PAVSchedulingRing@12@PAVlocation@2@@Z 1001e6a9 f i libconcrt:SchedulerBase.obj
 0001:0001d6e3       ??0FairScheduleGroupSegment@details@Concurrency@@QAE@PAVScheduleGroupBase@12@PAVSchedulingRing@12@PAVlocation@2@@Z 1001e6e3 f i libconcrt:SchedulerBase.obj
 0001:0001d71d       ??0NumaInformation@SchedulerBase@details@Concurrency@@QAE@XZ 1001e71d f i libconcrt:SchedulerBase.obj
 0001:0001d737       ??0QuickBitSet@details@Concurrency@@QAE@I@Z 1001e737 f i libconcrt:SchedulerBase.obj
 0001:0001d77d       ??0SchedulerBase@details@Concurrency@@QAE@ABVSchedulerPolicy@2@@Z 1001e77d f   libconcrt:SchedulerBase.obj
 0001:0001da99       ??0improper_scheduler_attach@Concurrency@@QAE@ABV01@@Z 1001ea99 f i libconcrt:SchedulerBase.obj
 0001:0001dab4       ??0improper_scheduler_reference@Concurrency@@QAE@ABV01@@Z 1001eab4 f i libconcrt:SchedulerBase.obj
 0001:0001dacf       ??1?$Hash@PAV_TaskCollection@details@Concurrency@@PAV123@@details@Concurrency@@QAE@XZ 1001eacf f i libconcrt:ContextBase.obj
 0001:0001dacf       ??1?$Hash@II@details@Concurrency@@QAE@XZ 1001eacf f i libconcrt:SchedulerBase.obj
 0001:0001dae2       ??1?$ListArray@VExternalStatistics@details@Concurrency@@@details@Concurrency@@QAE@XZ 1001eae2 f i libconcrt:SchedulerBase.obj
 0001:0001db5c       ??1?$ListArray@VScheduleGroupBase@details@Concurrency@@@details@Concurrency@@QAE@XZ 1001eb5c f i libconcrt:SchedulerBase.obj
 0001:0001dbd3       ??1NumaInformation@SchedulerBase@details@Concurrency@@QAE@XZ 1001ebd3 f i libconcrt:SchedulerBase.obj
 0001:0001dbea       ??1QuickBitSet@details@Concurrency@@QAE@XZ 1001ebea f i libconcrt:SchedulerBase.obj
 0001:0001dbf4       ??1ReferenceCountedQuickBitSet@details@Concurrency@@QAE@XZ 1001ebf4 f i libconcrt:SchedulerBase.obj
 0001:0001dc0b       ??1ScheduleGroup@Concurrency@@MAE@XZ 1001ec0b f i libconcrt:SchedulerBase.obj
 0001:0001dc12       ??1Scheduler@Concurrency@@MAE@XZ 1001ec12 f i libconcrt:SchedulerBase.obj
 0001:0001dc19       ??1SchedulerBase@details@Concurrency@@UAE@XZ 1001ec19 f   libconcrt:SchedulerBase.obj
 0001:0001dcd4       ??A?$ListArray@VExternalStatistics@details@Concurrency@@@details@Concurrency@@QBEPAVExternalStatistics@12@H@Z 1001ecd4 f i libconcrt:SchedulerBase.obj
 0001:0001dcd4       ??A?$ListArray@VScheduleGroupSegmentBase@details@Concurrency@@@details@Concurrency@@QBEPAVScheduleGroupSegmentBase@12@H@Z 1001ecd4 f i libconcrt:SchedulerBase.obj
 0001:0001dcd4       ??A?$ListArray@VVirtualProcessor@details@Concurrency@@@details@Concurrency@@QBEPAVVirtualProcessor@12@H@Z 1001ecd4 f i libconcrt:SchedulerBase.obj
 0001:0001dcd4       ??A?$ListArray@U?$ListArrayInlineLink@VWorkQueue@details@Concurrency@@@details@Concurrency@@@details@Concurrency@@QBEPAU?$ListArrayInlineLink@VWorkQueue@details@Concurrency@@@12@H@Z 1001ecd4 f i libconcrt:ScheduleGroupBase.obj
 0001:0001dcd4       ??A?$ListArray@VWorkQueue@details@Concurrency@@@details@Concurrency@@QBEPAVWorkQueue@12@H@Z 1001ecd4 f i libconcrt:ScheduleGroupBase.obj
 0001:0001dd1c       ??_ENumaInformation@SchedulerBase@details@Concurrency@@QAEPAXI@Z 1001ed1c f i libconcrt:SchedulerBase.obj
 0001:0001dd9f       ??_EFairScheduleGroupSegment@details@Concurrency@@UAEPAXI@Z 1001ed9f f i libconcrt:SchedulerBase.obj
 0001:0001dd9f       ??_ECacheLocalScheduleGroupSegment@details@Concurrency@@UAEPAXI@Z 1001ed9f f i libconcrt:SchedulerBase.obj
 0001:0001dd9f       ??_GCacheLocalScheduleGroupSegment@details@Concurrency@@UAEPAXI@Z 1001ed9f f i libconcrt:SchedulerBase.obj
 0001:0001dd9f       ??_GFairScheduleGroupSegment@details@Concurrency@@UAEPAXI@Z 1001ed9f f i libconcrt:SchedulerBase.obj
 0001:0001ddc4       ??_GFairScheduleGroup@details@Concurrency@@UAEPAXI@Z 1001edc4 f i libconcrt:SchedulerBase.obj
 0001:0001ddc4       ??_EFairScheduleGroup@details@Concurrency@@UAEPAXI@Z 1001edc4 f i libconcrt:SchedulerBase.obj
 0001:0001dde7       ??_ERealizedChore@details@Concurrency@@UAEPAXI@Z 1001ede7 f i libconcrt:SchedulerBase.obj
 0001:0001dde7       ??_GRealizedChore@details@Concurrency@@UAEPAXI@Z 1001ede7 f i libconcrt:SchedulerBase.obj
 0001:0001de0a       ??_EScheduleGroup@Concurrency@@MAEPAXI@Z 1001ee0a f i libconcrt:SchedulerBase.obj
 0001:0001de0a       ??_GScheduleGroup@Concurrency@@MAEPAXI@Z 1001ee0a f i libconcrt:SchedulerBase.obj
 0001:0001de2d       ??_GScheduler@Concurrency@@MAEPAXI@Z 1001ee2d f i libconcrt:SchedulerBase.obj
 0001:0001de2d       ??_EScheduler@Concurrency@@MAEPAXI@Z 1001ee2d f i libconcrt:SchedulerBase.obj
 0001:0001de50       ??_GSchedulerBase@details@Concurrency@@UAEPAXI@Z 1001ee50 f i libconcrt:SchedulerBase.obj
 0001:0001de50       ??_ESchedulerBase@details@Concurrency@@UAEPAXI@Z 1001ee50 f i libconcrt:SchedulerBase.obj
 0001:0001de75       ??_GSubAllocator@details@Concurrency@@QAEPAXI@Z 1001ee75 f i libconcrt:SchedulerBase.obj
 0001:0001ded7       ??_G_Chore@details@Concurrency@@MAEPAXI@Z 1001eed7 f i libconcrt:SchedulerBase.obj
 0001:0001ded7       ??_E_Chore@details@Concurrency@@MAEPAXI@Z 1001eed7 f i libconcrt:SchedulerBase.obj
 0001:0001defa       ?Add@?$ListArray@VScheduleGroupBase@details@Concurrency@@@details@Concurrency@@QAEHPAVScheduleGroupBase@23@@Z 1001eefa f i libconcrt:SchedulerBase.obj
 0001:0001e05d       ?AddContext@SchedulerBase@details@Concurrency@@QAEXPAVInternalContextBase@23@@Z 1001f05d f   libconcrt:SchedulerBase.obj
 0001:0001e090       ?AddHead@?$List@UBoostedObject@details@Concurrency@@VNoCount@CollectionTypes@23@@details@Concurrency@@QAEXPAUBoostedObject@23@@Z 1001f090 f i libconcrt:SchedulerBase.obj
 0001:0001e0c9       ?AddTail@?$List@VWaitNode@SchedulerBase@details@Concurrency@@VNoCount@CollectionTypes@34@@details@Concurrency@@QAEXPAVWaitNode@SchedulerBase@23@@Z 1001f0c9 f i libconcrt:SchedulerBase.obj
 0001:0001e0f6       ?AddTail@?$SafeRWList@VWaitNode@SchedulerBase@details@Concurrency@@VNoCount@CollectionTypes@34@V_ReaderWriterLock@34@@details@Concurrency@@QAEXPAVWaitNode@SchedulerBase@23@@Z 1001f0f6 f i libconcrt:SchedulerBase.obj
 0001:0001e12a       ?AddVirtualProcessors@SchedulerBase@details@Concurrency@@IAEXPAPAUIVirtualProcessorRoot@3@I@Z 1001f12a f   libconcrt:SchedulerBase.obj
 0001:0001e1e3       ?AllocateSegment@CacheLocalScheduleGroup@details@Concurrency@@MAEPAVScheduleGroupSegmentBase@23@PAVSchedulingRing@23@PAVlocation@3@@Z 1001f1e3 f i libconcrt:SchedulerBase.obj
 0001:0001e21e       ?AllocateSegment@FairScheduleGroup@details@Concurrency@@MAEPAVScheduleGroupSegmentBase@23@PAVSchedulingRing@23@PAVlocation@3@@Z 1001f21e f i libconcrt:SchedulerBase.obj
 0001:0001e26a       ?Attach@SchedulerBase@details@Concurrency@@UAEXXZ 1001f26a f   libconcrt:SchedulerBase.obj
 0001:0001e2b2       ?AttachExternalContext@SchedulerBase@details@Concurrency@@AAEPAVExternalContextBase@23@_N@Z 1001f2b2 f   libconcrt:SchedulerBase.obj
 0001:0001e31d       ?AttemptSchedulerSweep@SchedulerBase@details@Concurrency@@IAEXXZ 1001f31d f   libconcrt:SchedulerBase.obj
 0001:0001e340       ?CancelAllContexts@SchedulerBase@details@Concurrency@@MAEXXZ 1001f340 f   libconcrt:SchedulerBase.obj
 0001:0001e37d       ?ChangeThrottlingTimer@SchedulerBase@details@Concurrency@@AAEXK@Z 1001f37d f   libconcrt:SchedulerBase.obj
 0001:0001e3dd       ?CheckForDeletion@?$ListArray@VExternalStatistics@details@Concurrency@@@details@Concurrency@@AAEXXZ 1001f3dd f i libconcrt:SchedulerBase.obj
 0001:0001e40b       ?CheckForDeletion@?$ListArray@VScheduleGroupBase@details@Concurrency@@@details@Concurrency@@AAEXXZ 1001f40b f i libconcrt:SchedulerBase.obj
 0001:0001e439       ?CheckForDeletionBridge@?$ListArray@VExternalStatistics@details@Concurrency@@@details@Concurrency@@CAXPAV123@@Z 1001f439 f i libconcrt:SchedulerBase.obj
 0001:0001e445       ?CheckForDeletionBridge@?$ListArray@VScheduleGroupBase@details@Concurrency@@@details@Concurrency@@CAXPAV123@@Z 1001f445 f i libconcrt:SchedulerBase.obj
 0001:0001e451       ?CheckOneShotStaticDestruction@SchedulerBase@details@Concurrency@@SAXXZ 1001f451 f   libconcrt:SchedulerBase.obj
 0001:0001e477       ?CheckStaticConstruction@SchedulerBase@details@Concurrency@@CAXXZ 1001f477 f   libconcrt:SchedulerBase.obj
 0001:0001e4d3       ?Cleanup@SchedulerBase@details@Concurrency@@AAEXXZ 1001f4d3 f   libconcrt:SchedulerBase.obj
 0001:0001e582       ?CommitSafePoints@SchedulerBase@details@Concurrency@@QAEXXZ 1001f582 f   libconcrt:SchedulerBase.obj
 0001:0001e5c5       ?CommitToVersion@SchedulerBase@details@Concurrency@@AAEXK@Z 1001f5c5 f   libconcrt:SchedulerBase.obj
 0001:0001e65d       ?ComputeSafePointCommitVersion@SchedulerBase@details@Concurrency@@AAEKXZ 1001f65d f   libconcrt:SchedulerBase.obj
 0001:0001e6e8       ?CopyFrom@QuickBitSet@details@Concurrency@@IAEXABV123@@Z 1001f6e8 f i libconcrt:SchedulerBase.obj
 0001:0001e725       ?CreateContextFromDefaultScheduler@SchedulerBase@details@Concurrency@@SAPAVContextBase@23@XZ 1001f725 f   libconcrt:SchedulerBase.obj
 0001:0001e750       ?CreateScheduleGroup@SchedulerBase@details@Concurrency@@UAEPAVScheduleGroup@3@AAVlocation@3@@Z 1001f750 f i libconcrt:SchedulerBase.obj
 0001:0001e759       ?CreateScheduleGroup@SchedulerBase@details@Concurrency@@UAEPAVScheduleGroup@3@XZ 1001f759 f i libconcrt:SchedulerBase.obj
 0001:0001e77a       ?CreateWithoutInitializing@SchedulerBase@details@Concurrency@@SAPAV123@ABVSchedulerPolicy@3@@Z 1001f77a f   libconcrt:SchedulerBase.obj
 0001:0001e7a0       ?DecrementInternalContextCount@SchedulerBase@details@Concurrency@@QAEXXZ 1001f7a0 f   libconcrt:SchedulerBase.obj
 0001:0001e7bb       ?DeferredGetInternalContext@SchedulerBase@details@Concurrency@@QAEXXZ 1001f7bb f   libconcrt:SchedulerBase.obj
 0001:0001e7d9       ?DeleteElements@?$ListArray@VExternalStatistics@details@Concurrency@@@details@Concurrency@@AAEXPAU_SINGLE_LIST_ENTRY@@@Z 1001f7d9 f i libconcrt:SchedulerBase.obj
 0001:0001e7fa       ?DeleteElements@?$ListArray@VScheduleGroupBase@details@Concurrency@@@details@Concurrency@@AAEXPAU_SINGLE_LIST_ENTRY@@@Z 1001f7fa f i libconcrt:SchedulerBase.obj
 0001:0001e818       ?Dequeue@?$SQueue@VInternalContextBase@details@Concurrency@@@details@Concurrency@@QAEPAVInternalContextBase@23@XZ 1001f818 f i libconcrt:SchedulerBase.obj
 0001:0001e835       ?Dequeue@?$SafeSQueue@VInternalContextBase@details@Concurrency@@V_HyperNonReentrantLock@23@@details@Concurrency@@QAEPAVInternalContextBase@23@XZ 1001f835 f i libconcrt:SchedulerBase.obj
 0001:0001e869       ?DestroySchedulerEventHandlers@SchedulerBase@details@Concurrency@@MAEXXZ 1001f869 f   libconcrt:SchedulerBase.obj
 0001:0001e8b8       ?DetachExternalContext@SchedulerBase@details@Concurrency@@AAEXPAVExternalContextBase@23@_N@Z 1001f8b8 f   libconcrt:SchedulerBase.obj
 0001:0001e8fb       ?FastCurrentContext@SchedulerBase@details@Concurrency@@SAPAVContextBase@23@XZ 1001f8fb f   libconcrt:SchedulerBase.obj
 0001:0001e908       ?FastCurrentScheduler@SchedulerBase@details@Concurrency@@SAPAV123@XZ 1001f908 f   libconcrt:SchedulerBase.obj
 0001:0001e91b       ?Fill@QuickBitSet@details@Concurrency@@QAEXXZ 1001f91b f i libconcrt:SchedulerBase.obj
 0001:0001e938       ?Finalize@SchedulerBase@details@Concurrency@@AAEXXZ 1001f938 f   libconcrt:SchedulerBase.obj
 0001:0001ea61       ?FindCurrentNode@SchedulerBase@details@Concurrency@@QAEPAVSchedulingNode@23@XZ 1001fa61 f   libconcrt:SchedulerBase.obj
 0001:0001ea9c       ?FindNodeByLocation@SchedulerBase@details@Concurrency@@QAEPAVSchedulingNode@23@PAVlocation@3@@Z 1001fa9c f   libconcrt:SchedulerBase.obj
 0001:0001eaf7       ?FindScheduleGroupSegment@SchedulingRing@details@Concurrency@@AAEPAVScheduleGroupSegmentBase@23@HHPAHPAV?$ListArray@VScheduleGroupSegmentBase@details@Concurrency@@@23@@Z 1001faf7 f i libconcrt:SchedulerBase.obj
 0001:0001eb22       ?FindVirtualProcessor@SchedulingNode@details@Concurrency@@QAEPAVVirtualProcessor@23@HHPAH@Z 1001fb22 f i libconcrt:SchedulerBase.obj
 0001:0001eb51       ?FoundAvailableVirtualProcessor@SchedulerBase@details@Concurrency@@QAE_NAAVClaimTicket@VirtualProcessor@23@Vlocation@3@K@Z 1001fb51 f   libconcrt:SchedulerBase.obj
 0001:0001ec4b       ?FoundBlockedContexts@SchedulerBase@details@Concurrency@@AAE_NXZ 1001fc4b f   libconcrt:SchedulerBase.obj
 0001:0001ec75       ?FoundUnstartedChores@SchedulerBase@details@Concurrency@@AAE_NXZ 1001fc75 f   libconcrt:SchedulerBase.obj
 0001:0001ed3e       ?GetAnonymousScheduleGroupSegment@SchedulerBase@details@Concurrency@@QAEPAVScheduleGroupSegmentBase@23@XZ 1001fd3e f   libconcrt:SchedulerBase.obj
 0001:0001ed47       ?GetBitSet@SchedulerBase@details@Concurrency@@QAE?AVQuickBitSet@23@PBVlocation@3@@Z 1001fd47 f   libconcrt:SchedulerBase.obj
 0001:0001edfd       ?GetDefaultScheduler@SchedulerBase@details@Concurrency@@CAPAV123@XZ 1001fdfd f   libconcrt:SchedulerBase.obj
 0001:0001ee99       ?GetExternalContext@SchedulerBase@details@Concurrency@@AAEPAVExternalContextBase@23@_N@Z 1001fe99 f   libconcrt:SchedulerBase.obj
 0001:0001eef9       ?GetInternalContext@SchedulerBase@details@Concurrency@@QAEPAVInternalContextBase@23@_N@Z 1001fef9 f   libconcrt:SchedulerBase.obj
 0001:0001f019       ?GetNewContextId@SchedulerBase@details@Concurrency@@QAEIXZ 10020019 f   libconcrt:SchedulerBase.obj
 0001:0001f026       ?GetNewScheduleGroupId@SchedulerBase@details@Concurrency@@QAEIXZ 10020026 f   libconcrt:SchedulerBase.obj
 0001:0001f033       ?GetNewWorkQueueId@SchedulerBase@details@Concurrency@@SAIXZ 10020033 f   libconcrt:SchedulerBase.obj
 0001:0001f040       ?GetNextPriorityObject@SchedulerBase@details@Concurrency@@QAEPAUBoostedObject@23@XZ 10020040 f   libconcrt:SchedulerBase.obj
 0001:0001f075       ?GetNextScheduleGroupSegment@SchedulingRing@details@Concurrency@@AAEPAVScheduleGroupSegmentBase@23@PAHHPAV?$ListArray@VScheduleGroupSegmentBase@details@Concurrency@@@23@@Z 10020075 f i libconcrt:SchedulerBase.obj
 0001:0001f0b1       ?GetNextSchedulingRing@SchedulerBase@details@Concurrency@@QAEPAVSchedulingRing@23@PBV423@PAV423@@Z 100200b1 f   libconcrt:SchedulerBase.obj
 0001:0001f0de       ?GetNextSchedulingRing@SchedulerBase@details@Concurrency@@QAEPAVSchedulingRing@23@XZ 100200de f   libconcrt:SchedulerBase.obj
 0001:0001f0ff       ?GetNextValidSchedulingRingIndex@SchedulerBase@details@Concurrency@@AAEHH@Z 100200ff f   libconcrt:SchedulerBase.obj
 0001:0001f121       ?GetNextVirtualProcessor@SchedulingNode@details@Concurrency@@QAEPAVVirtualProcessor@23@PAHH@Z 10020121 f i libconcrt:SchedulerBase.obj
 0001:0001f156       ?GetNumberOfVirtualProcessors@SchedulerBase@details@Concurrency@@UBEIXZ 10020156 f i libconcrt:SchedulerBase.obj
 0001:0001f15a       ?GetPolicy@SchedulerBase@details@Concurrency@@UBE?AVSchedulerPolicy@3@XZ 1002015a f   libconcrt:SchedulerBase.obj
 0001:0001f177       ?GetRealizedChore@SchedulerBase@details@Concurrency@@QAEPAVRealizedChore@23@P6AXPAX@Z0@Z 10020177 f   libconcrt:SchedulerBase.obj
 0001:0001f1d6       ?GetReservedContext@SchedulerBase@details@Concurrency@@QAEPAVInternalContextBase@23@XZ 100201d6 f i libconcrt:SchedulerBase.obj
 0001:0001f1ed       ?GetRunnableContext@CacheLocalScheduleGroupSegment@details@Concurrency@@EAEPAVInternalContextBase@23@XZ 100201ed f i libconcrt:SchedulerBase.obj
 0001:0001f1ed       ?GetRunnableContext@FairScheduleGroupSegment@details@Concurrency@@EAEPAVInternalContextBase@23@XZ 100201ed f i libconcrt:SchedulerBase.obj
 0001:0001f200       ?GetSubAllocator@SchedulerBase@details@Concurrency@@SAPAVSubAllocator@23@_N@Z 10020200 f   libconcrt:SchedulerBase.obj
 0001:0001f280       ?GetValidSchedulingRingIndex@SchedulerBase@details@Concurrency@@AAEHH@Z 10020280 f   libconcrt:SchedulerBase.obj
 0001:0001f2a3       ?Grow@QuickBitSet@details@Concurrency@@QAEXI@Z 100202a3 f i libconcrt:SchedulerBase.obj
 0001:0001f324       ?Grow@ReferenceCountedQuickBitSet@details@Concurrency@@QAEXI@Z 10020324 f i libconcrt:SchedulerBase.obj
 0001:0001f397       ?HasCompletedShutdown@SchedulerBase@details@Concurrency@@QAE_NXZ 10020397 f   libconcrt:SchedulerBase.obj
 0001:0001f3aa       ?HashValue@?$Hash@PAV_TaskCollection@details@Concurrency@@PAV123@@details@Concurrency@@CAIABQAV_TaskCollection@23@H@Z 100203aa f i libconcrt:ContextBase.obj
 0001:0001f3aa       ?HashValue@?$Hash@II@details@Concurrency@@CAIABIH@Z 100203aa f i libconcrt:SchedulerBase.obj
 0001:0001f3d6       ?Id@SchedulerBase@details@Concurrency@@UBEIXZ 100203d6 f i libconcrt:SchedulerBase.obj
 0001:0001f3dd       ?Initialize@SchedulerBase@details@Concurrency@@AAEXXZ 100203dd f   libconcrt:SchedulerBase.obj
 0001:0001f880       ?InitializeSchedulerEventHandlers@SchedulerBase@details@Concurrency@@MAEXXZ 10020880 f   libconcrt:SchedulerBase.obj
 0001:0001f888       ?Insert@?$Hash@II@details@Concurrency@@QAEPAUListNode@123@ABI0@Z 10020888 f i libconcrt:SchedulerBase.obj
 0001:0001f888       ?Insert@?$Hash@PAV_TaskCollection@details@Concurrency@@PAV123@@details@Concurrency@@QAEPAUListNode@123@ABQAV_TaskCollection@23@0@Z 10020888 f i libconcrt:TaskCollection.obj
 0001:0001f8f2       ?InternalCreateScheduleGroup@SchedulerBase@details@Concurrency@@AAEPAVScheduleGroup@3@PAVlocation@3@@Z 100208f2 f   libconcrt:SchedulerBase.obj
 0001:0001f9b8       ?InternalRelease@ScheduleGroupBase@details@Concurrency@@IAEJXZ 100209b8 f i libconcrt:SchedulerBase.obj
 0001:0001f9f1       ?Intersects@QuickBitSet@details@Concurrency@@QBE_NABV123@@Z 100209f1 f i libconcrt:SchedulerBase.obj
 0001:0001fa2f       ?InvokeAtNextSafePoint@SafePointInvocation@details@Concurrency@@QAEXP6AXPAX@Z0PAVSchedulerBase@23@@Z 10020a2f f   libconcrt:SchedulerBase.obj
 0001:0001fa6a       ?InvokeOnSafePoint@SchedulerBase@details@Concurrency@@AAEXPAVSafePointInvocation@23@@Z 10020a6a f   libconcrt:SchedulerBase.obj
 0001:0001faae       ?IsActive@ExternalStatistics@details@Concurrency@@QAE_NXZ 10020aae f i libconcrt:SchedulerBase.obj
 0001:0001facb       ?IsAvailableLocation@SchedulerBase@details@Concurrency@@UBE_NABVlocation@3@@Z 10020acb f   libconcrt:SchedulerBase.obj
 0001:0001fb01       ?MailChore@FairScheduleGroup@details@Concurrency@@UAE?AVSlot@?$Mailbox@V_UnrealizedChore@details@Concurrency@@@23@PAV_UnrealizedChore@23@PAVlocation@3@PAPAVScheduleGroupSegmentBase@23@@Z 10020b01 f i libconcrt:SchedulerBase.obj
 0001:0001fb12       ?MarkSafePoint@SchedulerBase@details@Concurrency@@QAE_NPAVSafePointMarker@23@@Z 10020b12 f   libconcrt:SchedulerBase.obj
 0001:0001fb34       ?NotifyThrottledContext@SchedulerBase@details@Concurrency@@AAE_NPAVInternalContextBase@23@@Z 10020b34 f   libconcrt:SchedulerBase.obj
 0001:0001fbbe       ?OneShotStaticConstruction@SchedulerBase@details@Concurrency@@CAXXZ 10020bbe f   libconcrt:SchedulerBase.obj
 0001:0001fbd2       ?OneShotStaticDestruction@SchedulerBase@details@Concurrency@@CAXXZ 10020bd2 f   libconcrt:SchedulerBase.obj
 0001:0001fbeb       ?PerformServiceScan@SchedulerBase@details@Concurrency@@AAEX_K@Z 10020beb f   libconcrt:SchedulerBase.obj
 0001:0001fd96       ?PhaseOneShutdown@SchedulerBase@details@Concurrency@@AAEXXZ 10020d96 f   libconcrt:SchedulerBase.obj
 0001:0001fe0c       ?PhaseTwoShutdown@SchedulerBase@details@Concurrency@@AAEXXZ 10020e0c f   libconcrt:SchedulerBase.obj
 0001:0001fea1       ?PublishNewDataVersion@SchedulerBase@details@Concurrency@@AAEKXZ 10020ea1 f i libconcrt:SchedulerBase.obj
 0001:0001feb9       ?Push@?$LockFreePushStack@VContextNode@SchedulerBase@details@Concurrency@@@details@Concurrency@@QAEXPAVContextNode@SchedulerBase@23@@Z 10020eb9 f i libconcrt:SchedulerBase.obj
 0001:0001fed7       ?PushRunnableToInactive@SchedulerBase@details@Concurrency@@UAE_NPAVInternalContextBase@23@Vlocation@3@@Z 10020ed7 f   libconcrt:SchedulerBase.obj
 0001:0001ff3f       ?Reallocate@QuickBitSet@details@Concurrency@@IAEXI@Z 10020f3f f i libconcrt:SchedulerBase.obj
 0001:0001ff76       ?Reference@ScheduleGroupBase@details@Concurrency@@UAEIXZ 10020f76 f i libconcrt:SchedulerBase.obj
 0001:0001ff86       ?Reference@SchedulerBase@details@Concurrency@@UAEIXZ 10020f86 f   libconcrt:SchedulerBase.obj
 0001:0001fff1       ?ReferenceForAttach@SchedulerBase@details@Concurrency@@IAEXXZ 10020ff1 f   libconcrt:SchedulerBase.obj
 0001:0002000f       ?RegisterShutdownEvent@SchedulerBase@details@Concurrency@@UAEXPAX@Z 1002100f f   libconcrt:SchedulerBase.obj
 0001:000200b0       ?Release@ScheduleGroupBase@details@Concurrency@@UAEIXZ 100210b0 f i libconcrt:SchedulerBase.obj
 0001:000200b5       ?Release@SchedulerBase@details@Concurrency@@UAEIXZ 100210b5 f   libconcrt:SchedulerBase.obj
 0001:000200cd       ?ReleaseExternalContext@SchedulerBase@details@Concurrency@@AAEXPAVExternalContextBase@23@@Z 100210cd f   libconcrt:SchedulerBase.obj
 0001:0002010f       ?ReleaseForDetach@SchedulerBase@details@Concurrency@@IAEXXZ 1002110f f   libconcrt:SchedulerBase.obj
 0001:0002012d       ?ReleaseInternalContext@SchedulerBase@details@Concurrency@@QAEXPAVInternalContextBase@23@_N@Z 1002112d f   libconcrt:SchedulerBase.obj
 0001:00020176       ?ReleaseRealizedChore@SchedulerBase@details@Concurrency@@QAEXPAVRealizedChore@23@@Z 10021176 f   libconcrt:SchedulerBase.obj
 0001:000201c5       ?ReleaseReservedContexts@SchedulerBase@details@Concurrency@@QAEXXZ 100211c5 f   libconcrt:SchedulerBase.obj
 0001:00020230       ?ReleaseSuspendedVirtualProcessors@SchedulerBase@details@Concurrency@@AAEXJ@Z 10021230 f   libconcrt:SchedulerBase.obj
 0001:0002024e       ?Remove@?$List@UBoostedObject@details@Concurrency@@VNoCount@CollectionTypes@23@@details@Concurrency@@QAEXPAUBoostedObject@23@@Z 1002124e f i libconcrt:SchedulerBase.obj
 0001:00020280       ?Remove@?$ListArray@VExternalStatistics@details@Concurrency@@@details@Concurrency@@QAE_NPAVExternalStatistics@23@H_N@Z 10021280 f i libconcrt:SchedulerBase.obj
 0001:00020385       ?Remove@?$ListArray@VScheduleGroupBase@details@Concurrency@@@details@Concurrency@@QAE_NPAVScheduleGroupBase@23@H_N@Z 10021385 f i libconcrt:SchedulerBase.obj
 0001:0002048a       ?RemoveHead@?$List@UBoostedObject@details@Concurrency@@VNoCount@CollectionTypes@23@@details@Concurrency@@QAEPAUBoostedObject@23@XZ 1002148a f i libconcrt:SchedulerBase.obj
 0001:000204b2       ?RemoveHead@?$List@VWaitNode@SchedulerBase@details@Concurrency@@VNoCount@CollectionTypes@34@@details@Concurrency@@QAEPAVWaitNode@SchedulerBase@23@XZ 100214b2 f i libconcrt:SchedulerBase.obj
 0001:000204d6       ?RemoveHead@?$SafeRWList@VWaitNode@SchedulerBase@details@Concurrency@@VNoCount@CollectionTypes@34@V_ReaderWriterLock@34@@details@Concurrency@@QAEPAVWaitNode@SchedulerBase@23@XZ 100214d6 f i libconcrt:SchedulerBase.obj
 0001:0002050a       ?RemovePrioritizedObject@SchedulerBase@details@Concurrency@@QAEXPAUBoostedObject@23@@Z 1002150a f   libconcrt:SchedulerBase.obj
 0001:00020546       ?RemoveScheduleGroup@SchedulerBase@details@Concurrency@@QAEXPAVScheduleGroupBase@23@@Z 10021546 f   libconcrt:SchedulerBase.obj
 0001:0002055e       ?RemoveSegments@FairScheduleGroup@details@Concurrency@@MAEXXZ 1002155e f i libconcrt:SchedulerBase.obj
 0001:0002056c       ?RemoveVirtualProcessors@SchedulerBase@details@Concurrency@@IAEXPAPAUIVirtualProcessorRoot@3@I@Z 1002156c f   libconcrt:SchedulerBase.obj
 0001:00020668       ?Resurrect@SchedulerBase@details@Concurrency@@AAEXXZ 10021668 f   libconcrt:SchedulerBase.obj
 0001:000206af       ?ReturnSubAllocator@SchedulerBase@details@Concurrency@@SAXPAVSubAllocator@23@@Z 100216af f   libconcrt:SchedulerBase.obj
 0001:000206f1       ?SafeFastCurrentContext@SchedulerBase@details@Concurrency@@SAPAVContextBase@23@XZ 100216f1 f   libconcrt:SchedulerBase.obj
 0001:0002070d       ?SafeReference@SchedulerBase@details@Concurrency@@AAE_NXZ 1002170d f   libconcrt:SchedulerBase.obj
 0001:0002072f       ?ScheduleTask@SchedulerBase@details@Concurrency@@UAEXP6AXPAX@Z0@Z 1002172f f   libconcrt:SchedulerBase.obj
 0001:00020778       ?ScheduleTask@SchedulerBase@details@Concurrency@@UAEXP6AXPAX@Z0AAVlocation@3@@Z 10021778 f   libconcrt:SchedulerBase.obj
 0001:000207ae       ?SetNextSchedulingRing@SchedulerBase@details@Concurrency@@QAEXPAVSchedulingRing@23@@Z 100217ae f   libconcrt:SchedulerBase.obj
 0001:000207d3       ?SpinUntilBitsReset@details@Concurrency@@YAJPCJJ@Z 100217d3 f i libconcrt:SchedulerBase.obj
 0001:00020806       ?SpinUntilBitsSet@details@Concurrency@@YAJPCJJ@Z 10021806 f i libconcrt:SchedulerBase.obj
 0001:00020842       ?StartupNewVirtualProcessor@SchedulerBase@details@Concurrency@@UAEXPAVScheduleGroupSegmentBase@23@Vlocation@3@@Z 10021842 f i libconcrt:SchedulerBase.obj
 0001:0002086a       ?StartupVirtualProcessor@SchedulerBase@details@Concurrency@@QAE_NPAVScheduleGroupSegmentBase@23@Vlocation@3@K@Z 1002186a f   libconcrt:SchedulerBase.obj
 0001:000208c1       ?StaticConstruction@SchedulerBase@details@Concurrency@@CAXXZ 100218c1 f   libconcrt:SchedulerBase.obj
 0001:000208cf       ?StaticDestruction@SchedulerBase@details@Concurrency@@CAXXZ 100218cf f   libconcrt:SchedulerBase.obj
 0001:00020925       ?Statistics@SchedulerBase@details@Concurrency@@IAEXPAI00@Z 10021925 f   libconcrt:SchedulerBase.obj
 0001:00020a63       ?SweepSchedulerForFinalize@SchedulerBase@details@Concurrency@@AAEXXZ 10021a63 f   libconcrt:SchedulerBase.obj
 0001:00020af9       ?ThrottlerDispatch@SchedulerBase@details@Concurrency@@AAEXXZ 10021af9 f   libconcrt:SchedulerBase.obj
 0001:00020c10       ?ThrottlerDispatchBridge@SchedulerBase@details@Concurrency@@CGXPAU_TP_CALLBACK_INSTANCE@@PAXPAU_TP_TIMER@@@Z 10021c10 f i libconcrt:SchedulerBase.obj
 0001:00020c1f       ?ThrottlerDispatchBridgeXP@SchedulerBase@details@Concurrency@@CGXPAXE@Z 10021c1f f i libconcrt:SchedulerBase.obj
 0001:00020c2e       ?ThrottlerTrampoline@SchedulerBase@details@Concurrency@@CGXPAXE@Z 10021c2e f   libconcrt:SchedulerBase.obj
 0001:00020c6b       ?ThrottlingTime@SchedulerBase@details@Concurrency@@QAEKK@Z 10021c6b f   libconcrt:SchedulerBase.obj
 0001:00020d02       ?ThrowSchedulerEvent@SchedulerBase@details@Concurrency@@CAXW4ConcRT_EventType@3@EI@Z 10021d02 f   libconcrt:SchedulerBase.obj
 0001:00020d6f       ?TraceSchedulerEvent@SchedulerBase@details@Concurrency@@AAEXW4ConcRT_EventType@3@EI@Z 10021d6f f i libconcrt:SchedulerBase.obj
 0001:00020d99       ?TriggerCommitSafePoints@SchedulerBase@details@Concurrency@@QAEXPAVSafePointMarker@23@@Z 10021d99 f   libconcrt:SchedulerBase.obj
 0001:00020dce       ?TypeOfWorkPending@SchedulerBase@details@Concurrency@@MAE?AW4PendingWorkType@123@XZ 10021dce f   libconcrt:SchedulerBase.obj
 0001:00020dfc       ?UpdateCommitVersion@SchedulerBase@details@Concurrency@@AAEKK@Z 10021dfc f   libconcrt:SchedulerBase.obj
 0001:00020e44       ?UpdatePendingVersion@SchedulerBase@details@Concurrency@@AAEKXZ 10021e44 f   libconcrt:SchedulerBase.obj
 0001:00020e76       ?VirtualProcessorActive@SchedulerBase@details@Concurrency@@QAE_N_N@Z 10021e76 f   libconcrt:SchedulerBase.obj
 0001:00020f25       ?VirtualProcessorActiveNotification@SchedulerBase@details@Concurrency@@MAEX_NJ@Z 10021f25 f i libconcrt:SchedulerBase.obj
 0001:00020f25       ?NotifyResourcesExternallyBusy@ThreadScheduler@details@Concurrency@@UAEXPAPAUIVirtualProcessorRoot@3@I@Z 10021f25 f i libconcrt:ThreadScheduler.obj
 0001:00020f25       ?NotifyResourcesExternallyIdle@ThreadScheduler@details@Concurrency@@UAEXPAPAUIVirtualProcessorRoot@3@I@Z 10021f25 f i libconcrt:ThreadScheduler.obj
 0001:00020f28       ?VirtualProcessorIdle@SchedulerBase@details@Concurrency@@QAEX_N@Z 10021f28 f   libconcrt:SchedulerBase.obj
 0001:00020f87       ?Wipe@?$Hash@PAV_TaskCollection@details@Concurrency@@PAV123@@details@Concurrency@@QAEXXZ 10021f87 f i libconcrt:ContextBase.obj
 0001:00020f87       ?Wipe@?$Hash@II@details@Concurrency@@QAEXXZ 10021f87 f i libconcrt:SchedulerBase.obj
 0001:00020fd4       ?_Assign@location@Concurrency@@QAEXABV12@@Z 10021fd4 f i libconcrt:SchedulerBase.obj
 0001:00021009       ??0MultiWaitBlock@details@Concurrency@@QAE@I_N0@Z 10022009 f i libconcrt:event.obj
 0001:00021049       ??0MultiWaitBlockHolder@details@Concurrency@@QAE@_NI00@Z 10022049 f   libconcrt:event.obj
 0001:000210ff       ??0TimedSingleWaitBlock@details@Concurrency@@QAE@_N@Z 100220ff f i libconcrt:event.obj
 0001:0002112e       ??0WaitAnyBlock@details@Concurrency@@QAE@I_N0@Z 1002212e f i libconcrt:event.obj
 0001:00021156       ??0WaitBlock@details@Concurrency@@QAE@XZ 10022156 f i libconcrt:event.obj
 0001:00021176       ??0_Condition_variable@details@Concurrency@@QAE@XZ 10022176 f   libconcrt:event.obj
 0001:00021195       ??0event@Concurrency@@QAE@XZ 10022195 f   libconcrt:event.obj
 0001:000211b8       ??1?$_MallocaArrayHolder@PAVContext@Concurrency@@@details@Concurrency@@UAE@XZ 100221b8 f i libconcrt:event.obj
 0001:000211c8       ??1MultiWaitBlockHolder@details@Concurrency@@QAE@XZ 100221c8 f   libconcrt:event.obj
 0001:000211e2       ??1_Condition_variable@details@Concurrency@@QAE@XZ 100221e2 f   libconcrt:event.obj
 0001:00021230       ??1event@Concurrency@@QAE@XZ 10022230 f   libconcrt:event.obj
 0001:000212b4       ??_G?$_MallocaArrayHolder@PAVContext@Concurrency@@@details@Concurrency@@UAEPAXI@Z 100222b4 f i libconcrt:event.obj
 0001:000212b4       ??_E?$_MallocaArrayHolder@PAVContext@Concurrency@@@details@Concurrency@@UAEPAXI@Z 100222b4 f i libconcrt:event.obj
 0001:000212e0       ?Destroy@EventWaitNode@details@Concurrency@@QAEXXZ 100222e0 f i libconcrt:event.obj
 0001:000212f8       ?Destroy@TimedSingleWaitBlock@details@Concurrency@@UAEXXZ 100222f8 f   libconcrt:event.obj
 0001:00021311       ?Destroy@WaitAllBlock@details@Concurrency@@UAEXXZ 10022311 f   libconcrt:event.obj
 0001:00021316       ?DispatchEventTimer@MultiWaitBlock@details@Concurrency@@SGXPAU_TP_CALLBACK_INSTANCE@@PAXPAU_TP_TIMER@@@Z 10022316 f   libconcrt:event.obj
 0001:00021375       ?DispatchEventTimer@TimedSingleWaitBlock@details@Concurrency@@SGXPAU_TP_CALLBACK_INSTANCE@@PAXPAU_TP_TIMER@@@Z 10022375 f   libconcrt:event.obj
 0001:000213a7       ?DispatchEventTimerXP@MultiWaitBlock@details@Concurrency@@SGXPAXE@Z 100223a7 f   libconcrt:event.obj
 0001:000213fe       ?DispatchEventTimerXP@TimedSingleWaitBlock@details@Concurrency@@SGXPAXE@Z 100223fe f   libconcrt:event.obj
 0001:0002141f       ?GetSharedTimerQueue@details@Concurrency@@YAPAXXZ 1002241f f   libconcrt:event.obj
 0001:000214b5       ?NotifyCompletedNode@MultiWaitBlock@details@Concurrency@@QAEXXZ 100224b5 f   libconcrt:event.obj
 0001:000214ce       ?Reset@WaitAllBlock@details@Concurrency@@UAE_NXZ 100224ce f   libconcrt:event.obj
 0001:00021507       ?Satisfy@EventWaitNode@details@Concurrency@@QAE_NPAPAVContext@3@@Z 10022507 f i libconcrt:event.obj
 0001:00021528       ?Satisfy@SingleWaitBlock@details@Concurrency@@UAE_NPAPAVContext@3@PAVEventWaitNode@23@@Z 10022528 f   libconcrt:event.obj
 0001:00021584       ?Satisfy@TimedSingleWaitBlock@details@Concurrency@@UAE_NPAPAVContext@3@PAVEventWaitNode@23@@Z 10022584 f   libconcrt:event.obj
 0001:000215df       ?Satisfy@WaitAllBlock@details@Concurrency@@UAE_NPAPAVContext@3@PAVEventWaitNode@23@@Z 100225df f   libconcrt:event.obj
 0001:00021625       ?Satisfy@WaitAnyBlock@details@Concurrency@@UAE_NPAPAVContext@3@PAVEventWaitNode@23@@Z 10022625 f   libconcrt:event.obj
 0001:00021667       ?Set@StructuredEvent@details@Concurrency@@QAEXXZ 10022667 f   libconcrt:event.obj
 0001:000216ae       ?SingleSatisfy@MultiWaitBlock@details@Concurrency@@MAEXPAPAVContext@3@PAVEventWaitNode@23@@Z 100226ae f   libconcrt:event.obj
 0001:0002175d       ?Sweep@details@Concurrency@@YAPAVEventWaitNode@12@PAV312@_N@Z 1002275d f   libconcrt:event.obj
 0001:00021797       ?SweepResetNode@EventWaitNode@details@Concurrency@@QAE_NXZ 10022797 f i libconcrt:event.obj
 0001:000217af       ?SweepResetNode@WaitAllBlock@details@Concurrency@@UAE_NXZ 100227af f   libconcrt:event.obj
 0001:000217e1       ?Destroy@SingleWaitBlock@details@Concurrency@@UAEXXZ 100227e1 f   libconcrt:event.obj
 0001:000217e1       ?SweepResetNode@WaitAnyBlock@details@Concurrency@@UAE_NXZ 100227e1 f   libconcrt:event.obj
 0001:000217e1       ?SweepResetNode@SingleWaitBlock@details@Concurrency@@UAE_NXZ 100227e1 f   libconcrt:event.obj
 0001:000217e1       ?Reset@WaitAnyBlock@details@Concurrency@@UAE_NXZ 100227e1 f   libconcrt:event.obj
 0001:000217e1       ?Reset@SingleWaitBlock@details@Concurrency@@UAE_NXZ 100227e1 f   libconcrt:event.obj
 0001:000217e2       ?SweepWaitNode@EventWaitNode@details@Concurrency@@QAE_NXZ 100227e2 f i libconcrt:event.obj
 0001:000217fa       ?SweepWaitNode@TimedSingleWaitBlock@details@Concurrency@@UAE_NXZ 100227fa f   libconcrt:event.obj
 0001:0002181d       ?SweepWaitNode@WaitAllBlock@details@Concurrency@@UAE_NXZ 1002281d f   libconcrt:event.obj
 0001:00021860       ?SweepWaitNode@WaitAnyBlock@details@Concurrency@@UAE_NXZ 10022860 f   libconcrt:event.obj
 0001:00021897       ?_InitOnRawMalloca@?$_MallocaArrayHolder@PAVContext@Concurrency@@@details@Concurrency@@QAEPAPAVContext@3@PAX@Z 10022897 f i libconcrt:event.obj
 0001:00021897       ?_InitOnRawMalloca@?$_MallocaArrayHolder@PAVevent@Concurrency@@@details@Concurrency@@QAEPAPAVevent@3@PAX@Z 10022897 f i libconcrt:TaskCollection.obj
 0001:000218c8       ?createTimer@TimedSingleWaitBlock@details@Concurrency@@QAE_NI@Z 100228c8 f i libconcrt:event.obj
 0001:0002192b       ?destroyTimer@TimedSingleWaitBlock@details@Concurrency@@QAEX_N@Z 1002292b f i libconcrt:event.obj
 0001:00021978       ?notify_all@_Condition_variable@details@Concurrency@@QAEXXZ 10022978 f   libconcrt:event.obj
 0001:000219e4       ?notify_one@_Condition_variable@details@Concurrency@@QAEXXZ 100229e4 f   libconcrt:event.obj
 0001:00021a67       ?set@event@Concurrency@@QAEXXZ 10022a67 f   libconcrt:event.obj
 0001:00021b98       ?wait@_Condition_variable@details@Concurrency@@QAEXAAVcritical_section@3@@Z 10022b98 f   libconcrt:event.obj
 0001:00021bfc       ?wait@event@Concurrency@@QAEII@Z 10022bfc f   libconcrt:event.obj
 0001:00021cd8       ?wait_for@_Condition_variable@details@Concurrency@@QAE_NAAVcritical_section@3@I@Z 10022cd8 f   libconcrt:event.obj
 0001:00021dbe       ?wait_for_multiple@event@Concurrency@@SAIPAPAV12@I_NI@Z 10022dbe f   libconcrt:event.obj
 0001:0002207c       __freea                    1002307c f i libconcrt:event.obj
 0001:0002209a       ??0CancellationBeaconStack@ContextBase@details@Concurrency@@QAE@XZ 1002309a f i libconcrt:ContextBase.obj
 0001:000220b3       ??0ContextBase@details@Concurrency@@QAE@PAVSchedulerBase@12@_N@Z 100230b3 f   libconcrt:ContextBase.obj
 0001:00022184       ??1?$WorkStealingQueue@V_UnrealizedChore@details@Concurrency@@V_CriticalNonReentrantLock@23@@details@Concurrency@@QAE@XZ 10023184 f i libconcrt:ContextBase.obj
 0001:0002219b       ??1CancellationBeaconStack@ContextBase@details@Concurrency@@QAE@XZ 1002319b f i libconcrt:ContextBase.obj
 0001:000221d7       ??1Context@Concurrency@@MAE@XZ 100231d7 f i libconcrt:ContextBase.obj
 0001:000221de       ??1ContextBase@details@Concurrency@@UAE@XZ 100231de f i libconcrt:ContextBase.obj
 0001:0002220c       ??1_Scoped_lock@_HyperNonReentrantLock@details@Concurrency@@QAE@XZ 1002320c f i libconcrt:SchedulerBase.obj
 0001:0002220c       ??1_Scoped_lock@_CriticalNonReentrantLock@details@Concurrency@@QAE@XZ 1002320c f i libconcrt:ContextBase.obj
 0001:00022244       ??1_Scoped_lock_read@?$SafeRWList@UListEntry@details@Concurrency@@VNoCount@CollectionTypes@23@V_ReaderWriterLock@23@@details@Concurrency@@QAE@XZ 10023244 f i libconcrt:ContextBase.obj
 0001:0002227f       ??8location@Concurrency@@QBE_NABV01@@Z 1002327f f i libconcrt:ContextBase.obj
 0001:000222a3       ??ACancellationBeaconStack@ContextBase@details@Concurrency@@QAEPAUCancellationBeacon@123@J@Z 100232a3 f i libconcrt:ContextBase.obj
 0001:000222d9       ??_GContext@Concurrency@@MAEPAXI@Z 100232d9 f i libconcrt:ContextBase.obj
 0001:000222d9       ??_EContext@Concurrency@@MAEPAXI@Z 100232d9 f i libconcrt:ContextBase.obj
 0001:000222fc       ??_GContextBase@details@Concurrency@@UAEPAXI@Z 100232fc f i libconcrt:ContextBase.obj
 0001:000222fc       ??_EContextBase@details@Concurrency@@UAEPAXI@Z 100232fc f i libconcrt:ContextBase.obj
 0001:00022321       ??_GWorkQueue@details@Concurrency@@QAEPAXI@Z 10023321 f i libconcrt:ContextBase.obj
 0001:0002234d       ?Add@?$ListArray@VWorkQueue@details@Concurrency@@@details@Concurrency@@QAEHPAVWorkQueue@23@@Z 1002334d f i libconcrt:ContextBase.obj
 0001:000224b0       ?AddStealer@ContextBase@details@Concurrency@@QAEXPAV123@_N@Z 100234b0 f   libconcrt:ContextBase.obj
 0001:000224da       ?AddTail@?$List@UListEntry@details@Concurrency@@VNoCount@CollectionTypes@23@@details@Concurrency@@QAEXPAUListEntry@23@@Z 100234da f i libconcrt:ContextBase.obj
 0001:00022509       ?AddTail@?$SafeRWList@UListEntry@details@Concurrency@@VNoCount@CollectionTypes@23@V_ReaderWriterLock@23@@details@Concurrency@@QAEXPAUListEntry@23@@Z 10023509 f i libconcrt:ContextBase.obj
 0001:0002253d       ?CancelCollection@ContextBase@details@Concurrency@@QAEXH@Z 1002353d f   libconcrt:ContextBase.obj
 0001:000225a4       ?CancelCollectionComplete@ContextBase@details@Concurrency@@QAE_NH@Z 100235a4 f   libconcrt:ContextBase.obj
 0001:000225d4       ?CancelStealers@ContextBase@details@Concurrency@@QAEXPAV_TaskCollectionBase@23@@Z 100235d4 f   libconcrt:ContextBase.obj
 0001:0002269e       ?CheckForDeletion@?$ListArray@VWorkQueue@details@Concurrency@@@details@Concurrency@@AAEXXZ 1002369e f i libconcrt:ContextBase.obj
 0001:000226c4       ?CheckForDeletionBridge@?$ListArray@VWorkQueue@details@Concurrency@@@details@Concurrency@@CAXPAV123@@Z 100236c4 f i libconcrt:ContextBase.obj
 0001:000226d0       ?Claim@Slot@?$Mailbox@V_UnrealizedChore@details@Concurrency@@@details@Concurrency@@QAE_NPAPAV_UnrealizedChore@34@@Z 100236d0 f i libconcrt:ContextBase.obj
 0001:00022717       ?Cleanup@ContextBase@details@Concurrency@@QAEXXZ 10023717 f   libconcrt:ContextBase.obj
 0001:00022747       ?ClearAliasTable@ContextBase@details@Concurrency@@QAEXXZ 10023747 f   libconcrt:ContextBase.obj
 0001:00022788       ?ClearContextTls@ContextBase@details@Concurrency@@AAEXXZ 10023788 f   libconcrt:ContextBase.obj
 0001:00022798       ?CreateWorkQueue@ContextBase@details@Concurrency@@QAEXXZ 10023798 f   libconcrt:ContextBase.obj
 0001:00022817       ?DeleteElements@?$ListArray@VWorkQueue@details@Concurrency@@@details@Concurrency@@AAEXPAU_SINGLE_LIST_ENTRY@@@Z 10023817 f i libconcrt:ContextBase.obj
 0001:00022839       ?Dereference@Segment@?$Mailbox@V_UnrealizedChore@details@Concurrency@@@details@Concurrency@@QAEXXZ 10023839 f i libconcrt:ContextBase.obj
 0001:00022854       ?DetachStealers@ContextBase@details@Concurrency@@QAEXXZ 10023854 f   libconcrt:ContextBase.obj
 0001:00022996       ?EnterCriticalRegionHelper@ContextBase@details@Concurrency@@UAEHXZ 10023996 f i libconcrt:ContextBase.obj
 0001:0002299e       ?EnterHyperCriticalRegionHelper@ContextBase@details@Concurrency@@UAEHXZ 1002399e f i libconcrt:ContextBase.obj
 0001:000229a9       ?ExitCriticalRegionHelper@ContextBase@details@Concurrency@@UAEHXZ 100239a9 f i libconcrt:ContextBase.obj
 0001:000229b1       ?ExitHyperCriticalRegionHelper@ContextBase@details@Concurrency@@UAEHXZ 100239b1 f i libconcrt:ContextBase.obj
 0001:000229bc       ?FindAndDelete@?$Hash@PAV_TaskCollection@details@Concurrency@@PAV123@@details@Concurrency@@QAE_NABQAV_TaskCollection@23@PAPAV423@@Z 100239bc f i libconcrt:ContextBase.obj
 0001:000229fe       ?FlagCancellationBeacons@ContextBase@details@Concurrency@@QAEXH@Z 100239fe f   libconcrt:ContextBase.obj
 0001:00022a46       ?GetCriticalRegionType@ContextBase@details@Concurrency@@UBE?AW4CriticalRegionType@3@XZ 10023a46 f i libconcrt:ContextBase.obj
 0001:00022a5a       ?GetId@ContextBase@details@Concurrency@@UBEIXZ 10023a5a f   libconcrt:ContextBase.obj
 0001:00022a5e       ?GetIndirectAlias@ContextBase@details@Concurrency@@QBEPAV_TaskCollection@23@XZ 10023a5e f   libconcrt:ContextBase.obj
 0001:00022a62       ?GetScheduleGroup@ContextBase@details@Concurrency@@QBEPAVScheduleGroupBase@23@XZ 10023a62 f   libconcrt:ContextBase.obj
 0001:00022a73       ?GetScheduleGroupId@ContextBase@details@Concurrency@@UBEIXZ 10023a73 f   libconcrt:ContextBase.obj
 0001:00022a9a       ?GetScheduleGroupSegment@ContextBase@details@Concurrency@@QBEPAVScheduleGroupSegmentBase@23@XZ 10023a9a f   libconcrt:ContextBase.obj
 0001:00022a9a       ?GetAvailableNodeCount@ResourceManager@details@Concurrency@@UBEIXZ 10023a9a f   libconcrt:ResourceManager.obj
 0001:00022a9e       ?Id@ScheduleGroupBase@details@Concurrency@@UBEIXZ 10023a9e f   libconcrt:SchedulerBase.obj
 0001:00022a9e       ?GetScheduler@ContextBase@details@Concurrency@@QBEPAVSchedulerBase@23@XZ 10023a9e f   libconcrt:ContextBase.obj
 0001:00022aa2       ?IsCanceledAtDepth@ContextBase@details@Concurrency@@AAE_NPAV_TaskCollectionBase@23@H@Z 10023aa2 f   libconcrt:ContextBase.obj
 0001:00022b8c       ?LockedSetOwningContext@WorkQueue@details@Concurrency@@QAEXPAVContextBase@23@@Z 10023b8c f i libconcrt:ContextBase.obj
 0001:00022baf       ?NextList@?$Hash@PAV_TaskCollection@details@Concurrency@@PAV123@@details@Concurrency@@AAEPAUListNode@123@PAH@Z 10023baf f i libconcrt:ContextBase.obj
 0001:00022be0       ?Pop@?$WorkStealingQueue@V_UnrealizedChore@details@Concurrency@@V_CriticalNonReentrantLock@23@@details@Concurrency@@QAEPAV_UnrealizedChore@23@XZ 10023be0 f i libconcrt:ContextBase.obj
 0001:00022c3a       ?PopContextFromTls@ContextBase@details@Concurrency@@AAEPAV123@XZ 10023c3a f   libconcrt:ContextBase.obj
 0001:00022c58       ?PushContextToTls@ContextBase@details@Concurrency@@AAEXPAV123@@Z 10023c58 f   libconcrt:ContextBase.obj
 0001:00022c73       ?RecomputeMaximumCancellationDepth@ContextBase@details@Concurrency@@AAEXXZ 10023c73 f   libconcrt:ContextBase.obj
 0001:00022cfc       ?ReferenceForCancellation@ContextBase@details@Concurrency@@QAEXXZ 10023cfc f   libconcrt:ContextBase.obj
 0001:00022d01       ?ReleaseWorkQueue@ContextBase@details@Concurrency@@IAEXXZ 10023d01 f   libconcrt:ContextBase.obj
 0001:00022d58       ?Remove@?$Hash@PAV_TaskCollection@details@Concurrency@@PAV123@@details@Concurrency@@AAEPAUListNode@123@ABQAV_TaskCollection@23@H@Z 10023d58 f i libconcrt:ContextBase.obj
 0001:00022da0       ?Remove@?$List@UListEntry@details@Concurrency@@VNoCount@CollectionTypes@23@@details@Concurrency@@QAEXPAUListEntry@23@@Z 10023da0 f i libconcrt:ContextBase.obj
 0001:00022dce       ?Remove@?$ListArray@VWorkQueue@details@Concurrency@@@details@Concurrency@@QAE_NPAVWorkQueue@23@H_N@Z 10023dce f i libconcrt:ContextBase.obj
 0001:00022ecb       ?Remove@?$SafeRWList@UListEntry@details@Concurrency@@VNoCount@CollectionTypes@23@V_ReaderWriterLock@23@@details@Concurrency@@QAEXPAUListEntry@23@@Z 10023ecb f i libconcrt:ContextBase.obj
 0001:00022eff       ?RemoveStealer@ContextBase@details@Concurrency@@QAEXPAV123@@Z 10023eff f   libconcrt:ContextBase.obj
 0001:00022f15       ?SetAsCurrentTls@ContextBase@details@Concurrency@@IAEXXZ 10023f15 f   libconcrt:ContextBase.obj
 0001:00022f24       ?StaticEnterHyperCriticalRegion@ContextBase@details@Concurrency@@SAXXZ 10023f24 f   libconcrt:ContextBase.obj
 0001:00022f24       ?StaticExitCriticalRegion@ContextBase@details@Concurrency@@SAXXZ 10023f24 f   libconcrt:ContextBase.obj
 0001:00022f24       ?StaticEnterCriticalRegion@ContextBase@details@Concurrency@@SAXXZ 10023f24 f   libconcrt:ContextBase.obj
 0001:00022f24       ?StaticExitHyperCriticalRegion@ContextBase@details@Concurrency@@SAXXZ 10023f24 f   libconcrt:ContextBase.obj
 0001:00022f29       ?SweepAliasTable@ContextBase@details@Concurrency@@QAEXXZ 10023f29 f   libconcrt:ContextBase.obj
 0001:00022fad       ?SweepUnstructured@ContextBase@details@Concurrency@@QAEXP6A_NPAV_UnrealizedChore@23@PAX@Z12@Z 10023fad f   libconcrt:ContextBase.obj
 0001:00022fb9       ?SyncPop@?$WorkStealingQueue@V_UnrealizedChore@details@Concurrency@@V_CriticalNonReentrantLock@23@@details@Concurrency@@AAEPAV_UnrealizedChore@23@XZ 10023fb9 f i libconcrt:ContextBase.obj
 0001:00023052       ?ThrowContextEvent@ContextBase@details@Concurrency@@KAXW4ConcRT_EventType@3@EKK@Z 10024052 f   libconcrt:ContextBase.obj
 0001:000230c5       ?TraceContextEvent@ContextBase@details@Concurrency@@IAEXW4ConcRT_EventType@3@EKK@Z 100240c5 f i libconcrt:ContextBase.obj
 0001:000230f2       ?TryPop@?$WorkStealingQueue@V_UnrealizedChore@details@Concurrency@@V_CriticalNonReentrantLock@23@@details@Concurrency@@QAEPAV_UnrealizedChore@23@H@Z 100240f2 f i libconcrt:ContextBase.obj
 0001:00023155       ?TryPopUnstructured@ContextBase@details@Concurrency@@QAEPAV_UnrealizedChore@23@H@Z 10024155 f   libconcrt:ContextBase.obj
 0001:00023164       ?_SafeGetParent@_TaskCollectionBase@details@Concurrency@@IAEPAV123@XZ 10024164 f i libconcrt:ContextBase.obj
 0001:00023178       ??$atomic_compare_exchange@J@details@Concurrency@@YAJAAU?$atomic@J@std@@JJ@Z 10024178 f i libconcrt:TaskCollection.obj
 0001:0002319f       ??$wait@V<lambda_cf8f1d893b3a87da856048d6f694e263>@@@condition_variable@std@@QAEXAAV?$unique_lock@Vmutex@std@@@1@V<lambda_cf8f1d893b3a87da856048d6f694e263>@@@Z 1002419f f i libconcrt:TaskCollection.obj
 0001:000231cb       ??0CancellationTokenRegistration_TaskProc@details@Concurrency@@QAE@P6AXPAX@Z0H@Z 100241cb f i libconcrt:TaskCollection.obj
 0001:000231f8       ??0_CancellationTokenRegistration@details@Concurrency@@QAE@J@Z 100241f8 f i libconcrt:TaskCollection.obj
 0001:00023243       ??0_Interruption_exception@details@Concurrency@@QAE@ABV012@@Z 10024243 f i libconcrt:TaskCollection.obj
 0001:0002325e       ??0_Interruption_exception@details@Concurrency@@QAE@XZ 1002425e f i libconcrt:TaskCollection.obj
 0001:0002326f       ??0_TaskCollection@details@Concurrency@@AAE@PAV012@_N@Z 1002426f f   libconcrt:TaskCollection.obj
 0001:00023360       ??0missing_wait@Concurrency@@QAE@ABV01@@Z 10024360 f i libconcrt:TaskCollection.obj
 0001:0002337b       ??1?$_MallocaArrayHolder@PAVevent@Concurrency@@@details@Concurrency@@UAE@XZ 1002437b f i libconcrt:TaskCollection.obj
 0001:0002338b       ??1?$unique_lock@Vmutex@std@@@std@@QAE@XZ 1002438b f i libconcrt:TaskCollection.obj
 0001:000233ca       ??1TaskStack@details@Concurrency@@QAE@XZ 100243ca f   libconcrt:TaskCollection.obj
 0001:000233da       ??1_CancellationTokenRegistration@details@Concurrency@@MAE@XZ 100243da f i libconcrt:TaskCollection.obj
 0001:000233ff       ??1_TaskCollection@details@Concurrency@@QAE@XZ 100243ff f   libconcrt:TaskCollection.obj
 0001:000234dd       ??1exception_ptr@std@@QAE@XZ 100244dd f i libconcrt:TaskCollection.obj
 0001:000234e5       ??_E?$_MallocaArrayHolder@PAVevent@Concurrency@@@details@Concurrency@@UAEPAXI@Z 100244e5 f i libconcrt:TaskCollection.obj
 0001:000234e5       ??_G?$_MallocaArrayHolder@PAVevent@Concurrency@@@details@Concurrency@@UAEPAXI@Z 100244e5 f i libconcrt:TaskCollection.obj
 0001:00023511       ??_GCancellationTokenRegistration_TaskProc@details@Concurrency@@UAEPAXI@Z 10024511 f i libconcrt:TaskCollection.obj
 0001:00023511       ??_ECancellationTokenRegistration_TaskProc@details@Concurrency@@UAEPAXI@Z 10024511 f i libconcrt:TaskCollection.obj
 0001:00023533       ??_G_CancellationTokenRegistration@details@Concurrency@@MAEPAXI@Z 10024533 f i libconcrt:TaskCollection.obj
 0001:00023533       ??_E_CancellationTokenRegistration@details@Concurrency@@MAEPAXI@Z 10024533 f i libconcrt:TaskCollection.obj
 0001:00023555       ??_G_RefCounter@details@Concurrency@@UAEPAXI@Z 10024555 f i libconcrt:TaskCollection.obj
 0001:00023555       ??_E_RefCounter@details@Concurrency@@UAEPAXI@Z 10024555 f i libconcrt:TaskCollection.obj
 0001:00023578       ?AddArbitraryAlias@ContextBase@details@Concurrency@@QAEXPAV_TaskCollection@23@0@Z 10024578 f i libconcrt:TaskCollection.obj
 0001:0002359b       ?Find@?$Hash@II@details@Concurrency@@QAEPAUListNode@123@ABIPAI@Z 1002459b f i libconcrt:SchedulerBase.obj
 0001:0002359b       ?Find@?$Hash@PAV_TaskCollection@details@Concurrency@@PAV123@@details@Concurrency@@QAEPAUListNode@123@ABQAV_TaskCollection@23@PAPAV523@@Z 1002459b f i libconcrt:TaskCollection.obj
 0001:000235d1       ?GetArbitraryAlias@ContextBase@details@Concurrency@@QAEPAV_TaskCollection@23@PAV423@@Z 100245d1 f i libconcrt:TaskCollection.obj
 0001:00023635       ?Lookup@?$Hash@II@details@Concurrency@@AAEPAUListNode@123@ABIH@Z 10024635 f i libconcrt:SchedulerBase.obj
 0001:00023635       ?Lookup@?$Hash@PAV_TaskCollection@details@Concurrency@@PAV123@@details@Concurrency@@AAEPAUListNode@123@ABQAV_TaskCollection@23@H@Z 10024635 f i libconcrt:TaskCollection.obj
 0001:0002365f       ?_Abort@_TaskCollection@details@Concurrency@@AAEX_N@Z 1002465f f   libconcrt:TaskCollection.obj
 0001:0002378e       ?_AbortiveSweep@_TaskCollection@details@Concurrency@@AAEXPAX@Z 1002478e f   libconcrt:TaskCollection.obj
 0001:000237d8       ?_Alias@_TaskCollection@details@Concurrency@@AAEPAV123@XZ 100247d8 f   libconcrt:TaskCollection.obj
 0001:00023864       ?_Atomic_compare_exchange_strong_4@std@@YAHPCKPAKKW4memory_order@1@2@Z 10024864 f i libconcrt:TaskCollection.obj
 0001:000238d3       ?_Cancel@_StructuredTaskCollection@details@Concurrency@@QAEXXZ 100248d3 f   libconcrt:TaskCollection.obj
 0001:00023924       ?_Cancel@_TaskCollection@details@Concurrency@@AAEX_NPAV123@@Z 10024924 f   libconcrt:TaskCollection.obj
 0001:000239c5       ?_CancelDirectAliases@_TaskCollection@details@Concurrency@@AAEX_NPAV123@@Z 100249c5 f   libconcrt:TaskCollection.obj
 0001:000239e4       ?_CancelFromArbitraryThread@_TaskCollection@details@Concurrency@@AAEX_N@Z 100249e4 f   libconcrt:TaskCollection.obj
 0001:00023a89       ?_CancelStolenContexts@_TaskCollection@details@Concurrency@@AAEX_N0@Z 10024a89 f   libconcrt:TaskCollection.obj
 0001:00023b14       ?_Cnd_broadcastX@std@@YAHPAU_Cnd_internal_imp_t@@@Z 10024b14 f i libconcrt:TaskCollection.obj
 0001:00023b33       ?_Cnd_waitX@std@@YAHPAU_Cnd_internal_imp_t@@PAU_Mtx_internal_imp_t@@@Z 10024b33 f i libconcrt:TaskCollection.obj
 0001:00023b56       ?_CollectionMatchPredicate@_TaskCollection@details@Concurrency@@CA_NPAV_UnrealizedChore@23@PAX@Z 10024b56 f   libconcrt:TaskCollection.obj
 0001:00023b69       ?_Compare_exchange_release_4@std@@YAHPCKPAKK@Z 10024b69 f i libconcrt:TaskCollection.obj
 0001:00023b69       ?_Compare_exchange_acquire_4@std@@YAHPCKPAKK@Z 10024b69 f i libconcrt:TaskCollection.obj
 0001:00023b69       ?_Compare_exchange_relaxed_4@std@@YAHPCKPAKK@Z 10024b69 f i libconcrt:TaskCollection.obj
 0001:00023b69       ?_Compare_exchange_seq_cst_4@std@@YAHPCKPAKK@Z 10024b69 f i libconcrt:TaskCollection.obj
 0001:00023b90       ?_CountUp@_StructuredTaskCollection@details@Concurrency@@AAEXXZ 10024b90 f   libconcrt:TaskCollection.obj
 0001:00023bc0       ?_DeregisterCallback@_CancellationTokenState@details@Concurrency@@QAEXPAV_CancellationTokenRegistration@23@@Z 10024bc0 f i libconcrt:TaskCollection.obj
 0001:00023c89       ?_Destroy@_RefCounter@details@Concurrency@@MAEXXZ 10024c89 f i libconcrt:TaskCollection.obj
 0001:00023ca5       ?_Exec@CancellationTokenRegistration_TaskProc@details@Concurrency@@MAEXXZ 10024ca5 f i libconcrt:TaskCollection.obj
 0001:00023cb8       ?_FullAliasWait@_TaskCollection@details@Concurrency@@AAEXPAV123@@Z 10024cb8 f   libconcrt:TaskCollection.obj
 0001:00023da6       ?_GetStealTrackingList@_TaskCollection@details@Concurrency@@ABEPAXXZ 10024da6 f   libconcrt:TaskCollection.obj
 0001:00023daa       ?_Initialize@_StructuredTaskCollection@details@Concurrency@@AAEXXZ 10024daa f   libconcrt:TaskCollection.obj
 0001:00023e00       ?_Initialize@_TaskCollection@details@Concurrency@@AAEXXZ 10024e00 f   libconcrt:TaskCollection.obj
 0001:00023e35       ?_Invoke@_CancellationTokenRegistration@details@Concurrency@@AAEXXZ 10024e35 f i libconcrt:TaskCollection.obj
 0001:00023ebc       ?_IsDirectAlias@_TaskCollection@details@Concurrency@@ABE_NXZ 10024ebc f   libconcrt:TaskCollection.obj
 0001:00023ecf       ?_IsIndirectAlias@_TaskCollection@details@Concurrency@@ABE_NXZ 10024ecf f   libconcrt:TaskCollection.obj
 0001:00023ee2       ?_IsMarkedForAbnormalExit@_TaskCollection@details@Concurrency@@QBE_NXZ 10024ee2 f   libconcrt:TaskCollection.obj
 0001:00023ef0       ?_IsStaleAlias@_TaskCollection@details@Concurrency@@ABE_NXZ 10024ef0 f   libconcrt:TaskCollection.obj
 0001:00023ef9       ?_IsValid@_CancellationTokenState@details@Concurrency@@SA_NPAV123@@Z 10024ef9 f i libconcrt:TaskCollection.obj
 0001:00023f11       ?_Memory_order_upper_bound@std@@YA?AW4memory_order@1@W421@0@Z 10024f11 f i libconcrt:TaskCollection.obj
 0001:00023f36       ?_NotifyCompletedChoreAndFree@_TaskCollection@details@Concurrency@@AAEXPAV_UnrealizedChore@23@@Z 10024f36 f   libconcrt:TaskCollection.obj
 0001:00023f87       ?_OriginalCollection@_TaskCollection@details@Concurrency@@QBEPAV123@XZ 10024f87 f   libconcrt:TaskCollection.obj
 0001:00023f8b       ?_RegisterCallback@_CancellationTokenState@details@Concurrency@@QAEPAV_CancellationTokenRegistration@23@P6AXPAX@Z0H@Z 10024f8b f i libconcrt:TaskCollection.obj
 0001:00023fca       ?_RegisterCallback@_CancellationTokenState@details@Concurrency@@QAEXPAV_CancellationTokenRegistration@23@@Z 10024fca f i libconcrt:TaskCollection.obj
 0001:0002403c       ?_Release@_RefCounter@details@Concurrency@@QAEJXZ 1002503c f i libconcrt:TaskCollection.obj
 0001:00024062       ?_ReleaseAlias@_TaskCollection@details@Concurrency@@AAEXXZ 10025062 f   libconcrt:TaskCollection.obj
 0001:0002409c       ?_Reset@_TaskCollection@details@Concurrency@@AAEXPAV123@@Z 1002509c f   libconcrt:TaskCollection.obj
 0001:00024199       ?_SetCancelState@_TaskCollection@details@Concurrency@@AAE_NJ@Z 10025199 f   libconcrt:TaskCollection.obj
 0001:000241d3       ?_SweepAbortedChore@_TaskCollection@details@Concurrency@@CA_NPAV_UnrealizedChore@23@PAX@Z 100251d3 f   libconcrt:TaskCollection.obj
 0001:000241ec       ?_TaskCleanup@_TaskCollection@details@Concurrency@@AAE_N_N@Z 100251ec f   libconcrt:TaskCollection.obj
 0001:00024240       ?push_back@TokenRegistrationContainer@_CancellationTokenState@details@Concurrency@@QAEXPAV_CancellationTokenRegistration@34@@Z 10025240 f i libconcrt:TaskCollection.obj
 0001:0002427e       ?remove@TokenRegistrationContainer@_CancellationTokenState@details@Concurrency@@QAEXPAV_CancellationTokenRegistration@34@@Z 1002527e f i libconcrt:TaskCollection.obj
 0001:000242c2       ??0SchedulerPolicy@Concurrency@@QAA@IZZ 100252c2 f   libconcrt:SchedulerPolicyBase.obj
 0001:000242e2       ??0SchedulerPolicy@Concurrency@@QAE@ABV01@@Z 100252e2 f   libconcrt:SchedulerPolicyBase.obj
 0001:00024308       ??0invalid_scheduler_policy_key@Concurrency@@QAE@ABV01@@Z 10025308 f i libconcrt:SchedulerPolicyBase.obj
 0001:00024323       ??0invalid_scheduler_policy_thread_specification@Concurrency@@QAE@ABV01@@Z 10025323 f i libconcrt:SchedulerPolicyBase.obj
 0001:0002433e       ??0invalid_scheduler_policy_value@Concurrency@@QAE@ABV01@@Z 1002533e f i libconcrt:SchedulerPolicyBase.obj
 0001:00024359       ??1SchedulerPolicy@Concurrency@@QAE@XZ 10025359 f   libconcrt:SchedulerPolicyBase.obj
 0001:00024365       ??4SchedulerPolicy@Concurrency@@QAEAAV01@ABV01@@Z 10025365 f   libconcrt:SchedulerPolicyBase.obj
 0001:00024383       ?GetPolicyValue@SchedulerPolicy@Concurrency@@QBEIW4PolicyElementKey@2@@Z 10025383 f   libconcrt:SchedulerPolicyBase.obj
 0001:000243bb       ?_AreConcurrencyLimitsValid@SchedulerPolicy@Concurrency@@CA_NII@Z 100253bb f   libconcrt:SchedulerPolicyBase.obj
 0001:000243d9       ?_Initialize@SchedulerPolicy@Concurrency@@AAEXIPAPAD@Z 100253d9 f   libconcrt:SchedulerPolicyBase.obj
 0001:000244c4       ?_ResolvePolicyValues@SchedulerPolicy@Concurrency@@AAEXXZ 100254c4 f   libconcrt:SchedulerPolicyBase.obj
 0001:0002450c       ?_StringFromPolicyKey@SchedulerPolicy@Concurrency@@CAPADI@Z 1002550c f   libconcrt:SchedulerPolicyBase.obj
 0001:00024523       ?_ValidPolicyValue@SchedulerPolicy@Concurrency@@CA_NW4PolicyElementKey@2@I@Z 10025523 f   libconcrt:SchedulerPolicyBase.obj
 0001:00024603       ?_ValidateConcRTPolicy@SchedulerPolicy@Concurrency@@QBEXXZ 10025603 f   libconcrt:SchedulerPolicyBase.obj
 0001:0002463f       ??0ExecutionResource@details@Concurrency@@QAE@PAVSchedulerProxy@12@PAUSchedulerNode@12@I@Z 1002563f f   libconcrt:ExecutionResource.obj
 0001:000246a1       ??0ExecutionResource@details@Concurrency@@QAE@PAVSchedulerProxy@12@PAV012@@Z 100256a1 f   libconcrt:ExecutionResource.obj
 0001:000246f5       ?CurrentSubscriptionLevel@ExecutionResource@details@Concurrency@@UBEIXZ 100256f5 f   libconcrt:ExecutionResource.obj
 0001:00024707       ?DecrementUseCounts@ExecutionResource@details@Concurrency@@QAEXXZ 10025707 f   libconcrt:ExecutionResource.obj
 0001:00024773       ?GetNodeId@VirtualProcessorRoot@details@Concurrency@@UBEIXZ 10025773 f i libconcrt:VirtualProcessorRoot.obj
 0001:00024773       ?GetExecutionResourceId@ExecutionResource@details@Concurrency@@UBEIXZ 10025773 f i libconcrt:ExecutionResource.obj
 0001:00024777       ?GetNodeId@ExecutionResource@details@Concurrency@@UBEIXZ 10025777 f i libconcrt:ExecutionResource.obj
 0001:0002477b       ?IncrementUseCounts@ExecutionResource@details@Concurrency@@QAEXXZ 1002577b f   libconcrt:ExecutionResource.obj
 0001:00024848       ?Remove@ExecutionResource@details@Concurrency@@UAEXPAUIScheduler@3@@Z 10025848 f   libconcrt:ExecutionResource.obj
 0001:000248a9       ?ResetCurrent@ExecutionResource@details@Concurrency@@QAEXXZ 100258a9 f   libconcrt:ExecutionResource.obj
 0001:000248c5       ?SetAsCurrent@ExecutionResource@details@Concurrency@@QAEXXZ 100258c5 f   libconcrt:ExecutionResource.obj
 0001:000248e8       ??$sign@I@details@Concurrency@@YAII@Z 100258e8 f i libconcrt:HillClimbing.obj
 0001:00024900       ??$sign@N@details@Concurrency@@YANN@Z 10025900 f i libconcrt:HillClimbing.obj
 0001:0002493a       ??0HillClimbing@details@Concurrency@@QAE@IIPAVSchedulerProxy@12@@Z 1002593a f   libconcrt:HillClimbing.obj
 0001:000249c9       ?Add@MeasuredHistory@HillClimbing@details@Concurrency@@QAEXNI@Z 100259c9 f   libconcrt:HillClimbing.obj
 0001:000249ec       ?CalculateThroughput@HillClimbing@details@Concurrency@@AAENIIII@Z 100259ec f   libconcrt:HillClimbing.obj
 0001:00024a29       ?CalculateThroughputSlope@HillClimbing@details@Concurrency@@AAENHH@Z 10025a29 f   libconcrt:HillClimbing.obj
 0001:00024ae7       ?CoefficientOfVariationMean@MeasuredHistory@HillClimbing@details@Concurrency@@QAENXZ 10025ae7 f   libconcrt:HillClimbing.obj
 0001:00024b20       ?EstablishControlSetting@HillClimbing@details@Concurrency@@AAEXI@Z 10025b20 f   libconcrt:HillClimbing.obj
 0001:00024b65       ?FlushHistories@HillClimbing@details@Concurrency@@AAEXXZ 10025b65 f   libconcrt:HillClimbing.obj
 0001:00024bab       ?GetHistory@HillClimbing@details@Concurrency@@AAEPAVMeasuredHistory@123@I@Z 10025bab f   libconcrt:HillClimbing.obj
 0001:00024bd6       ?GetRandomMove@HillClimbing@details@Concurrency@@AAEHXZ 10025bd6 f   libconcrt:HillClimbing.obj
 0001:00024bef       ?IsStableHistory@HillClimbing@details@Concurrency@@AAE_NPAVMeasuredHistory@123@@Z 10025bef f   libconcrt:HillClimbing.obj
 0001:00024c1f       ?Mean@MeasuredHistory@HillClimbing@details@Concurrency@@QAENXZ 10025c1f f   libconcrt:HillClimbing.obj
 0001:00024c41       ?RecommendControlSetting@HillClimbing@details@Concurrency@@AAEII@Z 10025c41 f   libconcrt:HillClimbing.obj
 0001:00024d13       ?Update@HillClimbing@details@Concurrency@@QAEIIIII@Z 10025d13 f   libconcrt:HillClimbing.obj
 0001:00024ed5       ?Variance@MeasuredHistory@HillClimbing@details@Concurrency@@QAENXZ 10025ed5 f   libconcrt:HillClimbing.obj
 0001:00024f23       ??0SchedulerProxy@details@Concurrency@@QAE@PAUIScheduler@2@PAVResourceManager@12@ABVSchedulerPolicy@2@@Z 10025f23 f   libconcrt:SchedulerProxy.obj
 0001:0002517d       ??1SchedulerProxy@details@Concurrency@@IAE@XZ 1002617d f   libconcrt:SchedulerProxy.obj
 0001:000251dc       ?AddCore@SchedulerProxy@details@Concurrency@@QAEXPAUSchedulerNode@23@I_N@Z 100261dc f   libconcrt:SchedulerProxy.obj
 0001:000252ae       ?AddExecutionResource@SchedulerProxy@details@Concurrency@@QAEXPAVExecutionResource@23@@Z 100262ae f   libconcrt:SchedulerProxy.obj
 0001:000252f7       ?AddTail@?$List@VExecutionResource@details@Concurrency@@VCount@CollectionTypes@23@@details@Concurrency@@QAEXPAVExecutionResource@23@@Z 100262f7 f i libconcrt:SchedulerProxy.obj
 0001:00025330       ?AddThreadSubscription@SchedulerProxy@details@Concurrency@@QAEXPAVExecutionResource@23@@Z 10026330 f   libconcrt:SchedulerProxy.obj
 0001:0002533f       ?AddVirtualProcessorRoots@SchedulerProxy@details@Concurrency@@QAEXPAPAUIVirtualProcessorRoot@3@I@Z 1002633f f   libconcrt:SchedulerProxy.obj
 0001:000253eb       ?AdjustAllocationIncrease@SchedulerProxy@details@Concurrency@@QBEII@Z 100263eb f   libconcrt:SchedulerProxy.obj
 0001:0002545b       ?BindContext@SchedulerProxy@details@Concurrency@@UAEXPAUIExecutionContext@3@@Z 1002645b f   libconcrt:SchedulerProxy.obj
 0001:000254b7       ?Cleanup@SchedulerProxy@details@Concurrency@@IAEXXZ 100264b7 f   libconcrt:SchedulerProxy.obj
 0001:00025585       ?CreateExternalThreadResource@SchedulerProxy@details@Concurrency@@QAEPAVExecutionResource@23@PAUSchedulerNode@23@I@Z 10026585 f   libconcrt:SchedulerProxy.obj
 0001:000255cc       ?CreateOversubscriber@SchedulerProxy@details@Concurrency@@UAEPAUIVirtualProcessorRoot@3@PAUIExecutionResource@3@@Z 100265cc f   libconcrt:SchedulerProxy.obj
 0001:00025686       ?CreateVirtualProcessorRoot@SchedulerProxy@details@Concurrency@@UAEPAVVirtualProcessorRoot@23@PAUSchedulerNode@23@I@Z 10026686 f   libconcrt:SchedulerProxy.obj
 0001:000256be       ?DecrementCoreSubscription@SchedulerProxy@details@Concurrency@@QAEXPAVExecutionResource@23@@Z 100266be f   libconcrt:SchedulerProxy.obj
 0001:00025708       ?DecrementFixedCoreCount@SchedulerProxy@details@Concurrency@@QAEXII_N@Z 10026708 f   libconcrt:SchedulerProxy.obj
 0001:00025783       ?DeleteThis@SchedulerProxy@details@Concurrency@@MAEXXZ 10026783 f i libconcrt:SchedulerProxy.obj
 0001:0002579e       ?DestroyExecutionResource@SchedulerProxy@details@Concurrency@@QAEXPAVExecutionResource@23@@Z 1002679e f   libconcrt:SchedulerProxy.obj
 0001:00025823       ?DestroyVirtualProcessorRoot@SchedulerProxy@details@Concurrency@@QAEXPAVVirtualProcessorRoot@23@@Z 10026823 f   libconcrt:SchedulerProxy.obj
 0001:000258ac       ?FinalShutdown@SchedulerProxy@details@Concurrency@@UAEXXZ 100268ac f   libconcrt:SchedulerProxy.obj
 0001:000258c8       ?GetCurrentThreadExecutionResource@SchedulerProxy@details@Concurrency@@QAEPAVExecutionResource@23@XZ 100268c8 f   libconcrt:SchedulerProxy.obj
 0001:000258e5       ?GetNewThreadProxy@SchedulerProxy@details@Concurrency@@UAEPAUIThreadProxy@3@PAUIExecutionContext@3@@Z 100268e5 f   libconcrt:SchedulerProxy.obj
 0001:00025932       ?GetResourceForNewSubscription@SchedulerProxy@details@Concurrency@@QAEPAVExecutionResource@23@PAV423@@Z 10026932 f   libconcrt:SchedulerProxy.obj
 0001:00025980       ?GrantAllocation@SchedulerProxy@details@Concurrency@@QAEPAVExecutionResource@23@I_N0@Z 10026980 f   libconcrt:SchedulerProxy.obj
 0001:00025c5f       ?IncrementCoreSubscription@SchedulerProxy@details@Concurrency@@QAEXPAVExecutionResource@23@@Z 10026c5f f   libconcrt:SchedulerProxy.obj
 0001:00025cad       ?IncrementFixedCoreCount@SchedulerProxy@details@Concurrency@@QAEXII_N@Z 10026cad f   libconcrt:SchedulerProxy.obj
 0001:00025d35       ?ReferenceCurrentThreadExecutionResource@SchedulerProxy@details@Concurrency@@QAEPAVExecutionResource@23@XZ 10026d35 f   libconcrt:SchedulerProxy.obj
 0001:00025de0       ?Remove@?$List@VExecutionResource@details@Concurrency@@VCount@CollectionTypes@23@@details@Concurrency@@QAEXPAVExecutionResource@23@@Z 10026de0 f i libconcrt:SchedulerProxy.obj
 0001:00025e16       ?RemoveCore@SchedulerProxy@details@Concurrency@@QAEXPAUSchedulerNode@23@I@Z 10026e16 f   libconcrt:SchedulerProxy.obj
 0001:00025f00       ?RemoveThreadSubscription@SchedulerProxy@details@Concurrency@@QAEXPAVExecutionResource@23@@Z 10026f00 f   libconcrt:SchedulerProxy.obj
 0001:00025f2c       ?RequestInitialVirtualProcessors@SchedulerProxy@details@Concurrency@@UAEPAUIExecutionResource@3@_N@Z 10026f2c f   libconcrt:SchedulerProxy.obj
 0001:00025f3f       ?SendCoreNotification@SchedulerProxy@details@Concurrency@@QAEXPAUSchedulerCore@23@_N@Z 10026f3f f   libconcrt:SchedulerProxy.obj
 0001:00026023       ?Shutdown@SchedulerProxy@details@Concurrency@@UAEXXZ 10027023 f   libconcrt:SchedulerProxy.obj
 0001:0002602d       ?SubscribeCurrentThread@SchedulerProxy@details@Concurrency@@UAEPAUIExecutionResource@3@XZ 1002702d f   libconcrt:SchedulerProxy.obj
 0001:00026037       ?ToggleBorrowedState@SchedulerProxy@details@Concurrency@@QAEXPAUSchedulerNode@23@I@Z 10027037 f   libconcrt:SchedulerProxy.obj
 0001:0002606a       ?UnbindContext@SchedulerProxy@details@Concurrency@@UAEXPAUIExecutionContext@3@@Z 1002706a f   libconcrt:SchedulerProxy.obj
 0001:000260b4       ?Initialize@WinRT@details@Concurrency@@SAXXZ 100270b4 f   libconcrt:WinRTWrapper.obj
 0001:00026165       ?RoInitialize@WinRT@details@Concurrency@@SAJW4RO_INIT_TYPE@@@Z 10027165 f   libconcrt:WinRTWrapper.obj
 0001:00026186       ?RoUninitialize@WinRT@details@Concurrency@@SAXXZ 10027186 f   libconcrt:WinRTWrapper.obj
 0001:000261a0       ??0?$ThreadProxyFactory@VFreeThreadProxy@details@Concurrency@@@details@Concurrency@@IAE@PAVThreadProxyFactoryManager@12@@Z 100271a0 f i libconcrt:ThreadProxyFactoryManager.obj
 0001:000261db       ??0FreeThreadProxy@details@Concurrency@@QAE@PAUIThreadProxyFactory@12@I@Z 100271db f i libconcrt:ThreadProxyFactoryManager.obj
 0001:00026212       ??0FreeThreadProxyFactory@details@Concurrency@@IAE@PAVThreadProxyFactoryManager@12@@Z 10027212 f i libconcrt:ThreadProxyFactoryManager.obj
 0001:0002623e       ??0ThreadProxyFactoryManager@details@Concurrency@@QAE@XZ 1002723e f   libconcrt:ThreadProxyFactoryManager.obj
 0001:00026272       ??1ThreadProxyFactoryManager@details@Concurrency@@QAE@XZ 10027272 f   libconcrt:ThreadProxyFactoryManager.obj
 0001:000262e9       ??_G?$ThreadProxyFactory@VFreeThreadProxy@details@Concurrency@@@details@Concurrency@@UAEPAXI@Z 100272e9 f i libconcrt:ThreadProxyFactoryManager.obj
 0001:000262e9       ??_E?$ThreadProxyFactory@VFreeThreadProxy@details@Concurrency@@@details@Concurrency@@UAEPAXI@Z 100272e9 f i libconcrt:ThreadProxyFactoryManager.obj
 0001:0002630c       ??_GFreeThreadProxy@details@Concurrency@@UAEPAXI@Z 1002730c f i libconcrt:ThreadProxyFactoryManager.obj
 0001:0002630c       ??_EFreeThreadProxy@details@Concurrency@@UAEPAXI@Z 1002730c f i libconcrt:ThreadProxyFactoryManager.obj
 0001:00026334       ??_EFreeThreadProxyFactory@details@Concurrency@@UAEPAXI@Z 10027334 f i libconcrt:ThreadProxyFactoryManager.obj
 0001:00026334       ??_GFreeThreadProxyFactory@details@Concurrency@@UAEPAXI@Z 10027334 f i libconcrt:ThreadProxyFactoryManager.obj
 0001:00026357       ??_GIThreadProxyFactory@details@Concurrency@@UAEPAXI@Z 10027357 f i libconcrt:ThreadProxyFactoryManager.obj
 0001:00026357       ??_EIThreadProxyFactory@details@Concurrency@@UAEPAXI@Z 10027357 f i libconcrt:ThreadProxyFactoryManager.obj
 0001:0002637a       ?Create@FreeThreadProxyFactory@details@Concurrency@@EAEPAVFreeThreadProxy@23@I@Z 1002737a f i libconcrt:ThreadProxyFactoryManager.obj
 0001:000263af       ?CreateFactory@FreeThreadProxyFactory@details@Concurrency@@SAPAV123@PAVThreadProxyFactoryManager@23@@Z 100273af f i libconcrt:ThreadProxyFactoryManager.obj
 0001:000263d9       ?GetExecutionResourceTls@?$ThreadProxyFactory@VFreeThreadProxy@details@Concurrency@@@details@Concurrency@@UAEKXZ 100273d9 f i libconcrt:ThreadProxyFactoryManager.obj
 0001:000263dd       ?GetFreeThreadProxyFactory@ThreadProxyFactoryManager@details@Concurrency@@QAEPAVFreeThreadProxyFactory@23@XZ 100273dd f   libconcrt:ThreadProxyFactoryManager.obj
 0001:00026425       ?Prepare@?$ThreadProxyFactory@VFreeThreadProxy@details@Concurrency@@@details@Concurrency@@MAEXPAVFreeThreadProxy@23@H@Z 10027425 f i libconcrt:ThreadProxyFactoryManager.obj
 0001:0002643d       ?ReclaimProxy@?$ThreadProxyFactory@VFreeThreadProxy@details@Concurrency@@@details@Concurrency@@UAEXPAUIThreadProxy@3@@Z 1002743d f i libconcrt:ThreadProxyFactoryManager.obj
 0001:0002649f       ?ReclaimProxy@FreeThreadProxyFactory@details@Concurrency@@UAEXPAUIThreadProxy@3@@Z 1002749f f i libconcrt:ThreadProxyFactoryManager.obj
 0001:00026542       ?Reference@FreeThreadProxyFactory@details@Concurrency@@UAEJXZ 10027542 f i libconcrt:ThreadProxyFactoryManager.obj
 0001:0002654c       ?Release@FreeThreadProxyFactory@details@Concurrency@@UAEJXZ 1002754c f i libconcrt:ThreadProxyFactoryManager.obj
 0001:00026578       ?RequestProxy@?$ThreadProxyFactory@VFreeThreadProxy@details@Concurrency@@@details@Concurrency@@UAEPAUIThreadProxy@3@IH@Z 10027578 f i libconcrt:ThreadProxyFactoryManager.obj
 0001:000265fa       ?Retire@FreeThreadProxyFactory@details@Concurrency@@EAEXPAVFreeThreadProxy@23@@Z 100275fa f i libconcrt:ThreadProxyFactoryManager.obj
 0001:00026609       ?RetireThreadProxies@?$ThreadProxyFactory@VFreeThreadProxy@details@Concurrency@@@details@Concurrency@@QAEXXZ 10027609 f i libconcrt:ThreadProxyFactoryManager.obj
 0001:00026676       ?ShutdownFactory@FreeThreadProxyFactory@details@Concurrency@@UAEXXZ 10027676 f i libconcrt:ThreadProxyFactoryManager.obj
 0001:00026696       ?StaticInitialize@?$ThreadProxyFactory@VFreeThreadProxy@details@Concurrency@@@details@Concurrency@@KAXXZ 10027696 f i libconcrt:ThreadProxyFactoryManager.obj
 0001:000266ad       ?YieldToSystem@FreeThreadProxy@details@Concurrency@@UAEXXZ 100276ad f i libconcrt:ThreadProxyFactoryManager.obj
 0001:000266b2       ??0Etw@details@Concurrency@@AAE@XZ 100276b2 f   libconcrt:Trace.obj
 0001:0002677e       ?ControlCallback@details@Concurrency@@YGKW4WMIDPREQUESTCODE@@PAXPAK1@Z 1002777e f   libconcrt:Trace.obj
 0001:00026845       ?GetEnableFlags@Etw@details@Concurrency@@QAEK_K@Z 10027845 f   libconcrt:Trace.obj
 0001:00026881       ?GetEnableLevel@Etw@details@Concurrency@@QAEE_K@Z 10027881 f   libconcrt:Trace.obj
 0001:000268bd       ?GetLoggerHandle@Etw@details@Concurrency@@QAE_KPAX@Z 100278bd f   libconcrt:Trace.obj
 0001:000268f9       ?RegisterGuids@Etw@details@Concurrency@@QAEKP6GKW4WMIDPREQUESTCODE@@PAXPAK1@ZPBU_GUID@@KPAU_TRACE_GUID_REGISTRATION@@PA_K@Z 100278f9 f   libconcrt:Trace.obj
 0001:0002693c       ?Trace@Etw@details@Concurrency@@QAEK_KPAU_EVENT_TRACE_HEADER@@@Z 1002793c f   libconcrt:Trace.obj
 0001:00026974       ?UnregisterGuids@Etw@details@Concurrency@@QAEK_K@Z 10027974 f   libconcrt:Trace.obj
 0001:000269a9       ?_RegisterConcRTEventTracing@details@Concurrency@@YAXXZ 100279a9 f   libconcrt:Trace.obj
 0001:00026a18       ?_UnregisterConcRTEventTracing@details@Concurrency@@YAXXZ 10027a18 f   libconcrt:Trace.obj
 0001:00026a5b       ??$_InternalDeleteHelper@VScheduleGroupSegmentBase@details@Concurrency@@@details@Concurrency@@YAXPAVScheduleGroupSegmentBase@01@@Z 10027a5b f i libconcrt:SchedulingRing.obj
 0001:00026a5b       ??$_InternalDeleteHelper@VVirtualProcessor@details@Concurrency@@@details@Concurrency@@YAXPAVVirtualProcessor@01@@Z 10027a5b f i libconcrt:VirtualProcessor.obj
 0001:00026a7c       ??0Slot@?$Mailbox@VInternalContextBase@details@Concurrency@@@details@Concurrency@@QAE@XZ 10027a7c f i libconcrt:VirtualProcessor.obj
 0001:00026a86       ??0VirtualProcessor@details@Concurrency@@QAE@XZ 10027a86 f   libconcrt:VirtualProcessor.obj
 0001:00026ae8       ??1?$StructuredWorkStealingQueue@VInternalContextBase@details@Concurrency@@V_HyperNonReentrantLock@23@@details@Concurrency@@QAE@XZ 10027ae8 f i libconcrt:VirtualProcessor.obj
 0001:00026ae8       ??1?$StructuredWorkStealingQueue@V_UnrealizedChore@details@Concurrency@@V_CriticalNonReentrantLock@23@@details@Concurrency@@QAE@XZ 10027ae8 f i libconcrt:ContextBase.obj
 0001:00026aff       ??1Segment@?$Mailbox@VInternalContextBase@details@Concurrency@@@details@Concurrency@@QAE@XZ 10027aff f i libconcrt:VirtualProcessor.obj
 0001:00026aff       ??1Segment@?$Mailbox@V_UnrealizedChore@details@Concurrency@@@details@Concurrency@@QAE@XZ 10027aff f i libconcrt:ContextBase.obj
 0001:00026b16       ??1VirtualProcessor@details@Concurrency@@UAE@XZ 10027b16 f   libconcrt:VirtualProcessor.obj
 0001:00026b78       ??_GVirtualProcessor@details@Concurrency@@UAEPAXI@Z 10027b78 f i libconcrt:VirtualProcessor.obj
 0001:00026b78       ??_EVirtualProcessor@details@Concurrency@@UAEPAXI@Z 10027b78 f i libconcrt:VirtualProcessor.obj
 0001:00026b9d       ?AcknowledgedAffinityMessage@SchedulerBase@details@Concurrency@@QAE_NI@Z 10027b9d f i libconcrt:VirtualProcessor.obj
 0001:00026bd4       ?Affinitize@VirtualProcessor@details@Concurrency@@MAEXPAVInternalContextBase@23@@Z 10027bd4 f   libconcrt:VirtualProcessor.obj
 0001:00026c1c       ?CheckAffinityNotification@VirtualProcessor@details@Concurrency@@QAE_NXZ 10027c1c f   libconcrt:VirtualProcessor.obj
 0001:00026c3a       ?CheckForDeletion@?$ListArray@VVirtualProcessor@details@Concurrency@@@details@Concurrency@@AAEXXZ 10027c3a f i libconcrt:VirtualProcessor.obj
 0001:00026c60       ?CheckForDeletionBridge@?$ListArray@VVirtualProcessor@details@Concurrency@@@details@Concurrency@@CAXPAV123@@Z 10027c60 f i libconcrt:VirtualProcessor.obj
 0001:00026c6c       ?Claim@Slot@?$Mailbox@VInternalContextBase@details@Concurrency@@@details@Concurrency@@QAE_NPAPAVInternalContextBase@34@@Z 10027c6c f i libconcrt:VirtualProcessor.obj
 0001:00026cb3       ?ClaimExclusiveOwnership@VirtualProcessor@details@Concurrency@@QAE_NAAVClaimTicket@123@K_N@Z 10027cb3 f   libconcrt:VirtualProcessor.obj
 0001:00026d48       ?ClearQuickCacheSlot@SchedulerBase@details@Concurrency@@QAEXI@Z 10027d48 f i libconcrt:VirtualProcessor.obj
 0001:00026d6d       ?Deactivate@VirtualProcessor@details@Concurrency@@QAE_NPAUIExecutionContext@3@@Z 10027d6d f   libconcrt:VirtualProcessor.obj
 0001:00026d8e       ?DeleteElements@?$ListArray@VVirtualProcessor@details@Concurrency@@@details@Concurrency@@AAEXPAU_SINGLE_LIST_ENTRY@@@Z 10027d8e f i libconcrt:VirtualProcessor.obj
 0001:00026daf       ?Dereference@Segment@?$Mailbox@VInternalContextBase@details@Concurrency@@@details@Concurrency@@QAEXXZ 10027daf f i libconcrt:VirtualProcessor.obj
 0001:00026dca       ?EnsureAllTasksVisible@VirtualProcessor@details@Concurrency@@QAEXPAUIExecutionContext@3@@Z 10027dca f   libconcrt:VirtualProcessor.obj
 0001:00026deb       ?ExerciseClaim@VirtualProcessor@details@Concurrency@@AAE_NW4AvailabilityType@123@PAVScheduleGroupSegmentBase@23@PAVInternalContextBase@23@@Z 10027deb f   libconcrt:VirtualProcessor.obj
 0001:00026e7a       ?ExerciseWith@ClaimTicket@VirtualProcessor@details@Concurrency@@QAE_NPAVInternalContextBase@34@@Z 10027e7a f   libconcrt:VirtualProcessor.obj
 0001:00026ea5       ?GetCurrentSubAllocator@VirtualProcessor@details@Concurrency@@QAEPAVSubAllocator@23@XZ 10027ea5 f   libconcrt:VirtualProcessor.obj
 0001:00026ebe       ?GetResourceMaskId@SchedulerBase@details@Concurrency@@QAEII@Z 10027ebe f i libconcrt:VirtualProcessor.obj
 0001:00026ede       ?Initialize@VirtualProcessor@details@Concurrency@@MAEXPAVSchedulingNode@23@PAUIVirtualProcessorRoot@3@@Z 10027ede f   libconcrt:VirtualProcessor.obj
 0001:00027056       ?InterlockedClear@ReferenceCountedQuickBitSet@details@Concurrency@@QAEII@Z 10028056 f i libconcrt:VirtualProcessor.obj
 0001:00027096       ?InterlockedSet@ReferenceCountedQuickBitSet@details@Concurrency@@QAEII@Z 10028096 f i libconcrt:VirtualProcessor.obj
 0001:000270dc       ?MakeAvailable@VirtualProcessor@details@Concurrency@@IAEXW4AvailabilityType@123@_N@Z 100280dc f   libconcrt:VirtualProcessor.obj
 0001:0002714c       ?MarkForRetirement@VirtualProcessor@details@Concurrency@@AAEXXZ 1002814c f   libconcrt:VirtualProcessor.obj
 0001:000271ac       ?Oversubscribe@VirtualProcessor@details@Concurrency@@EAEPAV123@XZ 100281ac f   libconcrt:VirtualProcessor.obj
 0001:000271de       ?Pop@?$StructuredWorkStealingQueue@VInternalContextBase@details@Concurrency@@V_HyperNonReentrantLock@23@@details@Concurrency@@QAEPAVInternalContextBase@23@XZ 100281de f i libconcrt:VirtualProcessor.obj
 0001:0002722c       ?Remove@?$ListArray@VVirtualProcessor@details@Concurrency@@@details@Concurrency@@QAE_NPAVVirtualProcessor@23@H_N@Z 1002822c f i libconcrt:VirtualProcessor.obj
 0001:0002732e       ?Retire@VirtualProcessor@details@Concurrency@@MAEXXZ 1002832e f   libconcrt:VirtualProcessor.obj
 0001:0002748e       ?SafePoint@VirtualProcessor@details@Concurrency@@QAE_NXZ 1002848e f   libconcrt:VirtualProcessor.obj
 0001:000274a2       ?SaveRetiredVirtualProcessorStatistics@SchedulerBase@details@Concurrency@@QAEXPAVVirtualProcessor@23@@Z 100284a2 f i libconcrt:VirtualProcessor.obj
 0001:000274dc       ?SpinUntilClear@QuickBitSet@details@Concurrency@@QBEXI@Z 100284dc f i libconcrt:VirtualProcessor.obj
 0001:00027526       ?SpinUntilSet@QuickBitSet@details@Concurrency@@QBEXI@Z 10028526 f i libconcrt:VirtualProcessor.obj
 0001:00027570       ?StartupWorkerContext@VirtualProcessor@details@Concurrency@@EAE_NPAVScheduleGroupSegmentBase@23@PAVInternalContextBase@23@@Z 10028570 f   libconcrt:VirtualProcessor.obj
 0001:0002760f       ?StaticDelete@Segment@?$Mailbox@VInternalContextBase@details@Concurrency@@@details@Concurrency@@SAXPAU1234@@Z 1002860f f i libconcrt:VirtualProcessor.obj
 0001:0002760f       ?StaticDelete@Segment@?$Mailbox@V_UnrealizedChore@details@Concurrency@@@details@Concurrency@@SAXPAU1234@@Z 1002860f f i libconcrt:ContextBase.obj
 0001:0002762e       ?ThrowVirtualProcessorEvent@VirtualProcessor@details@Concurrency@@CAXW4ConcRT_EventType@3@EKK@Z 1002862e f   libconcrt:VirtualProcessor.obj
 0001:000276a1       ?ToInternalContext@VirtualProcessor@details@Concurrency@@MAEPAVInternalContextBase@23@PAUIExecutionContext@3@@Z 100286a1 f   libconcrt:VirtualProcessor.obj
 0001:000276ab       ?TraceVirtualProcessorEvent@VirtualProcessor@details@Concurrency@@AAEXW4ConcRT_EventType@3@EKK@Z 100286ab f i libconcrt:VirtualProcessor.obj
 0001:000276d8       ?UpdateWorkState@VirtualProcessor@details@Concurrency@@QAEX_N0@Z 100286d8 f   libconcrt:VirtualProcessor.obj
 0001:00027738       ?Wipe@QuickBitSet@details@Concurrency@@QAEXXZ 10028738 f i libconcrt:VirtualProcessor.obj
 0001:00027755       ??0SchedulingNode@details@Concurrency@@QAE@ABVQuickBitSet@12@KPAVSchedulingRing@12@@Z 10028755 f   libconcrt:SchedulingNode.obj
 0001:000277d2       ??1?$ListArray@VVirtualProcessor@details@Concurrency@@@details@Concurrency@@QAE@XZ 100287d2 f i libconcrt:SchedulingNode.obj
 0001:00027849       ??1SchedulingNode@details@Concurrency@@QAE@XZ 10028849 f   libconcrt:SchedulingNode.obj
 0001:00027872       ?Add@?$ListArray@VVirtualProcessor@details@Concurrency@@@details@Concurrency@@QAEHPAVVirtualProcessor@23@@Z 10028872 f i libconcrt:SchedulingNode.obj
 0001:000279d5       ?AddVirtualProcessor@SchedulingNode@details@Concurrency@@QAEPAVVirtualProcessor@23@PAUIVirtualProcessorRoot@3@_N@Z 100289d5 f   libconcrt:SchedulingNode.obj
 0001:00027adc       ?FindMatchingVirtualProcessor@SchedulingNode@details@Concurrency@@QAEPAVVirtualProcessor@23@PAUIVirtualProcessorRoot@3@@Z 10028adc f   libconcrt:SchedulingNode.obj
 0001:00027b1b       ?FindVirtualProcessorByLocation@SchedulingNode@details@Concurrency@@QAEPAVVirtualProcessor@23@PBVlocation@3@@Z 10028b1b f   libconcrt:SchedulingNode.obj
 0001:00027b78       ?FoundAvailableVirtualProcessor@SchedulingNode@details@Concurrency@@AAE_NAAVClaimTicket@VirtualProcessor@23@Vlocation@3@K@Z 10028b78 f   libconcrt:SchedulingNode.obj
 0001:00027be8       ?GetLocation@SchedulingNode@details@Concurrency@@QAE?AVlocation@3@XZ 10028be8 f   libconcrt:SchedulingNode.obj
 0001:00027c1b       ?Steal@?$StructuredWorkStealingQueue@VInternalContextBase@details@Concurrency@@V_HyperNonReentrantLock@23@@details@Concurrency@@QAEPAVInternalContextBase@23@_N@Z 10028c1b f i libconcrt:SchedulingNode.obj
 0001:00027c5e       ?UnlockedSteal@?$StructuredWorkStealingQueue@VInternalContextBase@details@Concurrency@@V_HyperNonReentrantLock@23@@details@Concurrency@@QAEPAVInternalContextBase@23@_N@Z 10028c5e f i libconcrt:SchedulingNode.obj
 0001:00027cdc       ??0AllocatorBucket@details@Concurrency@@QAE@XZ 10028cdc f   libconcrt:SubAllocator.obj
 0001:00027cf1       ??1AllocatorBucket@details@Concurrency@@QAE@XZ 10028cf1 f   libconcrt:SubAllocator.obj
 0001:00027d45       ?Alloc@AllocatorBucket@details@Concurrency@@QAEPATAllocationEntry@23@XZ 10028d45 f   libconcrt:SubAllocator.obj
 0001:00027d5e       ?Alloc@SubAllocator@details@Concurrency@@QAEPAXI@Z 10028d5e f   libconcrt:SubAllocator.obj
 0001:00027dae       ?Free@AllocatorBucket@details@Concurrency@@QAE_NPATAllocationEntry@23@@Z 10028dae f   libconcrt:SubAllocator.obj
 0001:00027dd8       ?Free@SubAllocator@details@Concurrency@@QAEXPAX@Z 10028dd8 f   libconcrt:SubAllocator.obj
 0001:00027e0f       ?GetBucketIndex@SubAllocator@details@Concurrency@@SAHI@Z 10028e0f f   libconcrt:SubAllocator.obj
 0001:00027e64       ?StaticAlloc@SubAllocator@details@Concurrency@@SAPAXI@Z 10028e64 f   libconcrt:SubAllocator.obj
 0001:00027e9d       ??0InternalContextBase@details@Concurrency@@QAE@PAVSchedulerBase@12@@Z 10028e9d f   libconcrt:InternalContextBase.obj
 0001:00027f16       ??0context_self_unblock@Concurrency@@QAE@ABV01@@Z 10028f16 f i libconcrt:InternalContextBase.obj
 0001:00027f31       ??0context_unblock_unbalanced@Concurrency@@QAE@ABV01@@Z 10028f31 f i libconcrt:InternalContextBase.obj
 0001:00027f4c       ??0invalid_oversubscribe_operation@Concurrency@@QAE@ABV01@@Z 10028f4c f i libconcrt:InternalContextBase.obj
 0001:00027f67       ??0nested_scheduler_missing_detach@Concurrency@@QAE@ABV01@@Z 10028f67 f i libconcrt:InternalContextBase.obj
 0001:00027f82       ??1InternalContextBase@details@Concurrency@@UAE@XZ 10028f82 f   libconcrt:InternalContextBase.obj
 0001:00027fd0       ??1ScopedCriticalRegion@ContextBase@details@Concurrency@@QAE@XZ 10028fd0 f i libconcrt:InternalContextBase.obj
 0001:00028008       ??_EInternalContextBase@details@Concurrency@@W3AEPAXI@Z 10029008 f i libconcrt:InternalContextBase.obj
 0001:00028010       ??_GInternalContextBase@details@Concurrency@@UAEPAXI@Z 10029010 f i libconcrt:InternalContextBase.obj
 0001:00028010       ??_EInternalContextBase@details@Concurrency@@UAEPAXI@Z 10029010 f i libconcrt:InternalContextBase.obj
 0001:00028035       ?AddToRunnables@InternalContextBase@details@Concurrency@@MAEXVlocation@3@@Z 10029035 f   libconcrt:InternalContextBase.obj
 0001:000281c2       ?Alloc@InternalContextBase@details@Concurrency@@UAEPAXI@Z 100291c2 f   libconcrt:InternalContextBase.obj
 0001:00028216       ?Block@InternalContextBase@details@Concurrency@@UAEXXZ 10029216 f   libconcrt:InternalContextBase.obj
 0001:00028350       ?Cancel@InternalContextBase@details@Concurrency@@MAEXXZ 10029350 f   libconcrt:InternalContextBase.obj
 0001:000283c4       ?Cleanup@InternalContextBase@details@Concurrency@@IAEXXZ 100293c4 f   libconcrt:InternalContextBase.obj
 0001:000283dc       ?CleanupDispatchedContextOnCancel@InternalContextBase@details@Concurrency@@IAEXXZ 100293dc f   libconcrt:InternalContextBase.obj
 0001:000283f7       ?Dispatch@InternalContextBase@details@Concurrency@@UAEXPAUDispatchState@3@@Z 100293f7 f   libconcrt:InternalContextBase.obj
 0001:0002858c       ?ExecuteChoreInline@InternalContextBase@details@Concurrency@@IAEXPAVWorkItem@23@@Z 1002958c f   libconcrt:InternalContextBase.obj
 0001:000285c9       ?ExecutedAssociatedChore@InternalContextBase@details@Concurrency@@IAE_NXZ 100295c9 f   libconcrt:InternalContextBase.obj
 0001:0002863c       ?FindWorkForBlockingOrNesting@InternalContextBase@details@Concurrency@@AAEPAV123@AA_N0@Z 1002963c f   libconcrt:InternalContextBase.obj
 0001:0002876b       ?Free@InternalContextBase@details@Concurrency@@UAEXPAX@Z 1002976b f   libconcrt:InternalContextBase.obj
 0001:00028797       ?GetAndResetOversubscribedVProc@InternalContextBase@details@Concurrency@@QAEPAVVirtualProcessor@23@PAV423@@Z 10029797 f   libconcrt:InternalContextBase.obj
 0001:000287c5       ?GetId@InternalContextBase@details@Concurrency@@UBEIXZ 100297c5 f   libconcrt:InternalContextBase.obj
 0001:000287c9       ?GetId@InternalContextBase@details@Concurrency@@W3BEIXZ 100297c9 f i libconcrt:InternalContextBase.obj
 0001:000287d1       ?GetProxy@InternalContextBase@details@Concurrency@@UAEPAUIThreadProxy@3@XZ 100297d1 f   libconcrt:InternalContextBase.obj
 0001:000287d8       ?GetScheduler@InternalContextBase@details@Concurrency@@UAEPAUIScheduler@3@XZ 100297d8 f   libconcrt:InternalContextBase.obj
 0001:000287f0       ?GetVirtualProcessorId@InternalContextBase@details@Concurrency@@UBEIXZ 100297f0 f   libconcrt:InternalContextBase.obj
 0001:0002881f       ?GrowAndPush@?$StructuredWorkStealingQueue@VInternalContextBase@details@Concurrency@@V_HyperNonReentrantLock@23@@details@Concurrency@@AAEXPAVInternalContextBase@23@VSlot@?$Mailbox@VInternalContextBase@details@Concurrency@@@23@@Z 1002981f f i libconcrt:InternalContextBase.obj
 0001:00028997       ?IsSynchronouslyBlocked@InternalContextBase@details@Concurrency@@UBE_NXZ 10029997 f i libconcrt:InternalContextBase.obj
 0001:000289a3       ?IsVirtualProcessorRetired@InternalContextBase@details@Concurrency@@IAE_NXZ 100299a3 f   libconcrt:InternalContextBase.obj
 0001:00028a01       ?LeaveScheduler@InternalContextBase@details@Concurrency@@AAEXXZ 10029a01 f   libconcrt:InternalContextBase.obj
 0001:00028b05       ?Oversubscribe@InternalContextBase@details@Concurrency@@UAEX_N@Z 10029b05 f   libconcrt:InternalContextBase.obj
 0001:00028b8c       ?PrepareForUse@InternalContextBase@details@Concurrency@@QAEXPAVScheduleGroupSegmentBase@23@PAU_Chore@23@_N@Z 10029b8c f   libconcrt:InternalContextBase.obj
 0001:00028be5       ?PrepareToRun@InternalContextBase@details@Concurrency@@MAEXPAVVirtualProcessor@23@@Z 10029be5 f i libconcrt:InternalContextBase.obj
 0001:00028bfc       ?Push@?$StructuredWorkStealingQueue@VInternalContextBase@details@Concurrency@@V_HyperNonReentrantLock@23@@details@Concurrency@@QAEXPAVInternalContextBase@23@@Z 10029bfc f i libconcrt:InternalContextBase.obj
 0001:00028c3d       ?ReclaimVirtualProcessor@InternalContextBase@details@Concurrency@@IAEXXZ 10029c3d f   libconcrt:InternalContextBase.obj
 0001:00028ca7       ?RejoinScheduler@InternalContextBase@details@Concurrency@@AAEXXZ 10029ca7 f   libconcrt:InternalContextBase.obj
 0001:00028cc6       ?RemoveFromUse@InternalContextBase@details@Concurrency@@QAEXXZ 10029cc6 f   libconcrt:InternalContextBase.obj
 0001:00028ce9       ?SearchForWork@VirtualProcessor@details@Concurrency@@QAE_NPAVWorkItem@23@PAVScheduleGroupSegmentBase@23@_N@Z 10029ce9 f i libconcrt:InternalContextBase.obj
 0001:00028d10       ?SetProxy@InternalContextBase@details@Concurrency@@UAEXPAUIThreadProxy@3@@Z 10029d10 f   libconcrt:InternalContextBase.obj
 0001:00028d45       ?SpinUntilBlocked@InternalContextBase@details@Concurrency@@IAEXXZ 10029d45 f   libconcrt:InternalContextBase.obj
 0001:00028d72       ?SpinUntilValueEquals@details@Concurrency@@YAXPCJJ@Z 10029d72 f i libconcrt:InternalContextBase.obj
 0001:00028da1       ?SpinYield@InternalContextBase@details@Concurrency@@UAEXXZ 10029da1 f   libconcrt:InternalContextBase.obj
 0001:00028e5c       ?SwapScheduleGroupSegment@InternalContextBase@details@Concurrency@@QAEXPAVScheduleGroupSegmentBase@23@_N@Z 10029e5c f   libconcrt:InternalContextBase.obj
 0001:00028ea7       ?SwitchOut@InternalContextBase@details@Concurrency@@IAE_NW4ReasonForSwitch@123@@Z 10029ea7 f   libconcrt:InternalContextBase.obj
 0001:00028fc6       ?SwitchTo@InternalContextBase@details@Concurrency@@IAEXPAV123@W4ReasonForSwitch@123@@Z 10029fc6 f   libconcrt:InternalContextBase.obj
 0001:000290ff       ?Unblock@InternalContextBase@details@Concurrency@@UAEXXZ 1002a0ff f   libconcrt:InternalContextBase.obj
 0001:000291be       ?WaitForWork@InternalContextBase@details@Concurrency@@IAEXXZ 1002a1be f   libconcrt:InternalContextBase.obj
 0001:000292ba       ?WorkWasFound@InternalContextBase@details@Concurrency@@IAE_NPAVWorkItem@23@@Z 1002a2ba f   libconcrt:InternalContextBase.obj
 0001:00029316       ?Yield@InternalContextBase@details@Concurrency@@UAEXXZ 1002a316 f   libconcrt:InternalContextBase.obj
 0001:0002949a       ??0SchedulingRing@details@Concurrency@@QAE@PAVSchedulerBase@12@H@Z 1002a49a f   libconcrt:SchedulingRing.obj
 0001:00029523       ??1?$ListArray@VScheduleGroupSegmentBase@details@Concurrency@@@details@Concurrency@@QAE@XZ 1002a523 f i libconcrt:SchedulingRing.obj
 0001:0002959a       ??1SchedulingRing@details@Concurrency@@QAE@XZ 1002a59a f   libconcrt:SchedulingRing.obj
 0001:000295b2       ?Activate@SchedulingRing@details@Concurrency@@QAEXXZ 1002a5b2 f   libconcrt:SchedulingRing.obj
 0001:000295be       ?CheckForDeletion@?$ListArray@VScheduleGroupSegmentBase@details@Concurrency@@@details@Concurrency@@AAEXXZ 1002a5be f i libconcrt:SchedulingRing.obj
 0001:000295e4       ?CheckForDeletionBridge@?$ListArray@VScheduleGroupSegmentBase@details@Concurrency@@@details@Concurrency@@CAXPAV123@@Z 1002a5e4 f i libconcrt:SchedulingRing.obj
 0001:000295f0       ?DeleteElements@?$ListArray@VScheduleGroupSegmentBase@details@Concurrency@@@details@Concurrency@@AAEXPAU_SINGLE_LIST_ENTRY@@@Z 1002a5f0 f i libconcrt:SchedulingRing.obj
 0001:00029611       ?Remove@?$ListArray@VScheduleGroupSegmentBase@details@Concurrency@@@details@Concurrency@@QAE_NPAVScheduleGroupSegmentBase@23@H_N@Z 1002a611 f i libconcrt:SchedulingRing.obj
 0001:00029713       ?RemoveScheduleGroupSegment@SchedulingRing@details@Concurrency@@AAEXPAVScheduleGroupSegmentBase@23@@Z 1002a713 f   libconcrt:SchedulingRing.obj
 0001:0002973c       ??0?$ListArray@VWorkQueue@details@Concurrency@@@details@Concurrency@@QAE@PAVSchedulerBase@12@HH@Z 1002a73c f i libconcrt:ScheduleGroupBase.obj
 0001:0002973c       ??0?$ListArray@VScheduleGroupSegmentBase@details@Concurrency@@@details@Concurrency@@QAE@PAVSchedulerBase@12@HH@Z 1002a73c f i libconcrt:SchedulingRing.obj
 0001:0002973c       ??0?$ListArray@U?$ListArrayInlineLink@VWorkQueue@details@Concurrency@@@details@Concurrency@@@details@Concurrency@@QAE@PAVSchedulerBase@12@HH@Z 1002a73c f i libconcrt:ScheduleGroupBase.obj
 0001:0002973c       ??0?$ListArray@VExternalStatistics@details@Concurrency@@@details@Concurrency@@QAE@PAVSchedulerBase@12@HH@Z 1002a73c f i libconcrt:SchedulerBase.obj
 0001:0002973c       ??0?$ListArray@VScheduleGroupBase@details@Concurrency@@@details@Concurrency@@QAE@PAVSchedulerBase@12@HH@Z 1002a73c f i libconcrt:SchedulerBase.obj
 0001:0002973c       ??0?$ListArray@VVirtualProcessor@details@Concurrency@@@details@Concurrency@@QAE@PAVSchedulerBase@12@HH@Z 1002a73c f i libconcrt:SchedulingNode.obj
 0001:00029835       ??0?$Mailbox@V_UnrealizedChore@details@Concurrency@@@details@Concurrency@@QAE@PAVSchedulerBase@12@ABVQuickBitSet@12@_NI@Z 1002a835 f i libconcrt:ScheduleGroupBase.obj
 0001:000298ac       ??0ScheduleGroupBase@details@Concurrency@@QAE@PAVSchedulerBase@12@PAVlocation@2@@Z 1002a8ac f   libconcrt:ScheduleGroupBase.obj
 0001:00029905       ??0ScheduleGroupSegmentBase@details@Concurrency@@IAE@PAVScheduleGroupBase@12@PAVSchedulingRing@12@PAVlocation@2@@Z 1002a905 f   libconcrt:ScheduleGroupBase.obj
 0001:000299c5       ??0Segment@?$Mailbox@V_UnrealizedChore@details@Concurrency@@@details@Concurrency@@QAE@PAVSchedulerBase@23@ABVQuickBitSet@23@II@Z 1002a9c5 f i libconcrt:ScheduleGroupBase.obj
 0001:00029a31       ??1?$ListArray@U?$ListArrayInlineLink@VWorkQueue@details@Concurrency@@@details@Concurrency@@@details@Concurrency@@QAE@XZ 1002aa31 f i libconcrt:ScheduleGroupBase.obj
 0001:00029aab       ??1?$ListArray@VWorkQueue@details@Concurrency@@@details@Concurrency@@QAE@XZ 1002aaab f i libconcrt:ScheduleGroupBase.obj
 0001:00029b27       ??1?$Mailbox@V_UnrealizedChore@details@Concurrency@@@details@Concurrency@@QAE@XZ 1002ab27 f i libconcrt:ScheduleGroupBase.obj
 0001:00029b8d       ??1ScheduleGroupSegmentBase@details@Concurrency@@UAE@XZ 1002ab8d f   libconcrt:ScheduleGroupBase.obj
 0001:00029bdb       ??4QuickBitSet@details@Concurrency@@QAEAAV012@$$QAV012@@Z 1002abdb f i libconcrt:ScheduleGroupBase.obj
 0001:00029c05       ??_EScheduleGroupBase@details@Concurrency@@UAEPAXI@Z 1002ac05 f i libconcrt:ScheduleGroupBase.obj
 0001:00029c05       ??_ECacheLocalScheduleGroup@details@Concurrency@@UAEPAXI@Z 1002ac05 f i libconcrt:SchedulerBase.obj
 0001:00029c05       ??_GCacheLocalScheduleGroup@details@Concurrency@@UAEPAXI@Z 1002ac05 f i libconcrt:SchedulerBase.obj
 0001:00029c05       ??_GScheduleGroupBase@details@Concurrency@@UAEPAXI@Z 1002ac05 f i libconcrt:ScheduleGroupBase.obj
 0001:00029c28       ??_EScheduleGroupSegmentBase@details@Concurrency@@UAEPAXI@Z 1002ac28 f i libconcrt:ScheduleGroupBase.obj
 0001:00029c28       ??_GScheduleGroupSegmentBase@details@Concurrency@@UAEPAXI@Z 1002ac28 f i libconcrt:ScheduleGroupBase.obj
 0001:00029c4d       ?Add@?$ListArray@U?$ListArrayInlineLink@VWorkQueue@details@Concurrency@@@details@Concurrency@@@details@Concurrency@@QAEHPAU?$ListArrayInlineLink@VWorkQueue@details@Concurrency@@@23@@Z 1002ac4d f i libconcrt:ScheduleGroupBase.obj
 0001:00029daf       ?Add@?$ListArray@VExternalStatistics@details@Concurrency@@@details@Concurrency@@QAEHPAVExternalStatistics@23@@Z 1002adaf f i libconcrt:ScheduleGroupBase.obj
 0001:00029f11       ?Add@?$ListArray@VScheduleGroupSegmentBase@details@Concurrency@@@details@Concurrency@@QAEHPAVScheduleGroupSegmentBase@23@@Z 1002af11 f i libconcrt:ScheduleGroupBase.obj
 0001:0002a077       ?AddRunnableContext@ScheduleGroupSegmentBase@details@Concurrency@@IAEXPAVInternalContextBase@23@Vlocation@3@@Z 1002b077 f   libconcrt:ScheduleGroupBase.obj
 0001:0002a15b       ?CheckForDeletion@?$ListArray@U?$ListArrayInlineLink@VWorkQueue@details@Concurrency@@@details@Concurrency@@@details@Concurrency@@AAEXXZ 1002b15b f i libconcrt:ScheduleGroupBase.obj
 0001:0002a181       ?CheckForDeletionBridge@?$ListArray@U?$ListArrayInlineLink@VWorkQueue@details@Concurrency@@@details@Concurrency@@@details@Concurrency@@CAXPAV123@@Z 1002b181 f i libconcrt:ScheduleGroupBase.obj
 0001:0002a18d       ?ClearQuickCacheSlotIf@SchedulerBase@details@Concurrency@@QAEXIPAVScheduleGroupSegmentBase@23@@Z 1002b18d f i libconcrt:ScheduleGroupBase.obj
 0001:0002a1b2       ?CreateSegment@ScheduleGroupBase@details@Concurrency@@IAEPAVScheduleGroupSegmentBase@23@PAVlocation@3@PAVSchedulingRing@23@@Z 1002b1b2 f   libconcrt:ScheduleGroupBase.obj
 0001:0002a261       ?DeleteElements@?$ListArray@U?$ListArrayInlineLink@VWorkQueue@details@Concurrency@@@details@Concurrency@@@details@Concurrency@@AAEXPAU_SINGLE_LIST_ENTRY@@@Z 1002b261 f i libconcrt:ScheduleGroupBase.obj
 0001:0002a282       ?DemandInitialize@?$Mailbox@V_UnrealizedChore@details@Concurrency@@@details@Concurrency@@AAEXXZ 1002b282 f i libconcrt:ScheduleGroupBase.obj
 0001:0002a2f8       ?Dequeue@?$Mailbox@V_UnrealizedChore@details@Concurrency@@@details@Concurrency@@QAE_NPAPAV_UnrealizedChore@23@@Z 1002b2f8 f i libconcrt:ScheduleGroupBase.obj
 0001:0002a3bc       ?Dequeue@?$SQueue@VRealizedChore@details@Concurrency@@@details@Concurrency@@QAEPAVRealizedChore@23@XZ 1002b3bc f i libconcrt:ScheduleGroupBase.obj
 0001:0002a3bc       ?Dequeue@?$SQueue@VSafePointInvocation@details@Concurrency@@@details@Concurrency@@QAEPAVSafePointInvocation@23@XZ 1002b3bc f i libconcrt:SchedulerBase.obj
 0001:0002a3d6       ?Dequeue@?$SafeSQueue@VRealizedChore@details@Concurrency@@V_HyperNonReentrantLock@23@@details@Concurrency@@QAEPAVRealizedChore@23@XZ 1002b3d6 f i libconcrt:ScheduleGroupBase.obj
 0001:0002a40a       ?DetachActiveWorkQueue@ScheduleGroupSegmentBase@details@Concurrency@@IAEXPAVWorkQueue@23@@Z 1002b40a f   libconcrt:ScheduleGroupBase.obj
 0001:0002a449       ?Enqueue@?$SafeSQueue@VRealizedChore@details@Concurrency@@V_HyperNonReentrantLock@23@@details@Concurrency@@QAEXPAVRealizedChore@23@@Z 1002b449 f i libconcrt:ScheduleGroupBase.obj
 0001:0002a484       ?FindSegment@ScheduleGroupBase@details@Concurrency@@MAEPAVScheduleGroupSegmentBase@23@PAVlocation@3@PAVSchedulingRing@23@@Z 1002b484 f   libconcrt:ScheduleGroupBase.obj
 0001:0002a4da       ?GetDetachedWorkQueue@ScheduleGroupSegmentBase@details@Concurrency@@IAEPAVWorkQueue@23@XZ 1002b4da f   libconcrt:ScheduleGroupBase.obj
 0001:0002a541       ?GetInternalContext@ScheduleGroupSegmentBase@details@Concurrency@@IAEPAVInternalContextBase@23@PAU_Chore@23@_N@Z 1002b541 f   libconcrt:ScheduleGroupBase.obj
 0001:0002a574       ?GetRealizedChore@ScheduleGroupSegmentBase@details@Concurrency@@IAEPAVRealizedChore@23@XZ 1002b574 f   libconcrt:ScheduleGroupBase.obj
 0001:0002a584       ?Grow@?$Mailbox@V_UnrealizedChore@details@Concurrency@@@details@Concurrency@@AAEPAUSegment@123@PAU4123@@Z 1002b584 f i libconcrt:ScheduleGroupBase.obj
 0001:0002a5ce       ?HasRealizedChores@ScheduleGroupSegmentBase@details@Concurrency@@IBE_NXZ 1002b5ce f   libconcrt:ScheduleGroupBase.obj
 0001:0002a5d6       ?HasUnrealizedChores@ScheduleGroupSegmentBase@details@Concurrency@@IAE_NXZ 1002b5d6 f   libconcrt:ScheduleGroupBase.obj
 0001:0002a5e2       ?Initialize@?$Mailbox@V_UnrealizedChore@details@Concurrency@@@details@Concurrency@@QAEXABVQuickBitSet@23@@Z 1002b5e2 f i libconcrt:ScheduleGroupBase.obj
 0001:0002a60b       ?Initialize@ScheduleGroupBase@details@Concurrency@@QAEXPAVlocation@3@@Z 1002b60b f   libconcrt:ScheduleGroupBase.obj
 0001:0002a61e       ?Initialize@ScheduleGroupSegmentBase@details@Concurrency@@IAEXPAVScheduleGroupBase@23@PAVSchedulingRing@23@PAVlocation@3@@Z 1002b61e f   libconcrt:ScheduleGroupBase.obj
 0001:0002a6a2       ?IsEmpty@WorkQueue@details@Concurrency@@QBE_NXZ 1002b6a2 f i libconcrt:ScheduleGroupBase.obj
 0001:0002a6b8       ?LocateMailboxSegment@?$Mailbox@V_UnrealizedChore@details@Concurrency@@@details@Concurrency@@AAEPAUSegment@123@I_N@Z 1002b6b8 f i libconcrt:ScheduleGroupBase.obj
 0001:0002a702       ?LocateSegment@ScheduleGroupBase@details@Concurrency@@UAEPAVScheduleGroupSegmentBase@23@PAVlocation@3@_N@Z 1002b702 f   libconcrt:ScheduleGroupBase.obj
 0001:0002a7e5       ?LocateUnrealizedChores@ScheduleGroupSegmentBase@details@Concurrency@@IAEPAVWorkQueue@23@XZ 1002b7e5 f   libconcrt:ScheduleGroupBase.obj
 0001:0002a83e       ?MarkDetachment@?$WorkStealingQueue@V_UnrealizedChore@details@Concurrency@@V_CriticalNonReentrantLock@23@@details@Concurrency@@QAEXXZ 1002b83e f i libconcrt:ScheduleGroupBase.obj
 0001:0002a871       ?RedetachQueue@ScheduleGroupSegmentBase@details@Concurrency@@QAEXPAVWorkQueue@23@@Z 1002b871 f   libconcrt:ScheduleGroupBase.obj
 0001:0002a88a       ?ReleaseInternalContext@ScheduleGroupSegmentBase@details@Concurrency@@IAEXPAVInternalContextBase@23@@Z 1002b88a f   libconcrt:ScheduleGroupBase.obj
 0001:0002a8b0       ?Remove@?$ListArray@U?$ListArrayInlineLink@VWorkQueue@details@Concurrency@@@details@Concurrency@@@details@Concurrency@@QAE_NPAU?$ListArrayInlineLink@VWorkQueue@details@Concurrency@@@23@H_N@Z 1002b8b0 f i libconcrt:ScheduleGroupBase.obj
 0001:0002a9ad       ?Remove@ScheduleGroupSegmentBase@details@Concurrency@@IAEXXZ 1002b9ad f   libconcrt:ScheduleGroupBase.obj
 0001:0002a9d0       ?RemoveSegments@ScheduleGroupBase@details@Concurrency@@MAEXXZ 1002b9d0 f   libconcrt:ScheduleGroupBase.obj
 0001:0002aa0f       ?RetireDetachedQueue@ScheduleGroupSegmentBase@details@Concurrency@@QAEXPAVWorkQueue@23@@Z 1002ba0f f   libconcrt:ScheduleGroupBase.obj
 0001:0002aa36       ?SafelyDeleteDetachedWorkQueue@ScheduleGroupSegmentBase@details@Concurrency@@IAE_NPAVWorkQueue@23@@Z 1002ba36 f   libconcrt:ScheduleGroupBase.obj
 0001:0002aa78       ?ScheduleTask@ScheduleGroupBase@details@Concurrency@@QAEXP6AXPAX@Z0AAVlocation@3@@Z 1002ba78 f   libconcrt:ScheduleGroupBase.obj
 0001:0002aaa7       ?ScheduleTask@ScheduleGroupBase@details@Concurrency@@UAEXP6AXPAX@Z0@Z 1002baa7 f   libconcrt:ScheduleGroupBase.obj
 0001:0002aace       ?ScheduleTask@ScheduleGroupSegmentBase@details@Concurrency@@QAEXP6AXPAX@Z0@Z 1002bace f   libconcrt:ScheduleGroupBase.obj
 0001:0002ac02       ?SetDeletionReferences@Segment@?$Mailbox@V_UnrealizedChore@details@Concurrency@@@details@Concurrency@@QAEXI@Z 1002bc02 f i libconcrt:ScheduleGroupBase.obj
 0001:0002ac28       ?StealUnrealizedChore@ScheduleGroupSegmentBase@details@Concurrency@@IAEPAV_UnrealizedChore@23@_N@Z 1002bc28 f   libconcrt:ScheduleGroupBase.obj
 0001:0002add9       ??IQuickBitSet@details@Concurrency@@QBE?AV012@ABV012@@Z 1002bdd9 f i libconcrt:CacheLocalScheduleGroup.obj
 0001:0002ae2b       ?Enqueue@?$Mailbox@V_UnrealizedChore@details@Concurrency@@@details@Concurrency@@QAE?AVSlot@123@PAV_UnrealizedChore@23@@Z 1002be2b f i libconcrt:CacheLocalScheduleGroup.obj
 0001:0002ae7c       ?Enqueue@?$SafeSQueue@VInternalContextBase@details@Concurrency@@V_HyperNonReentrantLock@23@@details@Concurrency@@QAEXPAVInternalContextBase@23@@Z 1002be7c f i libconcrt:CacheLocalScheduleGroup.obj
 0001:0002aeba       ?InterlockedSet@QuickBitSet@details@Concurrency@@QAEXABV123@@Z 1002beba f i libconcrt:CacheLocalScheduleGroup.obj
 0001:0002aef2       ?MailChore@CacheLocalScheduleGroup@details@Concurrency@@UAE?AVSlot@?$Mailbox@V_UnrealizedChore@details@Concurrency@@@23@PAV_UnrealizedChore@23@PAVlocation@3@PAPAVScheduleGroupSegmentBase@23@@Z 1002bef2 f   libconcrt:CacheLocalScheduleGroup.obj
 0001:0002af29       ?MailChore@CacheLocalScheduleGroupSegment@details@Concurrency@@QAE?AVSlot@?$Mailbox@V_UnrealizedChore@details@Concurrency@@@23@PAV_UnrealizedChore@23@@Z 1002bf29 f   libconcrt:CacheLocalScheduleGroup.obj
 0001:0002af41       ?NotifyAffinitizedWork@CacheLocalScheduleGroupSegment@details@Concurrency@@UAEXXZ 1002bf41 f   libconcrt:CacheLocalScheduleGroup.obj
 0001:0002af74       ?PostAffinityMessage@SchedulerBase@details@Concurrency@@QAEXABVQuickBitSet@23@@Z 1002bf74 f i libconcrt:CacheLocalScheduleGroup.obj
 0001:0002afb4       ?SetQuickCacheSlot@SchedulerBase@details@Concurrency@@QAEXIPAVScheduleGroupSegmentBase@23@@Z 1002bfb4 f i libconcrt:CacheLocalScheduleGroup.obj
 0001:0002afda       ?AddToRunnablesCollection@FairScheduleGroupSegment@details@Concurrency@@EAEXPAVInternalContextBase@23@@Z 1002bfda f   libconcrt:FairScheduleGroup.obj
 0001:0002afda       ?AddToRunnablesCollection@CacheLocalScheduleGroupSegment@details@Concurrency@@EAEXPAVInternalContextBase@23@@Z 1002bfda f   libconcrt:CacheLocalScheduleGroup.obj
 0001:0002afe9       ?FindSegment@FairScheduleGroup@details@Concurrency@@MAEPAVScheduleGroupSegmentBase@23@PAVlocation@3@PAVSchedulingRing@23@@Z 1002bfe9 f   libconcrt:FairScheduleGroup.obj
 0001:0002b01a       ?LocateSegment@FairScheduleGroup@details@Concurrency@@UAEPAVScheduleGroupSegmentBase@23@PAVlocation@3@_N@Z 1002c01a f   libconcrt:FairScheduleGroup.obj
 0001:0002b085       ??0ExternalContextBase@details@Concurrency@@QAE@PAVSchedulerBase@12@_N@Z 1002c085 f   libconcrt:ExternalContextBase.obj
 0001:0002b11e       ??1ExternalContextBase@details@Concurrency@@UAE@XZ 1002c11e f   libconcrt:ExternalContextBase.obj
 0001:0002b165       ??_GExternalContextBase@details@Concurrency@@UAEPAXI@Z 1002c165 f i libconcrt:ExternalContextBase.obj
 0001:0002b165       ??_EExternalContextBase@details@Concurrency@@UAEPAXI@Z 1002c165 f i libconcrt:ExternalContextBase.obj
 0001:0002b18a       ?Alloc@ExternalContextBase@details@Concurrency@@UAEPAXI@Z 1002c18a f   libconcrt:ExternalContextBase.obj
 0001:0002b1ab       ?Block@ExternalContextBase@details@Concurrency@@UAEXXZ 1002c1ab f   libconcrt:ExternalContextBase.obj
 0001:0002b1f4       ?Cleanup@ExternalContextBase@details@Concurrency@@AAEXXZ 1002c1f4 f   libconcrt:ExternalContextBase.obj
 0001:0002b24c       ?Free@ExternalContextBase@details@Concurrency@@UAEXPAX@Z 1002c24c f   libconcrt:ExternalContextBase.obj
 0001:0002b271       ?GetCurrentSubAllocator@ExternalContextBase@details@Concurrency@@QAEPAVSubAllocator@23@XZ 1002c271 f i libconcrt:ExternalContextBase.obj
 0001:0002b293       ?ImplicitDetachHandler@ExternalContextBase@details@Concurrency@@CGXPAU_TP_CALLBACK_INSTANCE@@PAXPAU_TP_WAIT@@K@Z 1002c293 f   libconcrt:ExternalContextBase.obj
 0001:0002b2b5       ?ImplicitDetachHandlerXP@ExternalContextBase@details@Concurrency@@CGXPAXE@Z 1002c2b5 f   libconcrt:ExternalContextBase.obj
 0001:0002b2d8       ?IsSynchronouslyBlocked@ExternalContextBase@details@Concurrency@@UBE_NXZ 1002c2d8 f i libconcrt:ExternalContextBase.obj
 0001:0002b2e4       ?Oversubscribe@ExternalContextBase@details@Concurrency@@UAEX_N@Z 1002c2e4 f   libconcrt:ExternalContextBase.obj
 0001:0002b31d       ?PrepareForUse@ExternalContextBase@details@Concurrency@@QAEX_N@Z 1002c31d f   libconcrt:ExternalContextBase.obj
 0001:0002b3e4       ?RemoveFromUse@ExternalContextBase@details@Concurrency@@QAEXXZ 1002c3e4 f   libconcrt:ExternalContextBase.obj
 0001:0002b406       ?SpinYield@ExternalContextBase@details@Concurrency@@UAEXXZ 1002c406 f i libconcrt:ExternalContextBase.obj
 0001:0002b41d       ?Unblock@ExternalContextBase@details@Concurrency@@UAEXXZ 1002c41d f   libconcrt:ExternalContextBase.obj
 0001:0002b49f       ?Yield@ExternalContextBase@details@Concurrency@@UAEXXZ 1002c49f f   libconcrt:ExternalContextBase.obj
 0001:0002b4ce       ??0ThreadInternalContext@details@Concurrency@@QAE@PAVSchedulerBase@12@@Z 1002c4ce f i libconcrt:ThreadScheduler.obj
 0001:0002b4f6       ??0ThreadScheduler@details@Concurrency@@QAE@ABVSchedulerPolicy@2@@Z 1002c4f6 f   libconcrt:ThreadScheduler.obj
 0001:0002b529       ??1ThreadScheduler@details@Concurrency@@UAE@XZ 1002c529 f   libconcrt:ThreadScheduler.obj
 0001:0002b53d       ??_EThreadInternalContext@details@Concurrency@@W3AEPAXI@Z 1002c53d f i libconcrt:ThreadScheduler.obj
 0001:0002b545       ??_EThreadScheduler@details@Concurrency@@W7AEPAXI@Z 1002c545 f i libconcrt:ThreadScheduler.obj
 0001:0002b54d       ??_EThreadInternalContext@details@Concurrency@@UAEPAXI@Z 1002c54d f i libconcrt:ThreadScheduler.obj
 0001:0002b54d       ??_GThreadInternalContext@details@Concurrency@@UAEPAXI@Z 1002c54d f i libconcrt:ThreadScheduler.obj
 0001:0002b57f       ??_GThreadScheduler@details@Concurrency@@UAEPAXI@Z 1002c57f f i libconcrt:ThreadScheduler.obj
 0001:0002b57f       ??_EThreadScheduler@details@Concurrency@@UAEPAXI@Z 1002c57f f i libconcrt:ThreadScheduler.obj
 0001:0002b5a4       ?AddVirtualProcessors@ThreadScheduler@details@Concurrency@@UAEXPAPAUIVirtualProcessorRoot@3@I@Z 1002c5a4 f i libconcrt:ThreadScheduler.obj
 0001:0002b5b0       ?Create@ThreadScheduler@details@Concurrency@@SAPAV123@ABVSchedulerPolicy@3@@Z 1002c5b0 f   libconcrt:ThreadScheduler.obj
 0001:0002b5e3       ?CreateInternalContext@ThreadScheduler@details@Concurrency@@MAEPAVInternalContextBase@23@XZ 1002c5e3 f   libconcrt:ThreadScheduler.obj
 0001:0002b621       ?CreateVirtualProcessor@ThreadScheduler@details@Concurrency@@UAEPAVVirtualProcessor@23@PAVSchedulingNode@23@PAUIVirtualProcessorRoot@3@@Z 1002c621 f   libconcrt:ThreadScheduler.obj
 0001:0002b659       ?GetContextKind@ThreadInternalContext@details@Concurrency@@UBE?AW4ContextKind@ContextBase@23@XZ 1002c659 f i libconcrt:ThreadScheduler.obj
 0001:0002b659       __get_startup_argv_mode    1002c659 f i LIBCMT:argv_mode.obj
 0001:0002b65d       ?GetIScheduler@ThreadScheduler@details@Concurrency@@UAEPAUIScheduler@3@XZ 1002c65d f i libconcrt:ThreadScheduler.obj
 0001:0002b661       ?GetId@ThreadScheduler@details@Concurrency@@UBEIXZ 1002c661 f i libconcrt:ThreadScheduler.obj
 0001:0002b679       ?GetPolicy@ThreadScheduler@details@Concurrency@@UBE?AVSchedulerPolicy@3@XZ 1002c679 f i libconcrt:ThreadScheduler.obj
 0001:0002b695       ?GetPolicy@ThreadScheduler@details@Concurrency@@W7BE?AVSchedulerPolicy@3@XZ 1002c695 f i libconcrt:ThreadScheduler.obj
 0001:0002b69d       ?RemoveVirtualProcessors@ThreadScheduler@details@Concurrency@@UAEXPAPAUIVirtualProcessorRoot@3@I@Z 1002c69d f i libconcrt:ThreadScheduler.obj
 0001:0002b6a9       ?Statistics@ThreadScheduler@details@Concurrency@@UAEXPAI00@Z 1002c6a9 f i libconcrt:ThreadScheduler.obj
 0001:0002b6b5       ?OneShotStaticConstruction@UMSThreadScheduler@details@Concurrency@@SAXXZ 1002c6b5 f   libconcrt:UMSThreadScheduler.obj
 0001:0002b6fb       ?OneShotStaticDestruction@UMSThreadScheduler@details@Concurrency@@SAXXZ 1002c6fb f   libconcrt:UMSThreadScheduler.obj
 0001:0002b70f       ??0exception_ptr@std@@QAE@ABV01@@Z 1002c70f f i libconcrt:TaskCollectionBase.obj
 0001:0002b727       ?_Current_exception@exception_ptr@std@@SA?AV12@XZ 1002c727 f i libconcrt:TaskCollectionBase.obj
 0001:0002b741       ?_FinishCancelState@_TaskCollectionBase@details@Concurrency@@IAEXI@Z 1002c741 f   libconcrt:TaskCollectionBase.obj
 0001:0002b767       ?_GetTokenState@_TaskCollectionBase@details@Concurrency@@QAEPAV_CancellationTokenState@23@PAPAV_CancellationTokenRegistration@23@@Z 1002c767 f   libconcrt:TaskCollectionBase.obj
 0001:0002b78f       ?_MarkCancellation@_TaskCollectionBase@details@Concurrency@@IAE_NXZ 1002c78f f   libconcrt:TaskCollectionBase.obj
 0001:0002b7b7       ?_RaisedException@_TaskCollectionBase@details@Concurrency@@IAEXXZ 1002c7b7 f   libconcrt:TaskCollectionBase.obj
 0001:0002b815       ?_RethrowException@_TaskCollectionBase@details@Concurrency@@IAEXXZ 1002c815 f   libconcrt:TaskCollectionBase.obj
 0001:0002b87f       ?_RethrowException@exception_ptr@std@@QBEXXZ 1002c87f f i libconcrt:TaskCollectionBase.obj
 0001:0002b886       ?current_exception@std@@YA?AVexception_ptr@1@XZ 1002c886 f i libconcrt:TaskCollectionBase.obj
 0001:0002b897       ?rethrow_exception@std@@YAXVexception_ptr@1@@Z 1002c897 f i libconcrt:TaskCollectionBase.obj
 0001:0002b8b0       ??0?$StructuredWorkStealingQueue@VInternalContextBase@details@Concurrency@@V_HyperNonReentrantLock@23@@details@Concurrency@@QAE@PAV_HyperNonReentrantLock@12@@Z 1002c8b0 f i libconcrt:VirtualProcessor.obj
 0001:0002b8b0       ??0?$StructuredWorkStealingQueue@V_UnrealizedChore@details@Concurrency@@V_CriticalNonReentrantLock@23@@details@Concurrency@@QAE@PAV_CriticalNonReentrantLock@12@@Z 1002c8b0 f i libconcrt:WorkQueue.obj
 0001:0002b920       ??0?$WorkStealingQueue@V_UnrealizedChore@details@Concurrency@@V_CriticalNonReentrantLock@23@@details@Concurrency@@QAE@PAV_CriticalNonReentrantLock@12@@Z 1002c920 f i libconcrt:WorkQueue.obj
 0001:0002b989       ??0WorkQueue@details@Concurrency@@QAE@XZ 1002c989 f   libconcrt:WorkQueue.obj
 0001:0002b9d3       ?DeferToAffineSearchers@Slot@?$Mailbox@VInternalContextBase@details@Concurrency@@@details@Concurrency@@QBE_NXZ 1002c9d3 f i libconcrt:SchedulingNode.obj
 0001:0002b9d3       ?DeferToAffineSearchers@Slot@?$Mailbox@V_UnrealizedChore@details@Concurrency@@@details@Concurrency@@QBE_NXZ 1002c9d3 f i libconcrt:WorkQueue.obj
 0001:0002ba29       ?RedetachFromScheduleGroupAtSafePoint@WorkQueue@details@Concurrency@@QAEXPAVScheduleGroupSegmentBase@23@@Z 1002ca29 f   libconcrt:WorkQueue.obj
 0001:0002ba4d       ?Reinitialize@WorkQueue@details@Concurrency@@AAEXXZ 1002ca4d f   libconcrt:WorkQueue.obj
 0001:0002ba87       ?RetireAtSafePoint@WorkQueue@details@Concurrency@@QAEXPAVScheduleGroupSegmentBase@23@@Z 1002ca87 f   libconcrt:WorkQueue.obj
 0001:0002baab       ?StaticRedetachFromScheduleGroup@WorkQueue@details@Concurrency@@CAXPAV123@@Z 1002caab f   libconcrt:WorkQueue.obj
 0001:0002babc       ?StaticRetire@WorkQueue@details@Concurrency@@CAXPAV123@@Z 1002cabc f   libconcrt:WorkQueue.obj
 0001:0002bacd       ?Steal@WorkQueue@details@Concurrency@@QAEPAV_UnrealizedChore@23@_N@Z 1002cacd f   libconcrt:WorkQueue.obj
 0001:0002bb10       ?Sweep@?$WorkStealingQueue@V_UnrealizedChore@details@Concurrency@@V_CriticalNonReentrantLock@23@@details@Concurrency@@QAEXP6A_NPAV_UnrealizedChore@23@PAX@Z12@Z 1002cb10 f i libconcrt:WorkQueue.obj
 0001:0002bbc2       ?SweepUnstructured@WorkQueue@details@Concurrency@@QAEXP6A_NPAV_UnrealizedChore@23@PAX@Z12@Z 1002cbc2 f   libconcrt:WorkQueue.obj
 0001:0002bbce       ?TryToSteal@WorkQueue@details@Concurrency@@QAEPAV_UnrealizedChore@23@_NAA_N@Z 1002cbce f   libconcrt:WorkQueue.obj
 0001:0002bc34       ?UnlockedSteal@?$StructuredWorkStealingQueue@V_UnrealizedChore@details@Concurrency@@V_CriticalNonReentrantLock@23@@details@Concurrency@@QAEPAV_UnrealizedChore@23@_N@Z 1002cc34 f i libconcrt:WorkQueue.obj
 0001:0002bcb2       ?UnlockedSteal@?$WorkStealingQueue@V_UnrealizedChore@details@Concurrency@@V_CriticalNonReentrantLock@23@@details@Concurrency@@QAEPAV_UnrealizedChore@23@_N0@Z 1002ccb2 f i libconcrt:WorkQueue.obj
 0001:0002bd40       ?UnlockedSteal@WorkQueue@details@Concurrency@@AAEPAV_UnrealizedChore@23@_N@Z 1002cd40 f   libconcrt:WorkQueue.obj
 0001:0002be03       ?_CancelViaToken@_UnrealizedChore@details@Concurrency@@CAXPAVContextBase@23@@Z 1002ce03 f   libconcrt:Chores.obj
 0001:0002be2a       ?_InternalFree@_UnrealizedChore@details@Concurrency@@CAXPAV123@@Z 1002ce2a f   libconcrt:Chores.obj
 0001:0002be47       ?_PrepareSteal@_UnrealizedChore@details@Concurrency@@QAEXPAVContextBase@23@@Z 1002ce47 f   libconcrt:Chores.obj
 0001:0002be5f       ?_PrepareStealStructured@_UnrealizedChore@details@Concurrency@@AAEXPAVContextBase@23@@Z 1002ce5f f   libconcrt:Chores.obj
 0001:0002be97       ?_PrepareStealUnstructured@_UnrealizedChore@details@Concurrency@@AAEXPAVContextBase@23@@Z 1002ce97 f   libconcrt:Chores.obj
 0001:0002bf03       ?_SetDetached@_UnrealizedChore@details@Concurrency@@QAEX_N@Z 1002cf03 f   libconcrt:Chores.obj
 0001:0002bf10       ?_StructuredChoreWrapper@_UnrealizedChore@details@Concurrency@@CAXPAV123@@Z 1002cf10 f   libconcrt:Chores.obj
 0001:0002c05a       ??0VirtualProcessorRoot@details@Concurrency@@QAE@PAVSchedulerProxy@12@PAUSchedulerNode@12@I@Z 1002d05a f   libconcrt:VirtualProcessorRoot.obj
 0001:0002c0a6       ??_GVirtualProcessorRoot@details@Concurrency@@UAEPAXI@Z 1002d0a6 f i libconcrt:VirtualProcessorRoot.obj
 0001:0002c0a6       ??_EVirtualProcessorRoot@details@Concurrency@@UAEPAXI@Z 1002d0a6 f i libconcrt:VirtualProcessorRoot.obj
 0001:0002c0d0       ?CurrentSubscriptionLevel@VirtualProcessorRoot@details@Concurrency@@UBEIXZ 1002d0d0 f i libconcrt:VirtualProcessorRoot.obj
 0001:0002c0d8       ?GetExecutionResourceId@VirtualProcessorRoot@details@Concurrency@@UBEIXZ 1002d0d8 f i libconcrt:VirtualProcessorRoot.obj
 0001:0002c0dc       ?GetId@VirtualProcessorRoot@details@Concurrency@@UBEIXZ 1002d0dc f i libconcrt:VirtualProcessorRoot.obj
 0001:0002c0e0       ?Remove@VirtualProcessorRoot@details@Concurrency@@UAEXPAUIScheduler@3@@Z 1002d0e0 f   libconcrt:VirtualProcessorRoot.obj
 0001:0002c13a       ?ResetSubscriptionLevel@VirtualProcessorRoot@details@Concurrency@@QAEXXZ 1002d13a f   libconcrt:VirtualProcessorRoot.obj
 0001:0002c152       ?Subscribe@VirtualProcessorRoot@details@Concurrency@@QAEXXZ 1002d152 f   libconcrt:VirtualProcessorRoot.obj
 0001:0002c15f       ?Unsubscribe@VirtualProcessorRoot@details@Concurrency@@QAEXXZ 1002d15f f   libconcrt:VirtualProcessorRoot.obj
 0001:0002c16c       ??0FreeVirtualProcessorRoot@details@Concurrency@@QAE@PAVSchedulerProxy@12@PAUSchedulerNode@12@I@Z 1002d16c f   libconcrt:FreeVirtualProcessorRoot.obj
 0001:0002c1a1       ??8HardwareAffinity@details@Concurrency@@QAE_NABU012@@Z 1002d1a1 f i libconcrt:FreeVirtualProcessorRoot.obj
 0001:0002c1c2       ??_EFreeVirtualProcessorRoot@details@Concurrency@@UAEPAXI@Z 1002d1c2 f i libconcrt:FreeVirtualProcessorRoot.obj
 0001:0002c1c2       ??_GFreeVirtualProcessorRoot@details@Concurrency@@UAEPAXI@Z 1002d1c2 f i libconcrt:FreeVirtualProcessorRoot.obj
 0001:0002c1ec       ?AcquireActivatedContext@VirtualProcessorRoot@details@Concurrency@@QAEPAUIExecutionContext@3@XZ 1002d1ec f i libconcrt:FreeVirtualProcessorRoot.obj
 0001:0002c21d       ?Activate@FreeVirtualProcessorRoot@details@Concurrency@@UAEXPAUIExecutionContext@3@@Z 1002d21d f   libconcrt:FreeVirtualProcessorRoot.obj
 0001:0002c2df       ?Affinitize@FreeVirtualProcessorRoot@details@Concurrency@@QAEXPAVFreeThreadProxy@23@@Z 1002d2df f   libconcrt:FreeVirtualProcessorRoot.obj
 0001:0002c347       ?Deactivate@FreeVirtualProcessorRoot@details@Concurrency@@UAE_NPAUIExecutionContext@3@@Z 1002d347 f   libconcrt:FreeVirtualProcessorRoot.obj
 0001:0002c3eb       ?DeleteThis@FreeVirtualProcessorRoot@details@Concurrency@@UAEXXZ 1002d3eb f   libconcrt:FreeVirtualProcessorRoot.obj
 0001:0002c438       ?EnsureAllTasksVisible@FreeVirtualProcessorRoot@details@Concurrency@@UAEXPAUIExecutionContext@3@@Z 1002d438 f   libconcrt:FreeVirtualProcessorRoot.obj
 0001:0002c4b9       ?ResetOnIdle@FreeVirtualProcessorRoot@details@Concurrency@@QAEXW4SwitchingProxyState@3@@Z 1002d4b9 f   libconcrt:FreeVirtualProcessorRoot.obj
 0001:0002c524       ?SetAffinity@FreeThreadProxy@details@Concurrency@@QAEXUHardwareAffinity@23@@Z 1002d524 f i libconcrt:FreeVirtualProcessorRoot.obj
 0001:0002c55a       ?SpinUntilIdle@FreeVirtualProcessorRoot@details@Concurrency@@IAEXXZ 1002d55a f i libconcrt:FreeVirtualProcessorRoot.obj
 0001:0002c58a       ?AssociateExecutionContext@FreeThreadProxy@details@Concurrency@@QAEXPAUIExecutionContext@3@@Z 1002d58a f   libconcrt:FreeThreadProxy.obj
 0001:0002c5ac       ?Dispatch@FreeThreadProxy@details@Concurrency@@EAEXXZ 1002d5ac f   libconcrt:FreeThreadProxy.obj
 0001:0002c64d       ?ReturnIdleProxy@FreeThreadProxy@details@Concurrency@@QAEXXZ 1002d64d f   libconcrt:FreeThreadProxy.obj
 0001:0002c66a       ?SwitchOut@FreeThreadProxy@details@Concurrency@@UAEXW4SwitchingProxyState@3@@Z 1002d66a f   libconcrt:FreeThreadProxy.obj
 0001:0002c6c1       ?SwitchTo@FreeThreadProxy@details@Concurrency@@UAEXPAUIExecutionContext@3@W4SwitchingProxyState@3@@Z 1002d6c1 f   libconcrt:FreeThreadProxy.obj
 0001:0002c776       ??0ThreadProxy@details@Concurrency@@QAE@PAUIThreadProxyFactory@12@I@Z 1002d776 f   libconcrt:ThreadProxy.obj
 0001:0002c84b       ??0scheduler_worker_creation_error@Concurrency@@QAE@ABV01@@Z 1002d84b f i libconcrt:ThreadProxy.obj
 0001:0002c866       ??1ThreadProxy@details@Concurrency@@UAE@XZ 1002d866 f   libconcrt:ThreadProxy.obj
 0001:0002c8c8       ??_GThreadProxy@details@Concurrency@@UAEPAXI@Z 1002d8c8 f i libconcrt:ThreadProxy.obj
 0001:0002c8c8       ??_EThreadProxy@details@Concurrency@@UAEPAXI@Z 1002d8c8 f i libconcrt:ThreadProxy.obj
 0001:0002c8ea       ?Cancel@ThreadProxy@details@Concurrency@@QAEXXZ 1002d8ea f   libconcrt:ThreadProxy.obj
 0001:0002c8fb       ?GetId@ThreadProxy@details@Concurrency@@UBEIXZ 1002d8fb f   libconcrt:ThreadProxy.obj
 0001:0002c8ff       ?ResumeExecution@ThreadProxy@details@Concurrency@@QAEXXZ 1002d8ff f   libconcrt:ThreadProxy.obj
 0001:0002c909       ?SetPriority@ThreadProxy@details@Concurrency@@QAEXH@Z 1002d909 f   libconcrt:ThreadProxy.obj
 0001:0002c921       ?SpinUntilBlocked@ThreadProxy@details@Concurrency@@QAEXXZ 1002d921 f   libconcrt:ThreadProxy.obj
 0001:0002c94e       ?SuspendExecution@ThreadProxy@details@Concurrency@@QAEXXZ 1002d94e f   libconcrt:ThreadProxy.obj
 0001:0002c96a       ?ThreadProxyMain@ThreadProxy@details@Concurrency@@CGKPAX@Z 1002d96a f   libconcrt:ThreadProxy.obj
 0001:0002c9b8       ??0location@Concurrency@@QAE@W4_Type@01@IIPAX@Z 1002d9b8 f   libconcrt:location.obj
 0001:0002c9dd       ?ContainsResourceId@SchedulingNode@details@Concurrency@@QAE_NI@Z 1002d9dd f i libconcrt:location.obj
 0001:0002ca08       ?_FastNodeIntersects@location@Concurrency@@QBE_NABV12@@Z 1002da08 f   libconcrt:location.obj
 0001:0002ca53       ?_FastVPIntersects@location@Concurrency@@QBE_NABV12@@Z 1002da53 f   libconcrt:location.obj
 0001:0002ca9f       ??0WorkItem@details@Concurrency@@QAE@PAVInternalContextBase@12@@Z 1002da9f f   libconcrt:SearchAlgorithms.obj
 0001:0002cac5       ?AcquireQuickCacheSlot@SchedulerBase@details@Concurrency@@QAEPAVScheduleGroupSegmentBase@23@I@Z 1002dac5 f i libconcrt:SearchAlgorithms.obj
 0001:0002cae3       ?ActualGetQuickCacheSlot@SchedulerBase@details@Concurrency@@AAEPAVScheduleGroupSegmentBase@23@I@Z 1002dae3 f i libconcrt:SearchAlgorithms.obj
 0001:0002cb16       ?Bind@WorkItem@details@Concurrency@@QAEPAVInternalContextBase@23@XZ 1002db16 f   libconcrt:SearchAlgorithms.obj
 0001:0002cb63       ?BindTo@WorkItem@details@Concurrency@@QAEXPAVInternalContextBase@23@@Z 1002db63 f   libconcrt:SearchAlgorithms.obj
 0001:0002cb9d       ?CheckPriorityList@WorkSearchContext@details@Concurrency@@AAE_N_K@Z 1002db9d f i libconcrt:SearchAlgorithms.obj
 0001:0002cbd5       ?GetLocalRunnable@WorkSearchContext@details@Concurrency@@AAE_NPAVWorkItem@23@PAVVirtualProcessor@23@_N@Z 1002dbd5 f   libconcrt:SearchAlgorithms.obj
 0001:0002cc6e       ?GetNextSchedulingNode@SchedulerBase@details@Concurrency@@QAEPAVSchedulingNode@23@PAHH@Z 1002dc6e f i libconcrt:SearchAlgorithms.obj
 0001:0002ccbd       ?GetPseudoRRAffineScheduleGroupSegment@SchedulingRing@details@Concurrency@@QAEPAVScheduleGroupSegmentBase@23@PAH@Z 1002dcbd f i libconcrt:SearchAlgorithms.obj
 0001:0002ccf8       ?GetPseudoRRNonAffineScheduleGroupSegment@SchedulingRing@details@Concurrency@@QAEPAVScheduleGroupSegmentBase@23@PAH@Z 1002dcf8 f i libconcrt:SearchAlgorithms.obj
 0001:0002cd36       ?GetRealizedChore@WorkSearchContext@details@Concurrency@@AAE_NPAVWorkItem@23@PAVScheduleGroupSegmentBase@23@_N@Z 1002dd36 f   libconcrt:SearchAlgorithms.obj
 0001:0002cd88       ?GetRealizedChoreWithinGroup@WorkSearchContext@details@Concurrency@@AAE_NPAVWorkItem@23@PAVScheduleGroupSegmentBase@23@_NW4SearchAffinity@123@2@Z 1002dd88 f   libconcrt:SearchAlgorithms.obj
 0001:0002ce09       ?GetRunnableContext@WorkSearchContext@details@Concurrency@@AAE_NPAVWorkItem@23@PAVScheduleGroupSegmentBase@23@@Z 1002de09 f   libconcrt:SearchAlgorithms.obj
 0001:0002ce47       ?GetRunnableContextWithinGroup@WorkSearchContext@details@Concurrency@@AAE_NPAVWorkItem@23@PAVScheduleGroupSegmentBase@23@W4SearchAffinity@123@_N@Z 1002de47 f   libconcrt:SearchAlgorithms.obj
 0001:0002cec2       ?GetUnrealizedChore@WorkSearchContext@details@Concurrency@@AAE_NPAVWorkItem@23@PAVScheduleGroupSegmentBase@23@_N2@Z 1002dec2 f   libconcrt:SearchAlgorithms.obj
 0001:0002cf17       ?GetUnrealizedChoreWithinGroup@WorkSearchContext@details@Concurrency@@AAE_NPAVWorkItem@23@PAVScheduleGroupSegmentBase@23@_NW4SearchAffinity@123@2@Z 1002df17 f   libconcrt:SearchAlgorithms.obj
 0001:0002cfa7       ?Invoke@WorkItem@details@Concurrency@@QAEXXZ 1002dfa7 f   libconcrt:SearchAlgorithms.obj
 0001:0002cfe9       ?PeriodicScan@SchedulerBase@details@Concurrency@@QAEX_K@Z 1002dfe9 f i libconcrt:SearchAlgorithms.obj
 0001:0002d024       ?PreSearch@WorkSearchContext@details@Concurrency@@AAE_NPAVWorkItem@23@@Z 1002e024 f   libconcrt:SearchAlgorithms.obj
 0001:0002d061       ?QuickSearch@WorkSearchContext@details@Concurrency@@AAE_NPAVScheduleGroupSegmentBase@23@PAVWorkItem@23@_NK@Z 1002e061 f   libconcrt:SearchAlgorithms.obj
 0001:0002d0ce       ?QuickSearchYield@WorkSearchContext@details@Concurrency@@AAE_NPAVScheduleGroupSegmentBase@23@PAVWorkItem@23@_NK@Z 1002e0ce f   libconcrt:SearchAlgorithms.obj
 0001:0002d13c       ?Reset@WorkSearchContext@details@Concurrency@@QAEXPAVVirtualProcessor@23@W4Algorithm@123@@Z 1002e13c f   libconcrt:SearchAlgorithms.obj
 0001:0002d196       ?ResolveToken@WorkItem@details@Concurrency@@QAE_NXZ 1002e196 f   libconcrt:SearchAlgorithms.obj
 0001:0002d216       ?SearchCacheLocal@WorkSearchContext@details@Concurrency@@AAE_NPAVWorkItem@23@PAVScheduleGroupSegmentBase@23@_NK@Z 1002e216 f   libconcrt:SearchAlgorithms.obj
 0001:0002d4e2       ?SearchCacheLocalYield@WorkSearchContext@details@Concurrency@@AAE_NPAVWorkItem@23@PAVScheduleGroupSegmentBase@23@_NK@Z 1002e4e2 f   libconcrt:SearchAlgorithms.obj
 0001:0002d765       ?SearchCacheLocal_Realized@WorkSearchContext@details@Concurrency@@AAE_NPAVWorkItem@23@PAVSchedulingRing@23@PAVScheduleGroupSegmentBase@23@_NW4SearchAffinity@123@K3@Z 1002e765 f   libconcrt:SearchAlgorithms.obj
 0001:0002d862       ?SearchCacheLocal_Runnables@WorkSearchContext@details@Concurrency@@AAE_NPAVWorkItem@23@PAVSchedulingRing@23@PAVScheduleGroupSegmentBase@23@_NW4SearchAffinity@123@K3@Z 1002e862 f   libconcrt:SearchAlgorithms.obj
 0001:0002d96d       ?SearchCacheLocal_Unrealized@WorkSearchContext@details@Concurrency@@AAE_NPAVWorkItem@23@PAVSchedulingRing@23@PAVScheduleGroupSegmentBase@23@_NW4SearchAffinity@123@K3@Z 1002e96d f   libconcrt:SearchAlgorithms.obj
 0001:0002da6d       ?SearchFair@WorkSearchContext@details@Concurrency@@AAE_NPAVWorkItem@23@PAVScheduleGroupSegmentBase@23@_NK@Z 1002ea6d f   libconcrt:SearchAlgorithms.obj
 0001:0002db82       ?SearchFairYield@WorkSearchContext@details@Concurrency@@AAE_NPAVWorkItem@23@PAVScheduleGroupSegmentBase@23@_NK@Z 1002eb82 f   libconcrt:SearchAlgorithms.obj
 0001:0002dc92       ?SearchFair_Realized@WorkSearchContext@details@Concurrency@@AAE_NPAVWorkItem@23@PAVSchedulingRing@23@_N@Z 1002ec92 f   libconcrt:SearchAlgorithms.obj
 0001:0002dd28       ?SearchFair_Runnables@WorkSearchContext@details@Concurrency@@AAE_NPAVWorkItem@23@PAVSchedulingRing@23@@Z 1002ed28 f   libconcrt:SearchAlgorithms.obj
 0001:0002ddaa       ?SearchFair_Unrealized@WorkSearchContext@details@Concurrency@@AAE_NPAVWorkItem@23@PAVSchedulingRing@23@_N@Z 1002edaa f   libconcrt:SearchAlgorithms.obj
 0001:0002de44       ?ServiceMark@ScheduleGroupSegmentBase@details@Concurrency@@QAEX_K@Z 1002ee44 f i libconcrt:SearchAlgorithms.obj
 0001:0002de6a       ?ServiceMark@VirtualProcessor@details@Concurrency@@QAEX_K@Z 1002ee6a f i libconcrt:SearchAlgorithms.obj
 0001:0002de90       ?SkipSegmentSearch@WorkSearchContext@details@Concurrency@@AAE_NPAVScheduleGroupSegmentBase@23@0W4SearchAffinity@123@_N@Z 1002ee90 f   libconcrt:SearchAlgorithms.obj
 0001:0002df1c       ?StealForeignLocalRunnable@WorkSearchContext@details@Concurrency@@AAE_NPAVWorkItem@23@PAVSchedulingNode@23@@Z 1002ef1c f   libconcrt:SearchAlgorithms.obj
 0001:0002df60       ?StealLocalRunnable@WorkSearchContext@details@Concurrency@@AAE_NPAVWorkItem@23@PAVSchedulingNode@23@PAVVirtualProcessor@23@@Z 1002ef60 f   libconcrt:SearchAlgorithms.obj
 0001:0002dfd1       ?StealLocalRunnableContext@VirtualProcessor@details@Concurrency@@AAEPAVInternalContextBase@23@XZ 1002efd1 f i libconcrt:SearchAlgorithms.obj
 0001:0002dfe8       ?TransferReferences@WorkItem@details@Concurrency@@QAEXPAVInternalContextBase@23@@Z 1002efe8 f   libconcrt:SearchAlgorithms.obj
 0001:0002e03d       ?Invoke@RealizedChore@details@Concurrency@@QAEXXZ 1002f03d f   libconcrt:RealizedChore.obj
 0001:0002e050       ??0ThreadVirtualProcessor@details@Concurrency@@QAE@PAVSchedulingNode@12@PAUIVirtualProcessorRoot@2@@Z 1002f050 f   libconcrt:ThreadVirtualProcessor.obj
 0001:0002e087       ??_EThreadVirtualProcessor@details@Concurrency@@UAEPAXI@Z 1002f087 f i libconcrt:ThreadVirtualProcessor.obj
 0001:0002e087       ??_GThreadVirtualProcessor@details@Concurrency@@UAEPAXI@Z 1002f087 f i libconcrt:ThreadVirtualProcessor.obj
 0001:0002e0c0       _memmove                   1002f0c0 f   libvcruntime:memmove.obj
 0001:0002e634       __get_purecall_handler     1002f634 f   libvcruntime:purevirt.obj
 0001:0002e653       __purecall                 1002f653 f   libvcruntime:purevirt.obj
 0001:0002e66e       ___std_type_info_compare   1002f66e f   libvcruntime:std_type_info.obj
 0001:0002e6aa       ___std_type_info_destroy_list 1002f6aa f   libvcruntime:std_type_info.obj
 0001:0002e6cd       ___std_exception_copy      1002f6cd f   libvcruntime:std_exception.obj
 0001:0002e730       ___std_exception_destroy   1002f730 f   libvcruntime:std_exception.obj
 0001:0002e74f       __CxxThrowException@8      1002f74f f   libvcruntime:throw.obj
 0001:0002e7bd       ?_CallCatchBlock2@@YAPAXPAUEHRegistrationNode@@PBU_s_FuncInfo@@PAXHK@Z 1002f7bd f   libvcruntime:trnsctrl.obj
 0001:0002e81d       ?_CallSETranslator@@YAHPAUEHExceptionRecord@@PAUEHRegistrationNode@@PAX2PBU_s_FuncInfo@@H1@Z 1002f81d f   libvcruntime:trnsctrl.obj
 0001:0002e8fa       ?_GetRangeOfTrysToCheck@@YAPBU_s_TryBlockMapEntry@@PBU_s_FuncInfo@@HHPAI1@Z 1002f8fa f   libvcruntime:trnsctrl.obj
 0001:0002e972       ?_JumpToContinuation@@YGXPAXPAUEHRegistrationNode@@@Z 1002f972 f   libvcruntime:trnsctrl.obj
 0001:0002e9a4       ?_UnwindNestedFrames@@YGXPAUEHRegistrationNode@@PAUEHExceptionRecord@@@Z 1002f9a4 f   libvcruntime:trnsctrl.obj
 0001:0002e9f9       __CatchGuardHandler        1002f9f9 f   libvcruntime:trnsctrl.obj
 0001:0002ea2a       __CreateFrameInfo          1002fa2a f   libvcruntime:trnsctrl.obj
 0001:0002ea4e       __FindAndUnlinkFrame       1002fa4e f   libvcruntime:trnsctrl.obj
 0001:0002ea98       __IsExceptionObjectToBeDestroyed 1002fa98 f   libvcruntime:trnsctrl.obj
 0001:0002eabe       __TranslatorGuardHandler   1002fabe f   libvcruntime:trnsctrl.obj
 0001:0002eb5d       ___CxxFrameHandler3        1002fb5d f   libvcruntime:trnsctrl.obj
 0001:0002eba0       _memcpy                    1002fba0 f   libvcruntime:memcpy.obj
 0001:0002f114       ___DestructExceptionObject 10030114 f   libvcruntime:frame.obj
 0001:0002f1a8       ??0bad_exception@std@@QAE@ABV01@@Z 100301a8 f i libvcruntime:frame.obj
 0001:0002f1c3       ??0bad_exception@std@@QAE@XZ 100301c3 f i libvcruntime:frame.obj
 0001:0002f9f4       ?_CallMemberFunction1@@YGXQAX00@Z 100309f4 f i libvcruntime:frame.obj
 0001:0002f9f4       ?_CallMemberFunction0@@YGXQAX0@Z 100309f4 f i libvcruntime:frame.obj
 0001:0002f9f4       ?_CallMemberFunction2@@YGXQAX00H@Z 100309f4 f i libvcruntime:frame.obj
 0001:0002f9fb       ___AdjustPointer           100309fb f   libvcruntime:frame.obj
 0001:0002fa20       ___BuildCatchObject        10030a20 f   libvcruntime:frame.obj
 0001:0002faaf       ___BuildCatchObjectHelper  10030aaf f   libvcruntime:frame.obj
 0001:0002fbdd       ___FrameUnwindFilter       10030bdd f   libvcruntime:frame.obj
 0001:0002fc22       ___FrameUnwindToState      10030c22 f   libvcruntime:frame.obj
 0001:0002fcea       ___InternalCxxFrameHandler 10030cea f   libvcruntime:frame.obj
 0001:0002fde6       ___TypeMatch               10030de6 f   libvcruntime:frame.obj
 0001:0002fe74       ___current_exception       10030e74 f   libvcruntime:frame.obj
 0001:0002fe7d       ___processing_throw        10030e7d f   libvcruntime:frame.obj
 0001:0002fe86       ___std_terminate           10030e86 f   libvcruntime:frame.obj
 0001:0002fe8b       ___uncaught_exception      10030e8b f   libvcruntime:frame.obj
 0001:0002fea0       _memset                    10030ea0 f   libvcruntime:memset.obj
 0001:00030000       _memchr                    10031000 f   libvcruntime:memchr.obj
 0001:000300ad       _memcmp                    100310ad f   libvcruntime:_memcmp_.obj
 0001:0003182d       ___vcrt_initialize         1003282d f   libvcruntime:initialization.obj
 0001:00031856       ___vcrt_thread_attach      10032856 f   libvcruntime:initialization.obj
 0001:00031861       ___vcrt_thread_detach      10032861 f   libvcruntime:initialization.obj
 0001:0003186c       ___vcrt_uninitialize       1003286c f   libvcruntime:initialization.obj
 0001:0003188b       ___vcrt_uninitialize_critical 1003288b f   libvcruntime:initialization.obj
 0001:000318e0       __except_handler4          100328e0 f   libvcruntime:_chandler4_.obj
 0001:00031a46       ??$__crt_fast_encode_pointer@P6GHPAU_RTL_CONDITION_VARIABLE@@PAU_RTL_CRITICAL_SECTION@@K@Z@@YAP6GHPAU_RTL_CONDITION_VARIABLE@@PAU_RTL_CRITICAL_SECTION@@K@ZQ6GH01K@Z@Z 10032a46 f i LIBCMT:thread_safe_statics.obj
 0001:00031a46       ??$__crt_fast_encode_pointer@PAP6AXXZ@@YAPAP6AXXZQAP6AXXZ@Z 10032a46 f i LIBCMT:utility.obj
 0001:00031a46       ??$__crt_fast_encode_pointer@PAX@@YAPAXQAX@Z 10032a46 f i libvcruntime:winapi_downlevel.obj
 0001:00031a46       ??$__crt_fast_encode_pointer@P6GXPAU_RTL_CONDITION_VARIABLE@@@Z@@YAP6GXPAU_RTL_CONDITION_VARIABLE@@@ZQ6GX0@Z@Z 10032a46 f i LIBCMT:thread_safe_statics.obj
 0001:00031b84       ___vcrt_FlsAlloc           10032b84 f   libvcruntime:winapi_downlevel.obj
 0001:00031bbe       ___vcrt_FlsFree            10032bbe f   libvcruntime:winapi_downlevel.obj
 0001:00031bf8       ___vcrt_FlsGetValue        10032bf8 f   libvcruntime:winapi_downlevel.obj
 0001:00031c32       ___vcrt_FlsSetValue        10032c32 f   libvcruntime:winapi_downlevel.obj
 0001:00031c6f       ___vcrt_InitializeCriticalSectionEx 10032c6f f   libvcruntime:winapi_downlevel.obj
 0001:00031cb5       ___vcrt_initialize_winapi_thunks 10032cb5 f   libvcruntime:winapi_downlevel.obj
 0001:00031cef       ___vcrt_uninitialize_winapi_thunks 10032cef f   libvcruntime:winapi_downlevel.obj
 0001:00031d21       ??0__non_rtti_object@std@@QAE@ABV01@@Z 10032d21 f i libvcruntime:rtti.obj
 0001:00031d3c       ??0bad_typeid@std@@QAE@ABV01@@Z 10032d3c f i libvcruntime:rtti.obj
 0001:0003215f       ?__construct_from_string_literal@__non_rtti_object@std@@SA?AV12@QBD@Z 1003315f f i libvcruntime:rtti.obj
 0001:0003217b       ?__construct_from_string_literal@bad_cast@std@@SA?AV12@QBD@Z 1003317b f i libvcruntime:rtti.obj
 0001:00032197       ___RTDynamicCast           10033197 f   libvcruntime:rtti.obj
 0001:00032279       ___vcrt_initialize_pure_virtual_call_handler 10033279 f   libvcruntime:purevirt_data.obj
 0001:00032296       ___vcrt_freefls@4          10033296 f   libvcruntime:per_thread_data.obj
 0001:000322b2       ___vcrt_freeptd            100332b2 f   libvcruntime:per_thread_data.obj
 0001:000322e8       ___vcrt_getptd             100332e8 f   libvcruntime:per_thread_data.obj
 0001:000322f6       ___vcrt_getptd_noexit      100332f6 f   libvcruntime:per_thread_data.obj
 0001:00032388       ___vcrt_initialize_ptd     10033388 f   libvcruntime:per_thread_data.obj
 0001:000323bb       ___vcrt_uninitialize_ptd   100333bb f   libvcruntime:per_thread_data.obj
 0001:000323e0       __CallSettingFrame@12      100333e0 f   libvcruntime:lowhelpr.obj
 0001:00032407       __NLG_Return               10033407     libvcruntime:lowhelpr.obj
 0001:0003242c       _unexpected                1003342c f   libvcruntime:unexpected.obj
 0001:00032448       ___vcrt_initialize_locks   10033448 f   libvcruntime:locks.obj
 0001:00032484       ___vcrt_uninitialize_locks 10033484 f   libvcruntime:locks.obj
 0001:000324c0       __local_unwind4            100334c0 f   libvcruntime:_exsup4_.obj
 0001:00032596       __seh_longjmp_unwind4@4    10033596 f   libvcruntime:_exsup4_.obj
 0001:000325be       @_EH4_CallFilterFunc@8     100335be f   libvcruntime:_exsup4_.obj
 0001:000325d5       @_EH4_TransferToHandler@8  100335d5 f   libvcruntime:_exsup4_.obj
 0001:000325ee       @_EH4_GlobalUnwind2@8      100335ee f   libvcruntime:_exsup4_.obj
 0001:00032607       @_EH4_LocalUnwind@16       10033607 f   libvcruntime:_exsup4_.obj
 0001:00032620       __global_unwind2           10033620 f   libvcruntime:_exsup_.obj
 0001:00032685       __local_unwind2            10033685 f   libvcruntime:_exsup_.obj
 0001:00032709       __abnormal_termination     10033709 f   libvcruntime:_exsup_.obj
 0001:0003272c       __NLG_Notify1              1003372c f   libvcruntime:_exsup_.obj
 0001:00032735       __NLG_Notify               10033735 f   libvcruntime:_exsup_.obj
 0001:0003274c       __NLG_Dispatch2            1003374c     libvcruntime:_exsup_.obj
 0001:0003274c       __NLG_Dispatch             1003374c     libvcruntime:_exsup_.obj
 0001:00032754       __NLG_Call                 10033754 f   libvcruntime:_exsup_.obj
 0001:00032756       __NLG_Return2              10033756     libvcruntime:_exsup_.obj
 0001:00032dbb       ??$ftprintf@PAU_iobuf@@PB_WABQB_WABQB_WABI@?$__crt_char_traits@_W@@SAH$$QAPAU_iobuf@@$$QAPB_WABQB_W2ABI@Z 10033dbb f i libucrt:assert.obj
 0001:00032e9a       __vswprintf_c_l            10033e9a f i libucrt:assert.obj
 0001:00032ec9       __wassert                  10033ec9 f   libucrt:assert.obj
 0001:00032f11       _swprintf                  10033f11 f i libucrt:assert.obj
 0001:00032f2f       ?initialize@?$dual_state_global@P6AXPB_W00II@Z@__crt_state_management@@QAEXQ6AXPB_W00II@Z@Z 10033f2f f i libucrt:invalid_parameter.obj
 0001:00032f2f       ?initialize@?$dual_state_global@P6AXH@Z@__crt_state_management@@QAEXQ6AXH@Z@Z 10033f2f f i libucrt:signal.obj
 0001:00032f2f       ?initialize@?$dual_state_global@P6AHPAU_exception@@@Z@__crt_state_management@@QAEXQ6AHPAU_exception@@@Z@Z 10033f2f f i libucrt:matherr.obj
 0001:00032f2f       ?initialize@?$dual_state_global@PAPAD@__crt_state_management@@QAEXQAPAD@Z 10033f2f f i libucrt:environment_initialization.obj
 0001:00032f2f       ?initialize@?$dual_state_global@H@__crt_state_management@@QAEXH@Z 10033f2f f i libucrt:timeset.obj
 0001:00032f2f       ?initialize@?$dual_state_global@P6AHI@Z@__crt_state_management@@QAEXQ6AHI@Z@Z 10033f2f f i libucrt:new_handler.obj
 0001:00032f2f       ?initialize@?$dual_state_global@J@__crt_state_management@@QAEXJ@Z 10033f2f f i libucrt:timeset.obj
 0001:00032f2f       ?initialize@?$dual_state_global@PAU__crt_locale_data@@@__crt_state_management@@QAEXQAU__crt_locale_data@@@Z 10033f2f f i libucrt:initialization.obj
 0001:00032f60       ___acrt_call_reportfault   10033f60 f   libucrt:invalid_parameter.obj
 0001:0003309b       ___acrt_initialize_invalid_parameter_handler 1003409b f   libucrt:invalid_parameter.obj
 0001:000330af       __invalid_parameter        100340af f   libucrt:invalid_parameter.obj
 0001:0003312a       __invalid_parameter_noinfo 1003412a f   libucrt:invalid_parameter.obj
 0001:0003313a       __invalid_parameter_noinfo_noreturn 1003413a f   libucrt:invalid_parameter.obj
 0001:00033157       __invoke_watson            10034157 f   libucrt:invalid_parameter.obj
 0001:0003318a       _wcsncmp                   1003418a f   libucrt:wcsncmp.obj
 0001:000331c4       _abort                     100341c4 f   libucrt:abort.obj
 0001:00033207       _calloc                    10034207 f   libucrt:calloc.obj
 0001:00033220       _strcspn                   10034220 f   libucrt:strcspn.obj
 0001:00033266       ??$?RV<lambda_ab9923ffb5d694ec0d78876dd103e44f>@@AAV<lambda_481dd5778c961fbcd3b60b650e9b9dc4>@@V<lambda_7923d86c9e3f319b415918ec4b39749c>@@@?$__crt_seh_guarded_call@H@@QAEH$$QAV<lambda_ab9923ffb5d694ec0d78876dd103e44f>@@AAV<lambda_481dd5778c961fbcd3b60b650e9b9dc4>@@$$QAV<lambda_7923d86c9e3f319b415918ec4b39749c>@@@Z 10034266 f i libucrt:output.obj
 0001:000332b7       ??$__acrt_lock_stream_and_call@V<lambda_481dd5778c961fbcd3b60b650e9b9dc4>@@@@YAHQAU_iobuf@@$$QAV<lambda_481dd5778c961fbcd3b60b650e9b9dc4>@@@Z 100342b7 f i libucrt:output.obj
 0001:00033658       ??$count@D@formatting_buffer@__crt_stdio_output@@QBEIXZ 10034658 f i libucrt:output.obj
 0001:00033670       ??$ensure_buffer_is_big_enough@D@formatting_buffer@__crt_stdio_output@@QAE_NI@Z 10034670 f i libucrt:output.obj
 0001:000336f6       ??$is_wide_character_specifier@D@__crt_stdio_output@@YA_N_KDW4length_modifier@0@@Z 100346f6 f i libucrt:output.obj
 0001:00033736       ??$is_wide_character_specifier@_W@__crt_stdio_output@@YA_N_K_WW4length_modifier@0@@Z 10034736 f i libucrt:output.obj
 0001:00033785       ??$scratch_data@D@formatting_buffer@__crt_stdio_output@@QAEPADXZ 10034785 f i libucrt:output.obj
 0001:000337a3       ??$type_case_integer_parse_into_buffer@I@?$output_processor@_WV?$string_output_adapter@_W@__crt_stdio_output@@V?$standard_base@_WV?$string_output_adapter@_W@__crt_stdio_output@@@2@@__crt_stdio_output@@AAEXII_N@Z 100347a3 f i libucrt:output.obj
 0001:000337a3       ??$type_case_integer_parse_into_buffer@I@?$output_processor@_WV?$stream_output_adapter@_W@__crt_stdio_output@@V?$standard_base@_WV?$stream_output_adapter@_W@__crt_stdio_output@@@2@@__crt_stdio_output@@AAEXII_N@Z 100347a3 f i libucrt:output.obj
 0001:000337a3       ??$type_case_integer_parse_into_buffer@I@?$output_processor@DV?$string_output_adapter@D@__crt_stdio_output@@V?$format_validation_base@DV?$string_output_adapter@D@__crt_stdio_output@@@2@@__crt_stdio_output@@AAEXII_N@Z 100347a3 f i libucrt:output.obj
 0001:00033818       ??$type_case_integer_parse_into_buffer@_K@?$output_processor@_WV?$stream_output_adapter@_W@__crt_stdio_output@@V?$standard_base@_WV?$stream_output_adapter@_W@__crt_stdio_output@@@2@@__crt_stdio_output@@AAEX_KI_N@Z 10034818 f i libucrt:output.obj
 0001:00033818       ??$type_case_integer_parse_into_buffer@_K@?$output_processor@_WV?$string_output_adapter@_W@__crt_stdio_output@@V?$standard_base@_WV?$string_output_adapter@_W@__crt_stdio_output@@@2@@__crt_stdio_output@@AAEX_KI_N@Z 10034818 f i libucrt:output.obj
 0001:00033818       ??$type_case_integer_parse_into_buffer@_K@?$output_processor@DV?$string_output_adapter@D@__crt_stdio_output@@V?$format_validation_base@DV?$string_output_adapter@D@__crt_stdio_output@@@2@@__crt_stdio_output@@AAEX_KI_N@Z 10034818 f i libucrt:output.obj
 0001:000338a0       ??$write_multiple_characters@V?$stream_output_adapter@_W@__crt_stdio_output@@D@__crt_stdio_output@@YAXABV?$stream_output_adapter@_W@0@DHQAH@Z 100348a0 f i libucrt:output.obj
 0001:000338d1       ??$write_multiple_characters@V?$string_output_adapter@D@__crt_stdio_output@@D@__crt_stdio_output@@YAXABV?$string_output_adapter@D@0@DHQAH@Z 100348d1 f i libucrt:output.obj
 0001:000338fd       ??$write_multiple_characters@V?$string_output_adapter@_W@__crt_stdio_output@@D@__crt_stdio_output@@YAXABV?$string_output_adapter@_W@0@DHQAH@Z 100348fd f i libucrt:output.obj
 0001:0003392e       ??0?$common_data@D@__crt_stdio_output@@IAE@XZ 1003492e f i libucrt:output.obj
 0001:00033975       ??0?$common_data@_W@__crt_stdio_output@@IAE@XZ 10034975 f i libucrt:output.obj
 0001:000339c1       ??0?$output_adapter_data@DV?$string_output_adapter@D@__crt_stdio_output@@@__crt_stdio_output@@IAE@ABV?$string_output_adapter@D@1@_KQBDQAU__crt_locale_pointers@@QAD@Z 100349c1 f i libucrt:output.obj
 0001:000339fd       ??0?$output_adapter_data@_WV?$stream_output_adapter@_W@__crt_stdio_output@@@__crt_stdio_output@@IAE@ABV?$stream_output_adapter@_W@1@_KQB_WQAU__crt_locale_pointers@@QAD@Z 100349fd f i libucrt:output.obj
 0001:000339fd       ??0?$output_adapter_data@_WV?$string_output_adapter@_W@__crt_stdio_output@@@__crt_stdio_output@@IAE@ABV?$string_output_adapter@_W@1@_KQB_WQAU__crt_locale_pointers@@QAD@Z 100349fd f i libucrt:output.obj
 0001:00033a39       ??0?$output_processor@DV?$string_output_adapter@D@__crt_stdio_output@@V?$format_validation_base@DV?$string_output_adapter@D@__crt_stdio_output@@@2@@__crt_stdio_output@@QAE@ABV?$string_output_adapter@D@1@_KQBDQAU__crt_locale_pointers@@QAD@Z 10034a39 f i libucrt:output.obj
 0001:00033a6e       ??0?$output_processor@_WV?$string_output_adapter@_W@__crt_stdio_output@@V?$standard_base@_WV?$string_output_adapter@_W@__crt_stdio_output@@@2@@__crt_stdio_output@@QAE@ABV?$string_output_adapter@_W@1@_KQB_WQAU__crt_locale_pointers@@QAD@Z 10034a6e f i libucrt:output.obj
 0001:00033a6e       ??0?$output_processor@_WV?$stream_output_adapter@_W@__crt_stdio_output@@V?$standard_base@_WV?$stream_output_adapter@_W@__crt_stdio_output@@@2@@__crt_stdio_output@@QAE@ABV?$stream_output_adapter@_W@1@_KQB_WQAU__crt_locale_pointers@@QAD@Z 10034a6e f i libucrt:output.obj
 0001:00033aa3       ??0_LocaleUpdate@@QAE@QAU__crt_locale_pointers@@@Z 10034aa3 f i libucrt:output.obj
 0001:00033b26       ??1formatting_buffer@__crt_stdio_output@@QAE@XZ 10034b26 f i libucrt:output.obj
 0001:00033b40       ??4?$__crt_unique_heap_ptr@DU__crt_internal_free_policy@@@@QAEAAV0@$$QAV0@@Z 10034b40 f i libucrt:output.obj
 0001:00033c21       ?crop_zeroes@__crt_stdio_output@@YAXPADQAU__crt_locale_pointers@@@Z 10034c21 f i libucrt:output.obj
 0001:00033c78       ?find_next_state@?$output_processor@DV?$string_output_adapter@D@__crt_stdio_output@@V?$format_validation_base@DV?$string_output_adapter@D@__crt_stdio_output@@@2@@__crt_stdio_output@@ABE?AW4state@2@DW432@@Z 10034c78 f i libucrt:output.obj
 0001:00033cad       ?find_next_state@?$output_processor@_WV?$string_output_adapter@_W@__crt_stdio_output@@V?$standard_base@_WV?$string_output_adapter@_W@__crt_stdio_output@@@2@@__crt_stdio_output@@ABE?AW4state@2@_WW432@@Z 10034cad f i libucrt:output.obj
 0001:00033cad       ?find_next_state@?$output_processor@_WV?$stream_output_adapter@_W@__crt_stdio_output@@V?$standard_base@_WV?$stream_output_adapter@_W@__crt_stdio_output@@@2@@__crt_stdio_output@@ABE?AW4state@2@_WW432@@Z 10034cad f i libucrt:output.obj
 0001:00033ce1       ?force_decimal_point@__crt_stdio_output@@YAXPADQAU__crt_locale_pointers@@@Z 10034ce1 f i libucrt:output.obj
 0001:00033d3d       ?parse_int_from_format_string@?$output_processor@DV?$string_output_adapter@D@__crt_stdio_output@@V?$format_validation_base@DV?$string_output_adapter@D@__crt_stdio_output@@@2@@__crt_stdio_output@@AAE_NQAH@Z 10034d3d f i libucrt:output.obj
 0001:00033d99       ?parse_int_from_format_string@?$output_processor@_WV?$stream_output_adapter@_W@__crt_stdio_output@@V?$standard_base@_WV?$stream_output_adapter@_W@__crt_stdio_output@@@2@@__crt_stdio_output@@AAE_NQAH@Z 10034d99 f i libucrt:output.obj
 0001:00033d99       ?parse_int_from_format_string@?$output_processor@_WV?$string_output_adapter@_W@__crt_stdio_output@@V?$standard_base@_WV?$string_output_adapter@_W@__crt_stdio_output@@@2@@__crt_stdio_output@@AAE_NQAH@Z 10034d99 f i libucrt:output.obj
 0001:00033df7       ?process@?$output_processor@DV?$string_output_adapter@D@__crt_stdio_output@@V?$format_validation_base@DV?$string_output_adapter@D@__crt_stdio_output@@@2@@__crt_stdio_output@@QAEHXZ 10034df7 f i libucrt:output.obj
 0001:00033f1f       ?process@?$output_processor@_WV?$stream_output_adapter@_W@__crt_stdio_output@@V?$standard_base@_WV?$stream_output_adapter@_W@__crt_stdio_output@@@2@@__crt_stdio_output@@QAEHXZ 10034f1f f i libucrt:output.obj
 0001:0003403f       ?process@?$output_processor@_WV?$string_output_adapter@_W@__crt_stdio_output@@V?$standard_base@_WV?$string_output_adapter@_W@__crt_stdio_output@@@2@@__crt_stdio_output@@QAEHXZ 1003503f f i libucrt:output.obj
 0001:0003415f       ?state_case_flag@?$output_processor@DV?$string_output_adapter@D@__crt_stdio_output@@V?$format_validation_base@DV?$string_output_adapter@D@__crt_stdio_output@@@2@@__crt_stdio_output@@AAE_NXZ 1003515f f i libucrt:output.obj
 0001:0003419c       ?state_case_flag@?$output_processor@_WV?$stream_output_adapter@_W@__crt_stdio_output@@V?$standard_base@_WV?$stream_output_adapter@_W@__crt_stdio_output@@@2@@__crt_stdio_output@@AAE_NXZ 1003519c f i libucrt:output.obj
 0001:0003419c       ?state_case_flag@?$output_processor@_WV?$string_output_adapter@_W@__crt_stdio_output@@V?$standard_base@_WV?$string_output_adapter@_W@__crt_stdio_output@@@2@@__crt_stdio_output@@AAE_NXZ 1003519c f i libucrt:output.obj
 0001:000341d9       ?state_case_normal@?$output_processor@DV?$string_output_adapter@D@__crt_stdio_output@@V?$format_validation_base@DV?$string_output_adapter@D@__crt_stdio_output@@@2@@__crt_stdio_output@@AAE_NXZ 100351d9 f i libucrt:output.obj
 0001:000341f8       ?state_case_normal@?$output_processor@_WV?$stream_output_adapter@_W@__crt_stdio_output@@V?$standard_base@_WV?$stream_output_adapter@_W@__crt_stdio_output@@@2@@__crt_stdio_output@@AAE_NXZ 100351f8 f i libucrt:output.obj
 0001:00034217       ?state_case_normal@?$output_processor@_WV?$string_output_adapter@_W@__crt_stdio_output@@V?$standard_base@_WV?$string_output_adapter@_W@__crt_stdio_output@@@2@@__crt_stdio_output@@AAE_NXZ 10035217 f i libucrt:output.obj
 0001:00034236       ?state_case_normal_common@?$output_processor@DV?$string_output_adapter@D@__crt_stdio_output@@V?$format_validation_base@DV?$string_output_adapter@D@__crt_stdio_output@@@2@@__crt_stdio_output@@AAE_NXZ 10035236 f i libucrt:output.obj
 0001:00034260       ?state_case_normal_common@?$output_processor@_WV?$stream_output_adapter@_W@__crt_stdio_output@@V?$standard_base@_WV?$stream_output_adapter@_W@__crt_stdio_output@@@2@@__crt_stdio_output@@AAE_NXZ 10035260 f i libucrt:output.obj
 0001:0003427b       ?state_case_normal_common@?$output_processor@_WV?$string_output_adapter@_W@__crt_stdio_output@@V?$standard_base@_WV?$string_output_adapter@_W@__crt_stdio_output@@@2@@__crt_stdio_output@@AAE_NXZ 1003527b f i libucrt:output.obj
 0001:00034296       ?state_case_normal_tchar@?$output_processor@DV?$string_output_adapter@D@__crt_stdio_output@@V?$format_validation_base@DV?$string_output_adapter@D@__crt_stdio_output@@@2@@__crt_stdio_output@@AAE_ND@Z 10035296 f i libucrt:output.obj
 0001:000342f7       ?state_case_precision@?$output_processor@DV?$string_output_adapter@D@__crt_stdio_output@@V?$format_validation_base@DV?$string_output_adapter@D@__crt_stdio_output@@@2@@__crt_stdio_output@@AAE_NXZ 100352f7 f i libucrt:output.obj
 0001:0003431f       ?state_case_precision@?$output_processor@_WV?$stream_output_adapter@_W@__crt_stdio_output@@V?$standard_base@_WV?$stream_output_adapter@_W@__crt_stdio_output@@@2@@__crt_stdio_output@@AAE_NXZ 1003531f f i libucrt:output.obj
 0001:0003431f       ?state_case_precision@?$output_processor@_WV?$string_output_adapter@_W@__crt_stdio_output@@V?$standard_base@_WV?$string_output_adapter@_W@__crt_stdio_output@@@2@@__crt_stdio_output@@AAE_NXZ 1003531f f i libucrt:output.obj
 0001:00034348       ?state_case_size@?$output_processor@DV?$string_output_adapter@D@__crt_stdio_output@@V?$format_validation_base@DV?$string_output_adapter@D@__crt_stdio_output@@@2@@__crt_stdio_output@@AAE_NXZ 10035348 f i libucrt:output.obj
 0001:000344b1       ?state_case_size@?$output_processor@_WV?$stream_output_adapter@_W@__crt_stdio_output@@V?$standard_base@_WV?$stream_output_adapter@_W@__crt_stdio_output@@@2@@__crt_stdio_output@@AAE_NXZ 100354b1 f i libucrt:output.obj
 0001:0003462d       ?state_case_size@?$output_processor@_WV?$string_output_adapter@_W@__crt_stdio_output@@V?$standard_base@_WV?$string_output_adapter@_W@__crt_stdio_output@@@2@@__crt_stdio_output@@AAE_NXZ 1003562d f i libucrt:output.obj
 0001:000347a9       ?state_case_type@?$output_processor@DV?$string_output_adapter@D@__crt_stdio_output@@V?$format_validation_base@DV?$string_output_adapter@D@__crt_stdio_output@@@2@@__crt_stdio_output@@AAE_NXZ 100357a9 f i libucrt:output.obj
 0001:000349d8       ?state_case_type@?$output_processor@_WV?$stream_output_adapter@_W@__crt_stdio_output@@V?$standard_base@_WV?$stream_output_adapter@_W@__crt_stdio_output@@@2@@__crt_stdio_output@@AAE_NXZ 100359d8 f i libucrt:output.obj
 0001:00034c35       ?state_case_type@?$output_processor@_WV?$string_output_adapter@_W@__crt_stdio_output@@V?$standard_base@_WV?$string_output_adapter@_W@__crt_stdio_output@@@2@@__crt_stdio_output@@AAE_NXZ 10035c35 f i libucrt:output.obj
 0001:00034e92       ?state_case_width@?$output_processor@DV?$string_output_adapter@D@__crt_stdio_output@@V?$format_validation_base@DV?$string_output_adapter@D@__crt_stdio_output@@@2@@__crt_stdio_output@@AAE_NXZ 10035e92 f i libucrt:output.obj
 0001:00034ebd       ?state_case_width@?$output_processor@_WV?$stream_output_adapter@_W@__crt_stdio_output@@V?$standard_base@_WV?$stream_output_adapter@_W@__crt_stdio_output@@@2@@__crt_stdio_output@@AAE_NXZ 10035ebd f i libucrt:output.obj
 0001:00034ebd       ?state_case_width@?$output_processor@_WV?$string_output_adapter@_W@__crt_stdio_output@@V?$standard_base@_WV?$string_output_adapter@_W@__crt_stdio_output@@@2@@__crt_stdio_output@@AAE_NXZ 10035ebd f i libucrt:output.obj
 0001:00034ee9       ?to_integer_size@__crt_stdio_output@@YAIW4length_modifier@1@@Z 10035ee9 f i libucrt:output.obj
 0001:00034f45       ?type_case_Z@?$output_processor@DV?$string_output_adapter@D@__crt_stdio_output@@V?$format_validation_base@DV?$string_output_adapter@D@__crt_stdio_output@@@2@@__crt_stdio_output@@AAE_NXZ 10035f45 f i libucrt:output.obj
 0001:00034fa8       ?type_case_Z@?$output_processor@_WV?$string_output_adapter@_W@__crt_stdio_output@@V?$standard_base@_WV?$string_output_adapter@_W@__crt_stdio_output@@@2@@__crt_stdio_output@@AAE_NXZ 10035fa8 f i libucrt:output.obj
 0001:00034fa8       ?type_case_Z@?$output_processor@_WV?$stream_output_adapter@_W@__crt_stdio_output@@V?$standard_base@_WV?$stream_output_adapter@_W@__crt_stdio_output@@@2@@__crt_stdio_output@@AAE_NXZ 10035fa8 f i libucrt:output.obj
 0001:0003500b       ?type_case_a@?$output_processor@DV?$string_output_adapter@D@__crt_stdio_output@@V?$format_validation_base@DV?$string_output_adapter@D@__crt_stdio_output@@@2@@__crt_stdio_output@@AAE_NXZ 1003600b f i libucrt:output.obj
 0001:00035165       ?type_case_a@?$output_processor@_WV?$string_output_adapter@_W@__crt_stdio_output@@V?$standard_base@_WV?$string_output_adapter@_W@__crt_stdio_output@@@2@@__crt_stdio_output@@AAE_NXZ 10036165 f i libucrt:output.obj
 0001:00035165       ?type_case_a@?$output_processor@_WV?$stream_output_adapter@_W@__crt_stdio_output@@V?$standard_base@_WV?$stream_output_adapter@_W@__crt_stdio_output@@@2@@__crt_stdio_output@@AAE_NXZ 10036165 f i libucrt:output.obj
 0001:000352d7       ?type_case_c_tchar@?$output_processor@DV?$string_output_adapter@D@__crt_stdio_output@@V?$format_validation_base@DV?$string_output_adapter@D@__crt_stdio_output@@@2@@__crt_stdio_output@@AAE_ND@Z 100362d7 f i libucrt:output.obj
 0001:00035367       ?type_case_c_tchar@?$output_processor@_WV?$string_output_adapter@_W@__crt_stdio_output@@V?$standard_base@_WV?$string_output_adapter@_W@__crt_stdio_output@@@2@@__crt_stdio_output@@AAE_N_W@Z 10036367 f i libucrt:output.obj
 0001:00035367       ?type_case_c_tchar@?$output_processor@_WV?$stream_output_adapter@_W@__crt_stdio_output@@V?$standard_base@_WV?$stream_output_adapter@_W@__crt_stdio_output@@@2@@__crt_stdio_output@@AAE_N_W@Z 10036367 f i libucrt:output.obj
 0001:000353ff       ?type_case_integer@?$output_processor@DV?$string_output_adapter@D@__crt_stdio_output@@V?$format_validation_base@DV?$string_output_adapter@D@__crt_stdio_output@@@2@@__crt_stdio_output@@AAE_NI_N@Z 100363ff f i libucrt:output.obj
 0001:000353ff       ?type_case_integer@?$output_processor@_WV?$string_output_adapter@_W@__crt_stdio_output@@V?$standard_base@_WV?$string_output_adapter@_W@__crt_stdio_output@@@2@@__crt_stdio_output@@AAE_NI_N@Z 100363ff f i libucrt:output.obj
 0001:000353ff       ?type_case_integer@?$output_processor@_WV?$stream_output_adapter@_W@__crt_stdio_output@@V?$standard_base@_WV?$stream_output_adapter@_W@__crt_stdio_output@@@2@@__crt_stdio_output@@AAE_NI_N@Z 100363ff f i libucrt:output.obj
 0001:00035549       ?type_case_n@?$output_processor@_WV?$stream_output_adapter@_W@__crt_stdio_output@@V?$standard_base@_WV?$stream_output_adapter@_W@__crt_stdio_output@@@2@@__crt_stdio_output@@AAE_NXZ 10036549 f i libucrt:output.obj
 0001:00035549       ?type_case_n@?$output_processor@_WV?$string_output_adapter@_W@__crt_stdio_output@@V?$standard_base@_WV?$string_output_adapter@_W@__crt_stdio_output@@@2@@__crt_stdio_output@@AAE_NXZ 10036549 f i libucrt:output.obj
 0001:00035549       ?type_case_n@?$output_processor@DV?$string_output_adapter@D@__crt_stdio_output@@V?$format_validation_base@DV?$string_output_adapter@D@__crt_stdio_output@@@2@@__crt_stdio_output@@AAE_NXZ 10036549 f i libucrt:output.obj
 0001:000355bd       ?type_case_o@?$output_processor@_WV?$string_output_adapter@_W@__crt_stdio_output@@V?$standard_base@_WV?$string_output_adapter@_W@__crt_stdio_output@@@2@@__crt_stdio_output@@AAE_NXZ 100365bd f i libucrt:output.obj
 0001:000355bd       ?type_case_o@?$output_processor@DV?$string_output_adapter@D@__crt_stdio_output@@V?$format_validation_base@DV?$string_output_adapter@D@__crt_stdio_output@@@2@@__crt_stdio_output@@AAE_NXZ 100365bd f i libucrt:output.obj
 0001:000355bd       ?type_case_o@?$output_processor@_WV?$stream_output_adapter@_W@__crt_stdio_output@@V?$standard_base@_WV?$stream_output_adapter@_W@__crt_stdio_output@@@2@@__crt_stdio_output@@AAE_NXZ 100365bd f i libucrt:output.obj
 0001:000355dc       ?type_case_p@?$output_processor@DV?$string_output_adapter@D@__crt_stdio_output@@V?$format_validation_base@DV?$string_output_adapter@D@__crt_stdio_output@@@2@@__crt_stdio_output@@AAE_NXZ 100365dc f i libucrt:output.obj
 0001:000355dc       ?type_case_p@?$output_processor@_WV?$stream_output_adapter@_W@__crt_stdio_output@@V?$standard_base@_WV?$stream_output_adapter@_W@__crt_stdio_output@@@2@@__crt_stdio_output@@AAE_NXZ 100365dc f i libucrt:output.obj
 0001:000355dc       ?type_case_p@?$output_processor@_WV?$string_output_adapter@_W@__crt_stdio_output@@V?$standard_base@_WV?$string_output_adapter@_W@__crt_stdio_output@@@2@@__crt_stdio_output@@AAE_NXZ 100365dc f i libucrt:output.obj
 0001:000355f4       ?type_case_s@?$output_processor@DV?$string_output_adapter@D@__crt_stdio_output@@V?$format_validation_base@DV?$string_output_adapter@D@__crt_stdio_output@@@2@@__crt_stdio_output@@AAE_NXZ 100365f4 f i libucrt:output.obj
 0001:00035667       ?type_case_s@?$output_processor@_WV?$stream_output_adapter@_W@__crt_stdio_output@@V?$standard_base@_WV?$stream_output_adapter@_W@__crt_stdio_output@@@2@@__crt_stdio_output@@AAE_NXZ 10036667 f i libucrt:output.obj
 0001:00035667       ?type_case_s@?$output_processor@_WV?$string_output_adapter@_W@__crt_stdio_output@@V?$standard_base@_WV?$string_output_adapter@_W@__crt_stdio_output@@@2@@__crt_stdio_output@@AAE_NXZ 10036667 f i libucrt:output.obj
 0001:000356db       ?type_case_s_compute_narrow_string_length@?$output_processor@_WV?$string_output_adapter@_W@__crt_stdio_output@@V?$standard_base@_WV?$string_output_adapter@_W@__crt_stdio_output@@@2@@__crt_stdio_output@@ABEHH_W@Z 100366db f i libucrt:output.obj
 0001:000356db       ?type_case_s_compute_narrow_string_length@?$output_processor@_WV?$stream_output_adapter@_W@__crt_stdio_output@@V?$standard_base@_WV?$stream_output_adapter@_W@__crt_stdio_output@@@2@@__crt_stdio_output@@ABEHH_W@Z 100366db f i libucrt:output.obj
 0001:0003571b       ?validate_and_update_state_at_end_of_format_string@?$format_validation_base@DV?$string_output_adapter@D@__crt_stdio_output@@@__crt_stdio_output@@IBE_NXZ 1003671b f i libucrt:output.obj
 0001:0003573d       ?write_character@?$stream_output_adapter@_W@__crt_stdio_output@@QBEX_WQAH@Z 1003673d f i libucrt:output.obj
 0001:0003577d       ?write_character@?$string_output_adapter@D@__crt_stdio_output@@QBE_NDQAH@Z 1003677d f i libucrt:output.obj
 0001:000357bf       ?write_character@?$string_output_adapter@_W@__crt_stdio_output@@QBE_N_WQAH@Z 100367bf f i libucrt:output.obj
 0001:00035804       ?write_stored_string_tchar@?$output_processor@DV?$string_output_adapter@D@__crt_stdio_output@@V?$format_validation_base@DV?$string_output_adapter@D@__crt_stdio_output@@@2@@__crt_stdio_output@@AAE_ND@Z 10036804 f i libucrt:output.obj
 0001:000358ab       ?write_stored_string_tchar@?$output_processor@_WV?$stream_output_adapter@_W@__crt_stdio_output@@V?$standard_base@_WV?$stream_output_adapter@_W@__crt_stdio_output@@@2@@__crt_stdio_output@@AAE_N_W@Z 100368ab f i libucrt:output.obj
 0001:00035936       ?write_stored_string_tchar@?$output_processor@_WV?$string_output_adapter@_W@__crt_stdio_output@@V?$standard_base@_WV?$string_output_adapter@_W@__crt_stdio_output@@@2@@__crt_stdio_output@@AAE_N_W@Z 10036936 f i libucrt:output.obj
 0001:000359c1       ?write_string@?$stream_output_adapter@_W@__crt_stdio_output@@QBEXQB_WHQAH1@Z 100369c1 f i libucrt:output.obj
 0001:00035a4e       ?write_string@?$string_output_adapter@D@__crt_stdio_output@@QBEXQBDHQAH1@Z 10036a4e f i libucrt:output.obj
 0001:00035ae1       ?write_string@?$string_output_adapter@_W@__crt_stdio_output@@QBEXQB_WHQAH1@Z 10036ae1 f i libucrt:output.obj
 0001:00035b7b       ___stdio_common_vfwprintf  10036b7b f   libucrt:output.obj
 0001:00035bf2       ___stdio_common_vsprintf_s 10036bf2 f   libucrt:output.obj
 0001:00035c16       ___stdio_common_vswprintf  10036c16 f   libucrt:output.obj
 0001:00035c3a       _localeconv                10036c3a f   libucrt:localeconv.obj
 0001:00035c64       _free                      10036c64 f   libucrt:free.obj
 0001:00035c69       _frexp                     10036c69 f   libucrt:frexp.obj
 0001:00035d70       _modf                      10036d70 f   libucrt:modf_pentium4.obj
 0001:00035db0       __modf_pentium4            10036db0 f   libucrt:modf_pentium4.obj
 0001:00035eb8       __copysign                 10036eb8 f   libucrt:ieeemisc.obj
 0001:00035ee2       __finite                   10036ee2 f   libucrt:ieeemisc.obj
 0001:00035efc       __fpclass                  10036efc f   libucrt:ieeemisc.obj
 0001:00035fa0       __isnan                    10036fa0 f   libucrt:ieeemisc.obj
 0001:00035fd6       __calloc_base              10036fd6 f   libucrt:calloc_base.obj
 0001:00036033       __free_base                10037033 f   libucrt:free_base.obj
 0001:0003606d       ___acrt_initialize_locks   1003706d f   libucrt:locks.obj
 0001:000360ae       ___acrt_lock               100370ae f   libucrt:locks.obj
 0001:000360c5       ___acrt_uninitialize_locks 100370c5 f   libucrt:locks.obj
 0001:000360f6       ___acrt_unlock             100370f6 f   libucrt:locks.obj
 0001:0003610d       __lock_locales             1003710d f   libucrt:locks.obj
 0001:00036116       __unlock_locales           10037116 f   libucrt:locks.obj
 0001:0003611f       _malloc                    1003711f f   libucrt:malloc.obj
 0001:000361c7       _setlocale                 100371c7 f   libucrt:setlocale.obj
 0001:00036324       ___pctype_func             10037324 f   libucrt:ctype.obj
 0001:0003634a       __chvalidchk_l             1003734a f i libucrt:_ctype.obj
 0001:00036374       __ischartype_l             10037374 f i libucrt:_ctype.obj
 0001:000363a7       __isdigit_l                100373a7 f i libucrt:_ctype.obj
 0001:000363df       __islower_l                100373df f i libucrt:_ctype.obj
 0001:00036417       __isupper_l                10037417 f i libucrt:_ctype.obj
 0001:0003644f       _isdigit                   1003744f f i libucrt:_ctype.obj
 0001:0003647c       _islower                   1003747c f i libucrt:_ctype.obj
 0001:000364a9       _isupper                   100374a9 f i libucrt:_ctype.obj
 0001:000364d6       __wcsdup                   100374d6 f   libucrt:wcsdup.obj
 0001:00036537       ____lc_codepage_func       10037537 f   libucrt:initctype.obj
 0001:0003655e       ____lc_locale_name_func    1003755e f   libucrt:initctype.obj
 0001:00036587       ____mb_cur_max_func        10037587 f   libucrt:initctype.obj
 0001:000365ae       ___acrt_locale_initialize_ctype 100375ae f   libucrt:initctype.obj
 0001:0003694c       ___acrt_errno_from_os_error 1003794c f   libucrt:errno.obj
 0001:0003698f       ___acrt_errno_map_os_error 1003798f f   libucrt:errno.obj
 0001:000369b2       ___doserrno                100379b2 f   libucrt:errno.obj
 0001:000369c5       __errno                    100379c5 f   libucrt:errno.obj
 0001:00036a31       __ismbblead                10037a31 f   libucrt:ismbbyte.obj
 0001:00036a49       __malloc_base              10037a49 f   libucrt:malloc_base.obj
 0001:00036a97       __realloc_base             10037a97 f   libucrt:realloc_base.obj
 0001:00036b00       ??$make_c_string_character_source@DPAPAD@__crt_strtox@@YA?AV?$c_string_character_source@D@0@QBDQAPAD@Z 10037b00 f i libucrt:strtod.obj
 0001:00036b00       ??$make_c_string_character_source@_W$$T@__crt_strtox@@YA?AV?$c_string_character_source@_W@0@QB_W$$T@Z 10037b00 f i libucrt:atox.obj
 0001:00036b00       ??$make_c_string_character_source@_WPAPA_W@__crt_strtox@@YA?AV?$c_string_character_source@_W@0@QB_WQAPA_W@Z 10037b00 f i libucrt:strtod.obj
 0001:00036b20       ?divide@__crt_strtox@@YA_KAAUbig_integer@1@ABU21@@Z 10037b20 f i libucrt:strtod.obj
 0001:00036fce       ?unget@?$c_string_character_source@D@__crt_strtox@@QAEXD@Z 10037fce f i libucrt:strtod.obj
 0001:00036ff6       ?unget@?$c_string_character_source@_W@__crt_strtox@@QAEX_W@Z 10037ff6 f i libucrt:strtod.obj
 0001:00037022       ?validate@?$c_string_character_source@D@__crt_strtox@@QBE_NXZ 10038022 f i libucrt:strtod.obj
 0001:00037022       ?validate@?$string_output_adapter@_W@__crt_stdio_output@@QBE_NXZ 10038022 f i libucrt:output.obj
 0001:00037022       ?validate@?$c_string_character_source@_W@__crt_strtox@@QBE_NXZ 10038022 f i libucrt:strtod.obj
 0001:00037022       ?validate@?$string_output_adapter@D@__crt_stdio_output@@QBE_NXZ 10038022 f i libucrt:output.obj
 0001:00037022       ?validate@?$stream_output_adapter@_W@__crt_stdio_output@@QBE_NXZ 10038022 f i libucrt:output.obj
 0001:00037040       _pow                       10038040 f   libucrt:pow.obj
 0001:00037080       __CIpow                    10038080 f   libucrt:pow.obj
 0001:000370bb       __CIpow_default            100380bb f   libucrt:pow.obj
 0001:000370d4       __pow_default              100380d4     libucrt:pow.obj
 0001:000372c9       ___strncnt                 100382c9 f   libucrt:strncnt.obj
 0001:0003744c       __tolower_l                1003844c f   libucrt:tolower_toupper.obj
 0001:00037466       _tolower                   10038466 f   libucrt:tolower_toupper.obj
 0001:00037496       _wcscpy_s                  10038496 f   libucrt:wcscpy_s.obj
 0001:000374fa       _strnlen                   100384fa f   libucrt:strnlen.obj
 0001:00037621       _wcsnlen                   10038621 f   libucrt:strnlen.obj
 0001:000377d8       ___acrt_initialize_new_handler 100387d8 f   libucrt:new_handler.obj
 0001:000377ec       __callnewh                 100387ec f   libucrt:new_handler.obj
 0001:00037830       __query_new_handler        10038830 f   libucrt:new_handler.obj
 0001:00037882       __seh_filter_dll           10038882 f   libucrt:exception_filter.obj
 0001:000378a2       __seh_filter_exe           100388a2 f   libucrt:exception_filter.obj
 0001:00037c30       ___acrt_initialize_thread_local_exit_callback 10038c30 f   libucrt:exit.obj
 0001:00037c3f       __cexit                    10038c3f f   libucrt:exit.obj
 0001:00037c4e       __exit                     10038c4e f   libucrt:exit.obj
 0001:00037c64       __is_c_termination_complete 10038c64 f   libucrt:exit.obj
 0001:00037f03       ___acrt_allocate_buffer_for_argv 10038f03 f   libucrt:argv_parsing.obj
 0001:00037f58       __configure_narrow_argv    10038f58 f   libucrt:argv_parsing.obj
 0001:000380bc       ??$uninitialize@A6AXAAPAPAD@Z@?$dual_state_global@PAPAD@__crt_state_management@@QAEXA6AXAAPAPAD@Z@Z 100390bc f i libucrt:environment_initialization.obj
 0001:000380bc       ??$uninitialize@A6AXAAPAPA_W@Z@?$dual_state_global@PAPA_W@__crt_state_management@@QAEXA6AXAAPAPA_W@Z@Z 100390bc f i libucrt:environment_initialization.obj
 0001:00038132       ___dcrt_uninitialize_environments_nolock 10039132 f   libucrt:environment_initialization.obj
 0001:00038169       __initialize_narrow_environment 10039169 f   libucrt:environment_initialization.obj
 0001:0003816e       ??$?RV<lambda_800076c951b434888f4765a74a194fcc>@@AAV<lambda_4e60a939b0d047cfe11ddc22648dfba9>@@V<lambda_6dbb1268764f43b569ce7b67e331d33a>@@@?$__crt_seh_guarded_call@H@@QAEH$$QAV<lambda_800076c951b434888f4765a74a194fcc>@@AAV<lambda_4e60a939b0d047cfe11ddc22648dfba9>@@$$QAV<lambda_6dbb1268764f43b569ce7b67e331d33a>@@@Z 1003916e f i libucrt:onexit.obj
 0001:000381bf       ??$?RV<lambda_995298e7d72eb4c2aab26c0585b3abe5>@@AAV<lambda_275893d493268fdec8709772e3fcec0e>@@V<lambda_293819299cbf9a7022e18b56a874bb5c>@@@?$__crt_seh_guarded_call@H@@QAEH$$QAV<lambda_995298e7d72eb4c2aab26c0585b3abe5>@@AAV<lambda_275893d493268fdec8709772e3fcec0e>@@$$QAV<lambda_293819299cbf9a7022e18b56a874bb5c>@@@Z 100391bf f i libucrt:onexit.obj
 0001:00038210       ??$__acrt_lock_and_call@V<lambda_275893d493268fdec8709772e3fcec0e>@@@@YAHW4__acrt_lock_id@@$$QAV<lambda_275893d493268fdec8709772e3fcec0e>@@@Z 10039210 f i libucrt:onexit.obj
 0001:00038238       ??$__acrt_lock_and_call@V<lambda_4e60a939b0d047cfe11ddc22648dfba9>@@@@YAHW4__acrt_lock_id@@$$QAV<lambda_4e60a939b0d047cfe11ddc22648dfba9>@@@Z 10039238 f i libucrt:onexit.obj
 0001:00038260       ??$__crt_fast_encode_pointer@P6AHXZ@@YAP6AHXZQ6AHXZ@Z 10039260 f i libucrt:onexit.obj
 0001:00038260       ??$__crt_fast_encode_pointer@P6GHPA_WKJ@Z@@YAP6GHPA_WKJ@ZQ6GH0KJ@Z@Z 10039260 f i libucrt:winapi_thunks.obj
 0001:000384e0       __crt_atexit               100394e0 f   libucrt:onexit.obj
 0001:000384f6       __execute_onexit_table     100394f6 f   libucrt:onexit.obj
 0001:00038513       __initialize_onexit_table  10039513 f   libucrt:onexit.obj
 0001:00038550       __register_onexit_function 10039550 f   libucrt:onexit.obj
 0001:00038665       ___acrt_initialize         10039665 f   libucrt:initialization.obj
 0001:00038677       ___acrt_thread_attach      10039677 f   libucrt:initialization.obj
 0001:00038682       ___acrt_thread_detach      10039682 f   libucrt:initialization.obj
 0001:0003868a       ___acrt_uninitialize       1003968a f   libucrt:initialization.obj
 0001:0003869c       ___acrt_uninitialize_critical 1003969c f   libucrt:initialization.obj
 0001:000386ae       __initterm                 100396ae f   libucrt:initterm.obj
 0001:0003870a       __initterm_e               1003970a f   libucrt:initterm.obj
 0001:0003874f       _terminate                 1003974f f   libucrt:terminate.obj
 0001:0003878b       ___acrt_initialize_stdio   1003978b f   libucrt:_file.obj
 0001:00038853       ___acrt_iob_func           10039853 f   libucrt:_file.obj
 0001:00038863       ___acrt_uninitialize_stdio 10039863 f   libucrt:_file.obj
 0001:000388af       __lock_file                100398af f   libucrt:_file.obj
 0001:000388c3       __unlock_file              100398c3 f   libucrt:_file.obj
 0001:000388d7       ___acrt_stdio_flush_nolock 100398d7 f   libucrt:fflush.obj
 0001:0003893d       __fflush_nolock            1003993d f   libucrt:fflush.obj
 0001:00038984       __flushall                 10039984 f   libucrt:fflush.obj
 0001:00038a65       _fflush                    10039a65 f   libucrt:fflush.obj
 0001:00038ac0       _exp                       10039ac0 f   libucrt:87ctran.obj
 0001:00038afc       __CIexp                    10039afc f   libucrt:87ctran.obj
 0001:00038b37       __exp_default              10039b37 f   libucrt:87ctran.obj
 0001:00038b41       __CIexp_default            10039b41 f   libucrt:87ctran.obj
 0001:00038b50       __CIsqrt                   10039b50 f   libucrt:sqrt.obj
 0001:00038b64       _sqrt                      10039b64     libucrt:sqrt.obj
 0001:00038cd7       _wcsncpy_s                 10039cd7 f   libucrt:wcsncpy_s.obj
 0001:00038ce2       _strcpy_s                  10039ce2 f   libucrt:strcpy_s.obj
 0001:00038d3c       ??$is_overflow_condition@K@__crt_strtox@@YA_NIK@Z 10039d3c f i libucrt:atox.obj
 0001:00038d6f       ??$parse_integer@KV?$c_string_character_source@D@__crt_strtox@@@__crt_strtox@@YAKQAU__crt_locale_pointers@@V?$c_string_character_source@D@0@H_N@Z 10039d6f f i libucrt:atox.obj
 0001:00038f97       ??$parse_integer@KV?$c_string_character_source@_W@__crt_strtox@@@__crt_strtox@@YAKQAU__crt_locale_pointers@@V?$c_string_character_source@_W@0@H_N@Z 10039f97 f i libucrt:atox.obj
 0001:0003967c       __wtol                     1003a67c f   libucrt:atox.obj
 0001:000396a6       __query_app_type           1003a6a6 f   libucrt:report_runtime_error.obj
 0001:00039799       __itow_s                   1003a799 f   libucrt:xtoa.obj
 0001:000397ce       __set_error_mode           1003a7ce f   libucrt:set_error_mode.obj
 0001:0003980d       _wcscat_s                  1003a80d f   libucrt:wcscat_s.obj
 0001:0003996b       _wcsncat_s                 1003a96b f   libucrt:wcsncat_s.obj
 0001:00039a71       ___acrt_show_wide_message_box 1003aa71 f   libucrt:crtmbox.obj
 0001:00039a7c       ??$?RV<lambda_d92cfe8357b99225085016881b624cb0>@@AAV<lambda_b721fa326cdb32351d23dfa67958c160>@@V<lambda_42d75b0848218ec137fa420c8ba9fdf9>@@@?$__crt_seh_guarded_call@H@@QAEH$$QAV<lambda_d92cfe8357b99225085016881b624cb0>@@AAV<lambda_b721fa326cdb32351d23dfa67958c160>@@$$QAV<lambda_42d75b0848218ec137fa420c8ba9fdf9>@@@Z 1003aa7c f i libucrt:setvbuf.obj
 0001:00039acd       ??$__acrt_lock_stream_and_call@V<lambda_b721fa326cdb32351d23dfa67958c160>@@@@YAHQAU_iobuf@@$$QAV<lambda_b721fa326cdb32351d23dfa67958c160>@@@Z 1003aacd f i libucrt:setvbuf.obj
 0001:00039bc2       _setvbuf                   1003abc2 f   libucrt:setvbuf.obj
 0001:00039c38       ??$?RV<lambda_a048d3beccc847880fc8490e18b82769>@@AAV<lambda_ec61778202f4f5fc7e7711acc23c3bca>@@V<lambda_f7496a158712204296dd6628a163878e>@@@?$__crt_seh_guarded_call@P6AXH@Z@@QAEP6AXH@Z$$QAV<lambda_a048d3beccc847880fc8490e18b82769>@@AAV<lambda_ec61778202f4f5fc7e7711acc23c3bca>@@$$QAV<lambda_f7496a158712204296dd6628a163878e>@@@Z 1003ac38 f i libucrt:signal.obj
 0001:00039c92       ??$__acrt_lock_and_call@V<lambda_ec61778202f4f5fc7e7711acc23c3bca>@@@@YAP6AXH@ZW4__acrt_lock_id@@$$QAV<lambda_ec61778202f4f5fc7e7711acc23c3bca>@@@Z 1003ac92 f i libucrt:signal.obj
 0001:00039d24       ___acrt_get_sigabrt_handler 1003ad24 f   libucrt:signal.obj
 0001:00039d3b       ___acrt_initialize_signal_handlers 1003ad3b f   libucrt:signal.obj
 0001:00039d76       ___fpecode                 1003ad76 f   libucrt:signal.obj
 0001:00039d7f       _raise                     1003ad7f f   libucrt:signal.obj
 0001:00039f87       ??$?RV<lambda_3518db117f0e7cdb002338c5d3c47b6c>@@AAV<lambda_b2ea41f6bbb362cd97d94c6828d90b61>@@V<lambda_abdedf541bb04549bc734292b4a045d4>@@@?$__crt_seh_guarded_call@X@@QAEX$$QAV<lambda_3518db117f0e7cdb002338c5d3c47b6c>@@AAV<lambda_b2ea41f6bbb362cd97d94c6828d90b61>@@$$QAV<lambda_abdedf541bb04549bc734292b4a045d4>@@@Z 1003af87 f i libucrt:per_thread_data.obj
 0001:00039fd7       ??$?RV<lambda_51b6e8b1eb166f2a3faf91f424b38130>@@AAV<lambda_6250bd4b2a391816dd638c3bf72b0bcb>@@V<lambda_0b5a4a3e68152e1d9b943535f5f47bed>@@@?$__crt_seh_guarded_call@X@@QAEX$$QAV<lambda_51b6e8b1eb166f2a3faf91f424b38130>@@AAV<lambda_6250bd4b2a391816dd638c3bf72b0bcb>@@$$QAV<lambda_0b5a4a3e68152e1d9b943535f5f47bed>@@@Z 1003afd7 f i libucrt:per_thread_data.obj
 0001:0003a038       ??$?RV<lambda_5b71d36f03204c0beab531769a5b5694>@@AAV<lambda_be2b3da3f62db62e9dad5dc70221a656>@@V<lambda_8f9ce462984622f9bf76b59e2aaaf805>@@@?$__crt_seh_guarded_call@X@@QAEX$$QAV<lambda_5b71d36f03204c0beab531769a5b5694>@@AAV<lambda_be2b3da3f62db62e9dad5dc70221a656>@@$$QAV<lambda_8f9ce462984622f9bf76b59e2aaaf805>@@@Z 1003b038 f i libucrt:per_thread_data.obj
 0001:0003a083       ??$?RV<lambda_9df27f884b057bc3edfc946cb5b7cf47>@@AAV<lambda_e69574bed617af4e071282c136b37893>@@V<lambda_cc0d902bcbbeb830f749456577db4721>@@@?$__crt_seh_guarded_call@X@@QAEX$$QAV<lambda_9df27f884b057bc3edfc946cb5b7cf47>@@AAV<lambda_e69574bed617af4e071282c136b37893>@@$$QAV<lambda_cc0d902bcbbeb830f749456577db4721>@@@Z 1003b083 f i libucrt:per_thread_data.obj
 0001:0003a0cb       ??$__acrt_lock_and_call@V<lambda_6250bd4b2a391816dd638c3bf72b0bcb>@@@@YAXW4__acrt_lock_id@@$$QAV<lambda_6250bd4b2a391816dd638c3bf72b0bcb>@@@Z 1003b0cb f i libucrt:per_thread_data.obj
 0001:0003a0f3       ??$__acrt_lock_and_call@V<lambda_b2ea41f6bbb362cd97d94c6828d90b61>@@@@YAXW4__acrt_lock_id@@$$QAV<lambda_b2ea41f6bbb362cd97d94c6828d90b61>@@@Z 1003b0f3 f i libucrt:per_thread_data.obj
 0001:0003a11b       ??$__acrt_lock_and_call@V<lambda_be2b3da3f62db62e9dad5dc70221a656>@@@@YAXW4__acrt_lock_id@@$$QAV<lambda_be2b3da3f62db62e9dad5dc70221a656>@@@Z 1003b11b f i libucrt:per_thread_data.obj
 0001:0003a143       ??$__acrt_lock_and_call@V<lambda_e69574bed617af4e071282c136b37893>@@@@YAXW4__acrt_lock_id@@$$QAV<lambda_e69574bed617af4e071282c136b37893>@@@Z 1003b143 f i libucrt:per_thread_data.obj
 0001:0003a2f9       ___acrt_freeptd            1003b2f9 f   libucrt:per_thread_data.obj
 0001:0003a325       ___acrt_getptd             1003b325 f   libucrt:per_thread_data.obj
 0001:0003a3a9       ___acrt_getptd_noexit      1003b3a9 f   libucrt:per_thread_data.obj
 0001:0003a42e       ___acrt_initialize_ptd     1003b42e f   libucrt:per_thread_data.obj
 0001:0003a45a       ___acrt_uninitialize_ptd   1003b45a f   libucrt:per_thread_data.obj
 0001:0003a474       _strtol                    1003b474 f   libucrt:strtox.obj
 0001:0003a4a0       _wcstol                    1003b4a0 f   libucrt:strtox.obj
 0001:0003a4cc       __mbtowc_l                 1003b4cc f   libucrt:mbtowc.obj
 0001:0003a5c6       _mbtowc                    1003b5c6 f   libucrt:mbtowc.obj
 0001:0003a5e0       __wctomb_s_l               1003b5e0 f   libucrt:wctomb.obj
 0001:0003a701       _wctomb_s                  1003b701 f   libucrt:wctomb.obj
 0001:0003a71e       ___acrt_update_locale_info 1003b71e f   libucrt:locale_update.obj
 0001:0003a74b       ___acrt_update_multibyte_info 1003b74b f   libucrt:locale_update.obj
 0001:0003a778       ?__acrt_fp_classify@@YA?AW4__acrt_fp_class@@ABN@Z 1003b778 f i libucrt:cvt.obj
 0001:0003a7e4       ?__acrt_fp_is_negative@@YA_NABN@Z 1003b7e4 f i libucrt:cvt.obj
 0001:0003b043       ___acrt_fp_format          1003c043 f   libucrt:cvt.obj
 0001:0003b1bf       __fputwc_nolock            1003c1bf f   libucrt:fputwc.obj
 0001:0003b2e5       __fileno                   1003c2e5 f   libucrt:fileno.obj
 0001:0003b30b       __fputc_nolock             1003c30b f   libucrt:fputc.obj
 0001:0003b334       __get_printf_count_output  1003c334 f   libucrt:printf_count_output.obj
 0001:0003b349       ___acrt_stdio_begin_temporary_buffering_nolock 1003c349 f   libucrt:_sftbuf.obj
 0001:0003b3fe       ___acrt_stdio_end_temporary_buffering_nolock 1003c3fe f   libucrt:_sftbuf.obj
 0001:0003b437       ??$?RV<lambda_70818de7b02deff9841e8b0962a60ed9>@@AAV<lambda_2af78c5f5901b1372d98f9ab3177dfa6>@@AAV<lambda_f51fe5fd7c79a33db34fc9310f277369>@@@?$__crt_seh_guarded_call@X@@QAEX$$QAV<lambda_70818de7b02deff9841e8b0962a60ed9>@@AAV<lambda_2af78c5f5901b1372d98f9ab3177dfa6>@@AAV<lambda_f51fe5fd7c79a33db34fc9310f277369>@@@Z 1003c437 f i libucrt:wsetlocale.obj
 0001:0003b472       ??$?RV<lambda_c76fdea48760d5f9368b465f31df4405>@@AAV<lambda_e378711a6f6581bf7f0efd7cdf97f5d9>@@V<lambda_e927a58b2a85c081d733e8c6192ae2d2>@@@?$__crt_seh_guarded_call@X@@QAEX$$QAV<lambda_c76fdea48760d5f9368b465f31df4405>@@AAV<lambda_e378711a6f6581bf7f0efd7cdf97f5d9>@@$$QAV<lambda_e927a58b2a85c081d733e8c6192ae2d2>@@@Z 1003c472 f i libucrt:wsetlocale.obj
 0001:0003b4b5       ??$__acrt_lock_and_call@V<lambda_e378711a6f6581bf7f0efd7cdf97f5d9>@@@@YAXW4__acrt_lock_id@@$$QAV<lambda_e378711a6f6581bf7f0efd7cdf97f5d9>@@@Z 1003c4b5 f i libucrt:wsetlocale.obj
 0001:0003b637       ___acrt_copy_locale_name   1003c637 f   libucrt:wsetlocale.obj
 0001:0003b69d       ___acrt_set_locale_changed 1003c69d f   libucrt:wsetlocale.obj
 0001:0003b6a8       ___acrt_uninitialize_locale 1003c6a8 f   libucrt:wsetlocale.obj
 0001:0003b6fa       ___lc_lctowcs              1003c6fa f   libucrt:wsetlocale.obj
 0001:0003b76a       ___lc_wcstolc              1003c76a f   libucrt:wsetlocale.obj
 0001:0003b8c8       __expandlocale             1003c8c8 f   libucrt:wsetlocale.obj
 0001:0003bc3f       __wcscats                  1003cc3f f   libucrt:wsetlocale.obj
 0001:0003bc80       __wsetlocale               1003cc80 f   libucrt:wsetlocale.obj
 0001:0003c6b6       ___acrt_initialize_lowio   1003d6b6 f   libucrt:ioinit.obj
 0001:0003c70c       ___acrt_uninitialize_lowio 1003d70c f   libucrt:ioinit.obj
 0001:0003c738       __dsign                    1003d738 f   libucrt:nan.obj
 0001:0003c748       __errcode                  1003d748 f   libucrt:fpexcept.obj
 0001:0003c77c       __except1                  1003d77c f   libucrt:fpexcept.obj
 0001:0003c84a       __handle_exc               1003d84a f   libucrt:fpexcept.obj
 0001:0003ca2a       __raise_exc                1003da2a f   libucrt:fpexcept.obj
 0001:0003ca4d       __raise_exc_ex             1003da4d f   libucrt:fpexcept.obj
 0001:0003cd3e       __set_errno_from_matherr   1003dd3e f   libucrt:fpexcept.obj
 0001:0003cd6d       __umatherr                 1003dd6d f   libucrt:fpexcept.obj
 0001:0003ce0f       __decomp                   1003de0f f   libucrt:util.obj
 0001:0003cee3       __set_exp                  1003dee3 f   libucrt:util.obj
 0001:0003cf12       __sptype                   1003df12 f   libucrt:util.obj
 0001:0003cf70       __clrfp                    1003df70 f   libucrt:fpctrl.obj
 0001:0003cf83       __ctrlfp                   1003df83 f   libucrt:fpctrl.obj
 0001:0003cfaf       __set_statfp               1003dfaf f   libucrt:fpctrl.obj
 0001:0003d00a       __statfp                   1003e00a f   libucrt:fpctrl.obj
 0001:0003d01c       ___acrt_initialize_sse2    1003e01c f   libucrt:mathfcns.obj
 0001:0003d02b       __modf_default             1003e02b f   libucrt:modf.obj
 0001:0003d130       ___libm_error_support      1003e130 f   libucrt:libm_error.obj
 0001:0003d348       __query_new_mode           1003e348 f   libucrt:new_mode.obj
 0001:0003d34e       ___acrt_initialize_heap    1003e34e f   libucrt:heap_handle.obj
 0001:0003d35f       ___acrt_uninitialize_heap  1003e35f f   libucrt:heap_handle.obj
 0001:0003d3af       ??$?RV<lambda_9227be29367c048ad7fd93a717dcb1a1>@@AAV<lambda_a463b7b0560cfcaf9b17f27c6ef46564>@@V<lambda_ccea11b5727ccf69be64f5f5d9a08d9f>@@@?$__crt_seh_guarded_call@H@@QAEH$$QAV<lambda_9227be29367c048ad7fd93a717dcb1a1>@@AAV<lambda_a463b7b0560cfcaf9b17f27c6ef46564>@@$$QAV<lambda_ccea11b5727ccf69be64f5f5d9a08d9f>@@@Z 1003e3af f i libucrt:winapi_thunks.obj
 0001:0003d433       ??$__acrt_lock_and_call@V<lambda_a463b7b0560cfcaf9b17f27c6ef46564>@@@@YAHW4__acrt_lock_id@@$$QAV<lambda_a463b7b0560cfcaf9b17f27c6ef46564>@@@Z 1003e433 f i libucrt:winapi_thunks.obj
 0001:0003d5c0       ___acrt_EnumSystemLocalesEx@16 1003e5c0 f   libucrt:winapi_thunks.obj
 0001:0003d62d       ___acrt_FlsAlloc@4         1003e62d f   libucrt:winapi_thunks.obj
 0001:0003d683       ___acrt_FlsFree@4          1003e683 f   libucrt:winapi_thunks.obj
 0001:0003d6d9       ___acrt_FlsGetValue@4      1003e6d9 f   libucrt:winapi_thunks.obj
 0001:0003d72f       ___acrt_FlsSetValue@8      1003e72f f   libucrt:winapi_thunks.obj
 0001:0003d788       ___acrt_GetLocaleInfoEx@16 1003e788 f   libucrt:winapi_thunks.obj
 0001:0003d7f2       ___acrt_GetUserDefaultLocaleName@8 1003e7f2 f   libucrt:winapi_thunks.obj
 0001:0003d859       ___acrt_InitializeCriticalSectionEx@12 1003e859 f   libucrt:winapi_thunks.obj
 0001:0003d8bb       ___acrt_IsValidLocaleName@4 1003e8bb f   libucrt:winapi_thunks.obj
 0001:0003d91e       ___acrt_LCIDToLocaleName@16 1003e91e f   libucrt:winapi_thunks.obj
 0001:0003d988       ___acrt_LCMapStringEx@36   1003e988 f   libucrt:winapi_thunks.obj
 0001:0003da10       ___acrt_LocaleNameToLCID@8 1003ea10 f   libucrt:winapi_thunks.obj
 0001:0003da6c       ___acrt_MessageBoxW@16     1003ea6c f   libucrt:winapi_thunks.obj
 0001:0003dab5       ___acrt_can_show_message_box 1003eab5 f   libucrt:winapi_thunks.obj
 0001:0003dace       ___acrt_can_use_vista_locale_apis 1003eace f   libucrt:winapi_thunks.obj
 0001:0003dada       ___acrt_get_parent_window  1003eada f   libucrt:winapi_thunks.obj
 0001:0003db59       ___acrt_initialize_winapi_thunks 1003eb59 f   libucrt:winapi_thunks.obj
 0001:0003db7f       ___acrt_is_interactive     1003eb7f f   libucrt:winapi_thunks.obj
 0001:0003dc25       ___acrt_is_packaged_app    1003ec25 f   libucrt:winapi_thunks.obj
 0001:0003dcac       ___acrt_uninitialize_winapi_thunks 1003ecac f   libucrt:winapi_thunks.obj
 0001:0003de5b       __mbstowcs_s_l             1003ee5b f   libucrt:mbstowcs.obj
 0001:0003df3e       _mbstowcs_s                1003ef3e f   libucrt:mbstowcs.obj
 0001:0003e1df       __wcstombs_s_l             1003f1df f   libucrt:wcstombs.obj
 0001:0003e2ac       __isctype_l                1003f2ac f   libucrt:isctype.obj
 0001:0003e479       ___acrt_GetLocaleInfoA     1003f479 f   libucrt:getlocaleinfoa.obj
 0001:0003e62b       ___acrt_GetStringTypeA     1003f62b f   libucrt:getstringtypea.obj
 0001:0003e965       ___acrt_LCMapStringA       1003f965 f   libucrt:lcmapstringa.obj
 0001:0003e9b0       _iswctype                  1003f9b0 f   libucrt:iswctype.obj
 0001:0003ea10       __CIpow_pentium4           1003fa10 f   libucrt:pow_pentium4.obj
 0001:0003ea29       __pow_pentium4             1003fa29     libucrt:pow_pentium4.obj
 0001:0003f541       __fFEXP                    10040541     libucrt:87tran.obj
 0001:0003f598       __rtinfpopse               10040598     libucrt:87tran.obj
 0001:0003f59a       __rtinfnpopse              1004059a     libucrt:87tran.obj
 0001:0003f5aa       __fFLN                     100405aa     libucrt:87tran.obj
 0001:0003f65f       __rtinfpop                 1004065f     libucrt:87tran.obj
 0001:0003f661       __rtinfnpop                10040661     libucrt:87tran.obj
 0001:0003f67e       __ffexpm1                  1004067e     libucrt:87tran.obj
 0001:0003f730       __trandisp1                10040730 f   libucrt:87disp.obj
 0001:0003f797       __trandisp2                10040797 f   libucrt:87disp.obj
 0001:0003f823       __rttospopde               10040823     libucrt:87disp.obj
 0001:0003f828       __rttospop                 10040828     libucrt:87disp.obj
 0001:0003f82a       __rtnospop                 1004082a     libucrt:87disp.obj
 0001:0003f82c       __rttosnpop                1004082c     libucrt:87disp.obj
 0001:0003f82d       __rtnospopde               1004082d     libucrt:87disp.obj
 0001:0003f834       __rtzeropop                10040834     libucrt:87disp.obj
 0001:0003f836       __rtzeronpop               10040836     libucrt:87disp.obj
 0001:0003f83b       __rtzerospop               1004083b     libucrt:87disp.obj
 0001:0003f848       __rtonepop                 10040848     libucrt:87disp.obj
 0001:0003f84a       __rtonenpop                1004084a     libucrt:87disp.obj
 0001:0003f84f       __tosnan1                  1004084f     libucrt:87disp.obj
 0001:0003f87a       __nosnan2                  1004087a     libucrt:87disp.obj
 0001:0003f87c       __tosnan2                  1004087c     libucrt:87disp.obj
 0001:0003f8a4       __nan2                     100408a4     libucrt:87disp.obj
 0001:0003f8e3       __rtindfpop                100408e3     libucrt:87disp.obj
 0001:0003f8e5       __rtindfnpop               100408e5     libucrt:87disp.obj
 0001:0003f8f6       __rttosnpopde              100408f6     libucrt:87disp.obj
 0001:0003f900       __rtatan2inf               10040900     libucrt:87disp.obj
 0001:0003f91d       __rtchsifneg               1004091d     libucrt:87disp.obj
 0001:0003f930       __startTwoArgErrorHandling 10040930 f   libucrt:genexcep.obj
 0001:0003f947       __startOneArgErrorHandling 10040947 f   libucrt:genexcep.obj
 0001:0003f990       __twoToTOS                 10040990 f   libucrt:common.obj
 0001:0003f9a5       __load_CW                  100409a5 f   libucrt:common.obj
 0001:0003f9bc       __convertTOStoQNaN         100409bc f   libucrt:common.obj
 0001:0003f9d5       __fload_withFB             100409d5 f   libucrt:common.obj
 0001:0003fa18       __checkTOS_withFB          10040a18 f   libucrt:common.obj
 0001:0003fa2e       __fast_exit                10040a2e f   libucrt:common.obj
 0001:0003fa3b       __math_exit                10040a3b f   libucrt:common.obj
 0001:0003fa65       __check_overflow_exit      10040a65 f   libucrt:common.obj
 0001:0003fa79       __check_range_exit         10040a79 f   libucrt:common.obj
 0001:0003fb1c       __d_inttype                10040b1c f   libucrt:powhlp.obj
 0001:0003fb86       __powhlp                   10040b86 f   libucrt:powhlp.obj
 0001:0003fcb1       __wcsicmp                  10040cb1 f   libucrt:wcsicmp.obj
 0001:0003fd46       __wcsicmp_l                10040d46 f   libucrt:wcsicmp.obj
 0001:0003fe26       ___acrt_initialize_timeset 10040e26 f   libucrt:timeset.obj
 0001:0003fe5d       __isleadbyte_l             10040e5d f i libucrt:_wctype.obj
 0001:00040258       ??1?$argument_list@D@?A0xb0e4b824@@QAE@XZ 10041258 f i libucrt:argv_wildcards.obj
 0001:0004027d       ?append@?$argument_list@D@?A0xb0e4b824@@QAEHQAD@Z 1004127d f i libucrt:argv_wildcards.obj
 0001:000402b2       ?expand_if_necessary@?$argument_list@D@?A0xb0e4b824@@AAEHXZ 100412b2 f i libucrt:argv_wildcards.obj
 0001:00040339       ___acrt_expand_narrow_argv_wildcards 10041339 f   libucrt:argv_wildcards.obj
 0001:00040344       ??$?RV<lambda_978dc153c237d78434369da87b74ff60>@@AAV<lambda_ad1ced32f4ac17aa236e5ef05d6b3b7c>@@V<lambda_4a8533e2866a575feecb8298ce776b0d>@@@?$__crt_seh_guarded_call@X@@QAEX$$QAV<lambda_978dc153c237d78434369da87b74ff60>@@AAV<lambda_ad1ced32f4ac17aa236e5ef05d6b3b7c>@@$$QAV<lambda_4a8533e2866a575feecb8298ce776b0d>@@@Z 10041344 f i libucrt:mbctype.obj
 0001:00040387       ??$__acrt_lock_and_call@V<lambda_ad1ced32f4ac17aa236e5ef05d6b3b7c>@@@@YAXW4__acrt_lock_id@@$$QAV<lambda_ad1ced32f4ac17aa236e5ef05d6b3b7c>@@@Z 10041387 f i libucrt:mbctype.obj
 0001:0004081e       ___acrt_initialize_multibyte 1004181e f   libucrt:mbctype.obj
 0001:0004083c       ___acrt_update_thread_multibyte_data 1004183c f   libucrt:mbctype.obj
 0001:000408de       __setmbcp_nolock           100418de f   libucrt:mbctype.obj
 0001:00040b50       ___acrt_initialize_command_line 10041b50 f   libucrt:argv_data.obj
 0001:00040ba0       ___dcrt_get_narrow_environment_from_os 10041ba0 f   libucrt:get_environment_from_os.obj
 0001:00040c23       __recalloc                 10041c23 f   libucrt:recalloc.obj
 0001:00040c2e       __recalloc_base            10041c2e f   libucrt:recalloc.obj
 0001:00040c9b       ___acrt_execute_initializers 10041c9b f   libucrt:shared_initialization.obj
 0001:00040d1e       ___acrt_execute_uninitializers 10041d1e f   libucrt:shared_initialization.obj
 0001:00040d6b       ___acrt_has_user_matherr   10041d6b f   libucrt:matherr.obj
 0001:00040d84       ___acrt_initialize_user_matherr 10041d84 f   libucrt:matherr.obj
 0001:00040d98       ___acrt_invoke_user_matherr 10041d98 f   libucrt:matherr.obj
 0001:00040de1       __fcloseall                10041de1 f   libucrt:closeall.obj
 0001:00040e81       ___acrt_stdio_free_buffer_nolock 10041e81 f   libucrt:_freebuf.obj
 0001:00040ebf       ??$?RV<lambda_61cee617f5178ae960314fd4d05640a0>@@AAV<lambda_6978c1fb23f02e42e1d9e99668cc68aa>@@V<lambda_9cd88cf8ad10232537feb2133f08c833>@@@?$__crt_seh_guarded_call@H@@QAEH$$QAV<lambda_61cee617f5178ae960314fd4d05640a0>@@AAV<lambda_6978c1fb23f02e42e1d9e99668cc68aa>@@$$QAV<lambda_9cd88cf8ad10232537feb2133f08c833>@@@Z 10041ebf f i libucrt:commit.obj
 0001:00040f57       ??$__acrt_lowio_lock_fh_and_call@V<lambda_6978c1fb23f02e42e1d9e99668cc68aa>@@@@YAHH$$QAV<lambda_6978c1fb23f02e42e1d9e99668cc68aa>@@@Z 10041f57 f i libucrt:commit.obj
 0001:00040f7f       __commit                   10041f7f f   libucrt:commit.obj
 0001:0004157e       __write                    1004257e f   libucrt:write.obj
 0001:00041669       __write_nolock             10042669 f   libucrt:write.obj
 0001:00041880       __CIexp_pentium4           10042880 f   libucrt:exp_pentium4.obj
 0001:00041898       __exp_pentium4             10042898     libucrt:exp_pentium4.obj
 0001:00041b40       __cintrindisp2             10042b40 f   libucrt:87cdisp.obj
 0001:00041b84       __cintrindisp1             10042b84 f   libucrt:87cdisp.obj
 0001:00041bc7       __ctrandisp2               10042bc7 f   libucrt:87cdisp.obj
 0001:00041d56       __ctrandisp1               10042d56 f   libucrt:87cdisp.obj
 0001:00041d89       __fload                    10042d89 f   libucrt:87cdisp.obj
 0001:00041dc5       ___acrt_add_locale_ref     10042dc5 f   libucrt:locale_refcounting.obj
 0001:00041e42       ___acrt_free_locale        10042e42 f   libucrt:locale_refcounting.obj
 0001:00041f8c       ___acrt_locale_add_lc_time_reference 10042f8c f   libucrt:locale_refcounting.obj
 0001:00041fb5       ___acrt_locale_free_lc_time_if_unreferenced 10042fb5 f   libucrt:locale_refcounting.obj
 0001:00041fe5       ___acrt_locale_release_lc_time_reference 10042fe5 f   libucrt:locale_refcounting.obj
 0001:0004200e       ___acrt_release_locale_ref 1004300e f   libucrt:locale_refcounting.obj
 0001:0004208f       ___acrt_update_thread_locale_data 1004308f f   libucrt:locale_refcounting.obj
 0001:00042106       __updatetlocinfoEx_nolock  10043106 f   libucrt:locale_refcounting.obj
 0001:00042156       ___acrt_fp_strflt_to_string 10043156 f   libucrt:_fptostr.obj
 0001:00042212       ??0scoped_fp_state_reset@?A0x48fbfdd4@@QAE@XZ 10043212 f i libucrt:cfout.obj
 0001:0004223c       ___acrt_fltout             1004323c f   libucrt:cfout.obj
 0001:0004399e       ___acrt_stdio_flush_and_write_narrow_nolock 1004499e f   libucrt:_flsbuf.obj
 0001:000439a9       ___acrt_stdio_flush_and_write_wide_nolock 100449a9 f   libucrt:_flsbuf.obj
 0001:000439b4       __isatty                   100449b4 f   libucrt:isatty.obj
 0001:00043a0a       ___acrt_locale_free_monetary 10044a0a f   libucrt:initmon.obj
 0001:00043b08       ___acrt_locale_initialize_monetary 10044b08 f   libucrt:initmon.obj
 0001:00043ec4       ___acrt_locale_free_numeric 10044ec4 f   libucrt:initnum.obj
 0001:00043f2d       ___acrt_locale_initialize_numeric 10044f2d f   libucrt:initnum.obj
 0001:00044402       ___acrt_locale_free_time   10045402 f   libucrt:inittime.obj
 0001:000444e6       ___acrt_locale_initialize_time 100454e6 f   libucrt:inittime.obj
 0001:00044565       _wcscspn                   10045565 f   libucrt:wcscspn.obj
 0001:000445b5       _wcspbrk                   100455b5 f   libucrt:wcspbrk.obj
 0001:00044cf8       ___acrt_get_qualified_locale 10045cf8 f   libucrt:get_qualified_locale.obj
 0001:00045630       ___acrt_get_qualified_locale_downlevel 10046630 f   libucrt:getqloc_downlevel.obj
 0001:00045837       ___acrt_lowio_create_handle_array 10046837 f   libucrt:osfinfo.obj
 0001:000458b1       ___acrt_lowio_destroy_handle_array 100468b1 f   libucrt:osfinfo.obj
 0001:000458e6       ___acrt_lowio_ensure_fh_exists 100468e6 f   libucrt:osfinfo.obj
 0001:0004597e       ___acrt_lowio_lock_fh      1004697e f   libucrt:osfinfo.obj
 0001:000459a1       ___acrt_lowio_unlock_fh    100469a1 f   libucrt:osfinfo.obj
 0001:000459c4       __free_osfhnd              100469c4 f   libucrt:osfinfo.obj
 0001:00045a55       __get_osfhandle            10046a55 f   libucrt:osfinfo.obj
 0001:00045abf       __frnd                     10046abf f   libucrt:frnd.obj
 0001:00045b91       ___acrt_DownlevelLCIDToLocaleName 10046b91 f   libucrt:lcidtoname_downlevel.obj
 0001:00045c3b       ___acrt_DownlevelLocaleNameToLCID 10046c3b f   libucrt:lcidtoname_downlevel.obj
 0001:00045d18       _strncpy_s                 10046d18 f   libucrt:strncpy_s.obj
 0001:00045fc6       __getfpcontrolword         10046fc6 f   libucrt:_fenvutils.obj
 0001:00046009       __getfpstatusword          10047009 f   libucrt:_fenvutils.obj
 0001:000460b1       __setfpcontrolword         100470b1 f   libucrt:_fenvutils.obj
 0001:00046131       __setfpstatusword          10047131 f   libucrt:_fenvutils.obj
 0001:000461b1       __87except                 100471b1 f   libucrt:87except.obj
 0001:000462bc       __towlower_l               100472bc f   libucrt:towlower.obj
 0001:00046470       _qsort                     10047470 f   libucrt:qsort.obj
 0001:00046810       _strpbrk                   10047810 f   libucrt:strpbrk.obj
 0001:00046850       __mbsdec                   10047850 f   libucrt:mbsdec.obj
 0001:00046867       __mbsdec_l                 10047867 f   libucrt:mbsdec.obj
 0001:00046903       __msize                    10047903 f   libucrt:msize.obj
 0001:00046936       __fclose_nolock            10047936 f   libucrt:fclose.obj
 0001:000469ac       _fclose                    100479ac f   libucrt:fclose.obj
 0001:00046baf       __lseeki64                 10047baf f   libucrt:lseek.obj
 0001:00046bca       __lseeki64_nolock          10047bca f   libucrt:lseek.obj
 0001:00046be5       __putwch_nolock            10047be5 f   libucrt:putwch.obj
 0001:00046c2a       _fegetenv                  10047c2a f   libucrt:fegetenv.obj
 0001:00046c47       _fesetenv                  10047c47 f   libucrt:fesetenv.obj
 0001:00046c90       _feholdexcept              10047c90 f   libucrt:feholdexcept.obj
 0001:00046ce0       _log10                     10047ce0 f   libucrt:log10.obj
 0001:00046d20       __CIlog10                  10047d20 f   libucrt:log10.obj
 0001:00046d5b       __CIlog10_default          10047d5b f   libucrt:log10.obj
 0001:00046d6f       __log10_default            10047d6f     libucrt:log10.obj
 0001:00046e30       _ceil                      10047e30 f   libucrt:ceil_pentium4.obj
 0001:00046e70       __ceil_pentium4            10047e70 f   libucrt:ceil_pentium4.obj
 0001:00046f4d       ___acrt_stdio_allocate_buffer_nolock 10047f4d f   libucrt:_getbuf.obj
 0001:00046faa       __wcsnicmp                 10047faa f   libucrt:wcsnicmp.obj
 0001:00047062       __wcsnicmp_l               10048062 f   libucrt:wcsnicmp.obj
 0001:00047163       ___acrt_LCMapStringW       10048163 f   libucrt:lcmapstringw.obj
 0001:000471a1       ??$?RV<lambda_123407a5e2ac06da108355a851863b7a>@@AAV<lambda_2fe9b910cf3cbf4a0ab98a02ba45b3ec>@@V<lambda_ae55bdf541ad94d75914d381c370e64d>@@@?$__crt_seh_guarded_call@H@@QAEH$$QAV<lambda_123407a5e2ac06da108355a851863b7a>@@AAV<lambda_2fe9b910cf3cbf4a0ab98a02ba45b3ec>@@$$QAV<lambda_ae55bdf541ad94d75914d381c370e64d>@@@Z 100481a1 f i libucrt:close.obj
 0001:00047223       ??$__acrt_lowio_lock_fh_and_call@V<lambda_2fe9b910cf3cbf4a0ab98a02ba45b3ec>@@@@YAHH$$QAV<lambda_2fe9b910cf3cbf4a0ab98a02ba45b3ec>@@@Z 10048223 f i libucrt:close.obj
 0001:0004724b       __close                    1004824b f   libucrt:close.obj
 0001:000472ca       __close_nolock             100482ca f   libucrt:close.obj
 0001:00047366       ?__acrt_stdio_free_stream@@YAXV__crt_stdio_stream@@@Z 10048366 f   libucrt:stream.obj
 0001:000473a1       ___dcrt_lowio_initialize_console_output 100483a1 f   libucrt:initcon.obj
 0001:000473c0       ___dcrt_terminate_console_output 100483c0 f   libucrt:initcon.obj
 0001:000473d7       __clearfp                  100483d7 f   libucrt:ieee87.obj
 0001:000474c0       __CIlog10_pentium4         100484c0 f   libucrt:log10_pentium4.obj
 0001:000474d8       __log10_pentium4           100484d8     libucrt:log10_pentium4.obj
 0001:00047750       __ceil_default             10048750 f   libucrt:ceil.obj
 0001:00047810       ___ascii_strnicmp          10048810 f   libucrt:_strnicm.obj
 0001:00047872       _IsProcessorFeaturePresent@4 10048872 f   kernel32:KERNEL32.dll
 0001:00047878       _RtlUnwind@16              10048878 f   kernel32:KERNEL32.dll
 0001:0004787e       ?GetCurrentThreadId@platform@details@Concurrency@@YAJXZ 1004887e f   libcpmt:ppltasks.obj
 0001:00047884       ??$?0AAPAUEHExceptionRecord@@_N@?$_Ref_count_obj@V__ExceptionPtr@@@std@@QAE@AAPAUEHExceptionRecord@@$$QA_N@Z 10048884 f i libcpmt:excptptr.obj
 0001:000478d0       ??$?0AAPAUEHExceptionRecord@@_N@?$_Ref_count_obj_alloc@V__ExceptionPtr@@U?$_StaticAllocator@H@@@std@@QAE@ABU?$_StaticAllocator@H@@AAPAUEHExceptionRecord@@$$QA_N@Z 100488d0 f i libcpmt:excptptr.obj
 0001:0004792e       ??$_Reset@V__ExceptionPtr@@@?$_Ptr_base@V__ExceptionPtr@@@std@@QAEXABV01@@Z 1004892e f i libcpmt:excptptr.obj
 0001:0004794c       ??$allocate_shared@V__ExceptionPtr@@U?$_StaticAllocator@H@@AAPAUEHExceptionRecord@@_N@std@@YA?AV?$shared_ptr@V__ExceptionPtr@@@0@ABU?$_StaticAllocator@H@@AAPAUEHExceptionRecord@@$$QA_N@Z 1004894c f i libcpmt:excptptr.obj
 0001:000479ae       ??$make_shared@V__ExceptionPtr@@AAPAUEHExceptionRecord@@_N@std@@YA?AV?$shared_ptr@V__ExceptionPtr@@@0@AAPAUEHExceptionRecord@@$$QA_N@Z 100489ae f i libcpmt:excptptr.obj
 0001:000479fe       ??0__ExceptionPtr@@QAE@PBUEHExceptionRecord@@_N@Z 100489fe f   libcpmt:excptptr.obj
 0001:00047b18       ??1__ExceptionPtr@@QAE@XZ  10048b18 f   libcpmt:excptptr.obj
 0001:00047bdb       ??C?$shared_ptr@V__ExceptionPtr@@@std@@QBEPAV__ExceptionPtr@@XZ 10048bdb f i libcpmt:excptptr.obj
 0001:00047bde       ??_E?$_Ref_count_obj_alloc@V__ExceptionPtr@@U?$_StaticAllocator@H@@@std@@UAEPAXI@Z 10048bde f i libcpmt:excptptr.obj
 0001:00047bde       ??_G?$_Ref_count_obj@V__ExceptionPtr@@@std@@UAEPAXI@Z 10048bde f i libcpmt:excptptr.obj
 0001:00047bde       ??_G?$_Ref_count_obj_alloc@V__ExceptionPtr@@U?$_StaticAllocator@H@@@std@@UAEPAXI@Z 10048bde f i libcpmt:excptptr.obj
 0001:00047bde       ??_E?$_Ref_count_obj@V__ExceptionPtr@@@std@@UAEPAXI@Z 10048bde f i libcpmt:excptptr.obj
 0001:00047c01       ??_G?$shared_ptr@V__ExceptionPtr@@@std@@QAEPAXI@Z 10048c01 f i libcpmt:excptptr.obj
 0001:00047c2a       ?_CallCopyCtor@__ExceptionPtr@@ABEXPAX0IQBU_s_CatchableType@@@Z 10048c2a f   libcpmt:excptptr.obj
 0001:00047cbd       ?_CopyException@__ExceptionPtr@@SA?AV?$shared_ptr@V__ExceptionPtr@@@std@@PBXPBU_s_ThrowInfo@@_N@Z 10048cbd f   libcpmt:excptptr.obj
 0001:00047d92       ?_CurrentException@__ExceptionPtr@@SA?AV?$shared_ptr@V__ExceptionPtr@@@std@@XZ 10048d92 f   libcpmt:excptptr.obj
 0001:00047e31       ?_Delete_this@?$_Ref_count_obj@V__ExceptionPtr@@@std@@EAEXXZ 10048e31 f i libcpmt:excptptr.obj
 0001:00047e4e       ?_Delete_this@?$_Ref_count_obj_alloc@V__ExceptionPtr@@U?$_StaticAllocator@H@@@std@@EAEXXZ 10048e4e f i libcpmt:excptptr.obj
 0001:00047e67       ?_Destroy@?$_Ref_count_obj@V__ExceptionPtr@@@std@@EAEXXZ 10048e67 f i libcpmt:excptptr.obj
 0001:00047e67       ?_Destroy@?$_Ref_count_obj_alloc@V__ExceptionPtr@@U?$_StaticAllocator@H@@@std@@EAEXXZ 10048e67 f i libcpmt:excptptr.obj
 0001:00047e6f       ?_InitBadAllocException@__ExceptionPtr@@CA?AV?$shared_ptr@V__ExceptionPtr@@@std@@XZ 10048e6f f   libcpmt:excptptr.obj
 0001:00047ec2       ?_Reset0@?$_Ptr_base@V__ExceptionPtr@@@std@@QAEXPAV__ExceptionPtr@@PAV_Ref_count_base@2@@Z 10048ec2 f i libcpmt:excptptr.obj
 0001:00047ee4       ?_RethrowException@__ExceptionPtr@@QBEXXZ 10048ee4 f   libcpmt:excptptr.obj
 0001:00048010       ?__ExceptionPtrCopy@@YAXPAXPBX@Z 10049010 f   libcpmt:excptptr.obj
 0001:0004802b       ?__ExceptionPtrCreate@@YAXPAX@Z 1004902b f   libcpmt:excptptr.obj
 0001:0004803e       ?__ExceptionPtrCurrentException@@YAXPAX@Z 1004903e f   libcpmt:excptptr.obj
 0001:0004806b       ?__ExceptionPtrDestroy@@YAXPAX@Z 1004906b f   libcpmt:excptptr.obj
 0001:0004807a       ?__ExceptionPtrRethrow@@YAXPBX@Z 1004907a f   libcpmt:excptptr.obj
 0001:0004808c       ?align@std@@YAPAXIIAAPAXAAI@Z 1004908c f i libcpmt:excptptr.obj
 0001:000480c7       ??0stl_condition_variable_vista@details@Concurrency@@QAE@XZ 100490c7 f i libcpmt:cond.obj
 0001:000480de       ??0stl_condition_variable_win7@details@Concurrency@@QAE@XZ 100490de f i libcpmt:cond.obj
 0001:000480f5       ?create_stl_condition_variable@details@Concurrency@@YAXPAVstl_condition_variable_interface@12@@Z 100490f5 f i libcpmt:cond.obj
 0001:0004816a       ?destroy@stl_condition_variable_concrt@details@Concurrency@@UAEXXZ 1004916a f i libcpmt:cond.obj
 0001:0004823a       ?notify_all@stl_condition_variable_concrt@details@Concurrency@@UAEXXZ 1004923a f i libcpmt:cond.obj
 0001:00048242       ?notify_all@stl_condition_variable_vista@details@Concurrency@@UAEXXZ 10049242 f i libcpmt:cond.obj
 0001:00048242       ?notify_all@stl_condition_variable_win7@details@Concurrency@@UAEXXZ 10049242 f i libcpmt:cond.obj
 0001:0004824d       ?notify_one@stl_condition_variable_concrt@details@Concurrency@@UAEXXZ 1004924d f i libcpmt:cond.obj
 0001:00048255       ?notify_one@stl_condition_variable_vista@details@Concurrency@@UAEXXZ 10049255 f i libcpmt:cond.obj
 0001:00048255       ?notify_one@stl_condition_variable_win7@details@Concurrency@@UAEXXZ 10049255 f i libcpmt:cond.obj
 0001:00048260       ?wait@stl_condition_variable_concrt@details@Concurrency@@UAEXPAVstl_critical_section_interface@23@@Z 10049260 f i libcpmt:cond.obj
 0001:00048276       ?wait@stl_condition_variable_vista@details@Concurrency@@UAEXPAVstl_critical_section_interface@23@@Z 10049276 f i libcpmt:cond.obj
 0001:00048291       ?wait@stl_condition_variable_win7@details@Concurrency@@UAEXPAVstl_critical_section_interface@23@@Z 10049291 f i libcpmt:cond.obj
 0001:000482ac       ?wait_for@stl_condition_variable_concrt@details@Concurrency@@UAE_NPAVstl_critical_section_interface@23@I@Z 100492ac f i libcpmt:cond.obj
 0001:000482c5       ?wait_for@stl_condition_variable_vista@details@Concurrency@@UAE_NPAVstl_critical_section_interface@23@I@Z 100492c5 f i libcpmt:cond.obj
 0001:000482e8       ?wait_for@stl_condition_variable_win7@details@Concurrency@@UAE_NPAVstl_critical_section_interface@23@I@Z 100492e8 f i libcpmt:cond.obj
 0001:0004830d       __Cnd_broadcast            1004930d f   libcpmt:cond.obj
 0001:0004832b       __Cnd_destroy_in_situ      1004932b f   libcpmt:cond.obj
 0001:00048347       __Cnd_init_in_situ         10049347 f   libcpmt:cond.obj
 0001:0004834c       __Cnd_wait                 1004934c f   libcpmt:cond.obj
 0001:00048370       __aullrem                  10049370 f   LIBCMT:ullrem.obj
 0001:000483f0       __ftol2_sse                100493f0 f   LIBCMT:_ftol2_.obj
 0001:000483f9       __ftol2_pentium4           100493f9 f   LIBCMT:_ftol2_.obj
 0001:0004840c       __ftol2_sse_excpt          1004940c f   LIBCMT:_ftol2_.obj
 0001:00048430       __ftol2                    10049430 f   LIBCMT:_ftol2_.obj
 0001:000484a5       ??_L@YGXPAXIIP6EX0@Z1@Z    100494a5 f   LIBCMT:ehvecctr.obj
 0001:00048510       __FindPESection            10049510 f   LIBCMT:pesect.obj
 0001:00048560       __IsNonwritableInCurrentImage 10049560 f   LIBCMT:pesect.obj
 0001:00048620       __ValidateImageBase        10049620 f   LIBCMT:pesect.obj
 0001:00048660       __allshl                   10049660 f   LIBCMT:llshl.obj
 0001:00048680       __aullshr                  10049680 f   LIBCMT:ullshr.obj
 0001:000486a0       __SEH_prolog4_GS           100496a0 f   LIBCMT:_sehprolg4gs_.obj
 0001:000486e9       __SEH_epilog4_GS           100496e9 f   LIBCMT:_sehprolg4gs_.obj
 0001:00048700       __alldvrm                  10049700 f   LIBCMT:lldvrm.obj
 0001:000487e0       _strrchr                   100497e0 f   libvcruntime:strrchr.obj
 0001:00048920       _strchr                    10049920 f   libvcruntime:strchr.obj
 0001:0004898e       ___from_strstr_to_strchr   1004998e     libvcruntime:strchr.obj
 0001:00048a4b       _wcschr                    10049a4b f   libvcruntime:wcschr.obj
 0001:00048b00       __alldiv                   10049b00 f   LIBCMT:lldiv.obj
 0001:00048bb0       __allrem                   10049bb0 f   LIBCMT:llrem.obj
 0001:00048c70       __ftoui3                   10049c70 f   LIBCMT:_ftol3_.obj
 0001:00048c7f       __ftoul3                   10049c7f f   LIBCMT:_ftol3_.obj
 0001:00048c8e       __ftol3                    10049c8e f   LIBCMT:_ftol3_.obj
 0001:00048c9b       __ftol3_NaN                10049c9b f   LIBCMT:_ftol3_.obj
 0001:00048cb3       __ftol3_work               10049cb3 f   LIBCMT:_ftol3_.obj
 0001:00048d39       __ftol3_common             10049d39 f   LIBCMT:_ftol3_.obj
 0001:00048dfb       __ftol3_arg_error          10049dfb f   LIBCMT:_ftol3_.obj
 0001:00048e0d       __ftol3_except             10049e0d f   LIBCMT:_ftol3_.obj
 0001:00048e51       __dtoui3                   10049e51 f   LIBCMT:_ftol3_.obj
 0001:00048e60       __dtoul3                   10049e60 f   LIBCMT:_ftol3_.obj
 0001:00048e6f       __dtol3                    10049e6f f   LIBCMT:_ftol3_.obj
 0001:00048e7c       __dtol3_NaN                10049e7c f   LIBCMT:_ftol3_.obj
 0001:00048e99       __dtol3_work               10049e99 f   LIBCMT:_ftol3_.obj
 0001:00048f80       __ultod3                   10049f80 f   LIBCMT:_ftol3_.obj
 0001:00048fc0       __ltod3                    10049fc0 f   LIBCMT:_ftol3_.obj
 0001:00048ff0       __libm_sse2_log10_precise  10049ff0 f   libucrt:log10_sse2_precise.obj
 0001:000492a0       _floor                     1004a2a0 f   libucrt:floor_pentium4.obj
 0001:000492e0       __floor_pentium4           1004a2e0 f   libucrt:floor_pentium4.obj
 0001:0004939d       __floor_default            1004a39d f   libucrt:floor.obj
 0001:0004a500       ??__F_Static@?1???$_Immortalize@V_Iostream_error_category@std@@@std@@YAAAV_Iostream_error_category@0@XZ@YAXXZ 1004b500 f i QueryOperation.obj
 0001:0004a501       ??__F_Static@?1???$_Immortalize@V_Generic_error_category@std@@@std@@YAAAV_Generic_error_category@0@XZ@YAXXZ 1004b501 f i libcpmt:thread0.obj
 0002:00000000       __imp__EnterCriticalSection@4 1004c000     kernel32:KERNEL32.dll
 0002:00000004       __imp__LeaveCriticalSection@4 1004c004     kernel32:KERNEL32.dll
 0002:00000008       __imp__InitializeCriticalSection@4 1004c008     kernel32:KERNEL32.dll
 0002:0000000c       __imp__DeleteCriticalSection@4 1004c00c     kernel32:KERNEL32.dll
 0002:00000010       __imp__WideCharToMultiByte@32 1004c010     kernel32:KERNEL32.dll
 0002:00000014       __imp__GetModuleHandleW@4  1004c014     kernel32:KERNEL32.dll
 0002:00000018       __imp__CreateFileW@28      1004c018     kernel32:KERNEL32.dll
 0002:0000001c       __imp__SetFilePointerEx@20 1004c01c     kernel32:KERNEL32.dll
 0002:00000020       __imp__HeapSize@12         1004c020     kernel32:KERNEL32.dll
 0002:00000024       __imp__SetStdHandle@8      1004c024     kernel32:KERNEL32.dll
 0002:00000028       __imp__GetConsoleMode@8    1004c028     kernel32:KERNEL32.dll
 0002:0000002c       __imp__GetConsoleCP@0      1004c02c     kernel32:KERNEL32.dll
 0002:00000030       __imp__FlushFileBuffers@4  1004c030     kernel32:KERNEL32.dll
 0002:00000034       __imp__FreeEnvironmentStringsW@4 1004c034     kernel32:KERNEL32.dll
 0002:00000038       __imp__GetEnvironmentStringsW@0 1004c038     kernel32:KERNEL32.dll
 0002:0000003c       __imp__GetCommandLineW@0   1004c03c     kernel32:KERNEL32.dll
 0002:00000040       __imp__GetCommandLineA@0   1004c040     kernel32:KERNEL32.dll
 0002:00000044       __imp__GetOEMCP@0          1004c044     kernel32:KERNEL32.dll
 0002:00000048       __imp__IsValidCodePage@4   1004c048     kernel32:KERNEL32.dll
 0002:0000004c       __imp__FindNextFileA@8     1004c04c     kernel32:KERNEL32.dll
 0002:00000050       __imp__FindFirstFileExA@24 1004c050     kernel32:KERNEL32.dll
 0002:00000054       __imp__FindClose@4         1004c054     kernel32:KERNEL32.dll
 0002:00000058       __imp__EnumSystemLocalesW@8 1004c058     kernel32:KERNEL32.dll
 0002:0000005c       __imp__GetUserDefaultLCID@0 1004c05c     kernel32:KERNEL32.dll
 0002:00000060       __imp__IsValidLocale@8     1004c060     kernel32:KERNEL32.dll
 0002:00000064       __imp__GetProcessHeap@0    1004c064     kernel32:KERNEL32.dll
 0002:00000068       __imp__GetACP@0            1004c068     kernel32:KERNEL32.dll
 0002:0000006c       __imp__WriteFile@20        1004c06c     kernel32:KERNEL32.dll
 0002:00000070       __imp__ExitProcess@4       1004c070     kernel32:KERNEL32.dll
 0002:00000074       __imp__HeapReAlloc@16      1004c074     kernel32:KERNEL32.dll
 0002:00000078       __imp__HeapFree@12         1004c078     kernel32:KERNEL32.dll
 0002:0000007c       __imp__HeapAlloc@12        1004c07c     kernel32:KERNEL32.dll
 0002:00000080       __imp__WriteConsoleW@20    1004c080     kernel32:KERNEL32.dll
 0002:00000084       __imp__GetModuleHandleExW@12 1004c084     kernel32:KERNEL32.dll
 0002:00000088       __imp__GetModuleFileNameA@12 1004c088     kernel32:KERNEL32.dll
 0002:0000008c       __imp__GetFileType@4       1004c08c     kernel32:KERNEL32.dll
 0002:00000090       __imp__GetStdHandle@4      1004c090     kernel32:KERNEL32.dll
 0002:00000094       __imp__RtlUnwind@16        1004c094     kernel32:KERNEL32.dll
 0002:00000098       __imp__RaiseException@16   1004c098     kernel32:KERNEL32.dll
 0002:0000009c       __imp__LoadLibraryW@4      1004c09c     kernel32:KERNEL32.dll
 0002:000000a0       __imp__CreateTimerQueue@0  1004c0a0     kernel32:KERNEL32.dll
 0002:000000a4       __imp__UnregisterWaitEx@8  1004c0a4     kernel32:KERNEL32.dll
 0002:000000a8       __imp__QueryDepthSList@4   1004c0a8     kernel32:KERNEL32.dll
 0002:000000ac       __imp__InterlockedFlushSList@4 1004c0ac     kernel32:KERNEL32.dll
 0002:000000b0       __imp__InterlockedPushEntrySList@8 1004c0b0     kernel32:KERNEL32.dll
 0002:000000b4       __imp__InterlockedPopEntrySList@4 1004c0b4     kernel32:KERNEL32.dll
 0002:000000b8       __imp__ReleaseSemaphore@12 1004c0b8     kernel32:KERNEL32.dll
 0002:000000bc       __imp__DuplicateHandle@28  1004c0bc     kernel32:KERNEL32.dll
 0002:000000c0       __imp__VirtualProtect@16   1004c0c0     kernel32:KERNEL32.dll
 0002:000000c4       __imp__VirtualFree@12      1004c0c4     kernel32:KERNEL32.dll
 0002:000000c8       __imp__VirtualAlloc@16     1004c0c8     kernel32:KERNEL32.dll
 0002:000000cc       __imp__GetVersionExW@4     1004c0cc     kernel32:KERNEL32.dll
 0002:000000d0       __imp__LoadLibraryExW@12   1004c0d0     kernel32:KERNEL32.dll
 0002:000000d4       __imp__GetModuleHandleA@4  1004c0d4     kernel32:KERNEL32.dll
 0002:000000d8       __imp__GetModuleFileNameW@12 1004c0d8     kernel32:KERNEL32.dll
 0002:000000dc       __imp__FreeLibraryAndExitThread@8 1004c0dc     kernel32:KERNEL32.dll
 0002:000000e0       __imp__FreeLibrary@4       1004c0e0     kernel32:KERNEL32.dll
 0002:000000e4       __imp__GetThreadTimes@20   1004c0e4     kernel32:KERNEL32.dll
 0002:000000e8       __imp__GetCurrentThread@0  1004c0e8     kernel32:KERNEL32.dll
 0002:000000ec       __imp__OutputDebugStringW@4 1004c0ec     kernel32:KERNEL32.dll
 0002:000000f0       __imp__UnregisterWait@4    1004c0f0     kernel32:KERNEL32.dll
 0002:000000f4       __imp__RegisterWaitForSingleObject@24 1004c0f4     kernel32:KERNEL32.dll
 0002:000000f8       __imp__SetThreadAffinityMask@8 1004c0f8     kernel32:KERNEL32.dll
 0002:000000fc       __imp__GetProcessAffinityMask@12 1004c0fc     kernel32:KERNEL32.dll
 0002:00000100       __imp__GetNumaHighestNodeNumber@4 1004c100     kernel32:KERNEL32.dll
 0002:00000104       __imp__DeleteTimerQueueTimer@12 1004c104     kernel32:KERNEL32.dll
 0002:00000108       __imp__ChangeTimerQueueTimer@16 1004c108     kernel32:KERNEL32.dll
 0002:0000010c       __imp__CreateTimerQueueTimer@28 1004c10c     kernel32:KERNEL32.dll
 0002:00000110       __imp__GetLogicalProcessorInformation@8 1004c110     kernel32:KERNEL32.dll
 0002:00000114       __imp__GetThreadPriority@4 1004c114     kernel32:KERNEL32.dll
 0002:00000118       __imp__SetThreadPriority@8 1004c118     kernel32:KERNEL32.dll
 0002:0000011c       __imp__CreateThread@24     1004c11c     kernel32:KERNEL32.dll
 0002:00000120       __imp__SwitchToThread@0    1004c120     kernel32:KERNEL32.dll
 0002:00000124       __imp__SignalObjectAndWait@16 1004c124     kernel32:KERNEL32.dll
 0002:00000128       __imp__GetLastError@0      1004c128     kernel32:KERNEL32.dll
 0002:0000012c       __imp__InitializeSListHead@4 1004c12c     kernel32:KERNEL32.dll
 0002:00000130       __imp__GetCurrentProcessId@0 1004c130     kernel32:KERNEL32.dll
 0002:00000134       __imp__GetStartupInfoW@4   1004c134     kernel32:KERNEL32.dll
 0002:00000138       __imp__IsDebuggerPresent@0 1004c138     kernel32:KERNEL32.dll
 0002:0000013c       __imp__IsProcessorFeaturePresent@4 1004c13c     kernel32:KERNEL32.dll
 0002:00000140       __imp__TerminateProcess@8  1004c140     kernel32:KERNEL32.dll
 0002:00000144       __imp__GetCurrentProcess@0 1004c144     kernel32:KERNEL32.dll
 0002:00000148       __imp__SetUnhandledExceptionFilter@4 1004c148     kernel32:KERNEL32.dll
 0002:0000014c       __imp__UnhandledExceptionFilter@4 1004c14c     kernel32:KERNEL32.dll
 0002:00000150       __imp__WaitForSingleObjectEx@12 1004c150     kernel32:KERNEL32.dll
 0002:00000154       __imp__ResetEvent@4        1004c154     kernel32:KERNEL32.dll
 0002:00000158       __imp__SetEvent@4          1004c158     kernel32:KERNEL32.dll
 0002:0000015c       __imp__CloseHandle@4       1004c15c     kernel32:KERNEL32.dll
 0002:00000160       __imp__GetCPInfo@8         1004c160     kernel32:KERNEL32.dll
 0002:00000164       __imp__GetStringTypeW@16   1004c164     kernel32:KERNEL32.dll
 0002:00000168       __imp__GetLocaleInfoW@16   1004c168     kernel32:KERNEL32.dll
 0002:0000016c       __imp__LCMapStringW@24     1004c16c     kernel32:KERNEL32.dll
 0002:00000170       __imp__MultiByteToWideChar@24 1004c170     kernel32:KERNEL32.dll
 0002:00000174       __imp__DecodePointer@4     1004c174     kernel32:KERNEL32.dll
 0002:00000178       __imp__EncodePointer@4     1004c178     kernel32:KERNEL32.dll
 0002:0000017c       __imp__GetProcAddress@8    1004c17c     kernel32:KERNEL32.dll
 0002:00000180       __imp__TryEnterCriticalSection@4 1004c180     kernel32:KERNEL32.dll
 0002:00000184       __imp__GetCurrentThreadId@0 1004c184     kernel32:KERNEL32.dll
 0002:00000188       __imp__QueryPerformanceCounter@4 1004c188     kernel32:KERNEL32.dll
 0002:0000018c       __imp__SetLastError@4      1004c18c     kernel32:KERNEL32.dll
 0002:00000190       __imp__InitializeCriticalSectionAndSpinCount@8 1004c190     kernel32:KERNEL32.dll
 0002:00000194       __imp__CreateEventW@16     1004c194     kernel32:KERNEL32.dll
 0002:00000198       __imp__Sleep@4             1004c198     kernel32:KERNEL32.dll
 0002:0000019c       __imp__TlsAlloc@0          1004c19c     kernel32:KERNEL32.dll
 0002:000001a0       __imp__TlsGetValue@4       1004c1a0     kernel32:KERNEL32.dll
 0002:000001a4       __imp__TlsSetValue@8       1004c1a4     kernel32:KERNEL32.dll
 0002:000001a8       __imp__TlsFree@4           1004c1a8     kernel32:KERNEL32.dll
 0002:000001ac       __imp__GetSystemTimeAsFileTime@4 1004c1ac     kernel32:KERNEL32.dll
 0002:000001b0       __imp__GetTickCount@0      1004c1b0     kernel32:KERNEL32.dll
 0002:000001b4       \177KERNEL32_NULL_THUNK_DATA 1004c1b4     kernel32:KERNEL32.dll
 0002:000001b8       __imp__SQLFreeHandle@8     1004c1b8     odbc32:ODBC32.dll
 0002:000001bc       __imp__SQLAllocHandle@12   1004c1bc     odbc32:ODBC32.dll
 0002:000001c0       __imp__SQLEndTran@12       1004c1c0     odbc32:ODBC32.dll
 0002:000001c4       __imp__SQLSetConnectAttrW@16 1004c1c4     odbc32:ODBC32.dll
 0002:000001c8       __imp__SQLSetEnvAttr@16    1004c1c8     odbc32:ODBC32.dll
 0002:000001cc       __imp__SQLDisconnect@4     1004c1cc     odbc32:ODBC32.dll
 0002:000001d0       __imp__SQLDriverConnectW@32 1004c1d0     odbc32:ODBC32.dll
 0002:000001d4       __imp__SQLSetStmtAttrW@16  1004c1d4     odbc32:ODBC32.dll
 0002:000001d8       __imp__SQLRowCount@8       1004c1d8     odbc32:ODBC32.dll
 0002:000001dc       __imp__SQLSetDescFieldW@20 1004c1dc     odbc32:ODBC32.dll
 0002:000001e0       __imp__SQLFetch@4          1004c1e0     odbc32:ODBC32.dll
 0002:000001e4       __imp__SQLCloseCursor@4    1004c1e4     odbc32:ODBC32.dll
 0002:000001e8       __imp__SQLColAttributeW@28 1004c1e8     odbc32:ODBC32.dll
 0002:000001ec       __imp__SQLExecute@4        1004c1ec     odbc32:ODBC32.dll
 0002:000001f0       __imp__SQLPrepareW@12      1004c1f0     odbc32:ODBC32.dll
 0002:000001f4       __imp__SQLDescribeColW@36  1004c1f4     odbc32:ODBC32.dll
 0002:000001f8       __imp__SQLNumResultCols@8  1004c1f8     odbc32:ODBC32.dll
 0002:000001fc       __imp__SQLBindCol@24       1004c1fc     odbc32:ODBC32.dll
 0002:00000200       __imp__SQLMoreResults@4    1004c200     odbc32:ODBC32.dll
 0002:00000204       __imp__SQLExecDirectW@12   1004c204     odbc32:ODBC32.dll
 0002:00000208       __imp__SQLGetData@24       1004c208     odbc32:ODBC32.dll
 0002:0000020c       __imp__SQLBindParameter@40 1004c20c     odbc32:ODBC32.dll
 0002:00000210       __imp__SQLGetStmtAttrW@20  1004c210     odbc32:ODBC32.dll
 0002:00000214       __imp__SQLGetDiagRecW@32   1004c214     odbc32:ODBC32.dll
 0002:00000218       \177ODBC32_NULL_THUNK_DATA 1004c218     odbc32:ODBC32.dll
 0002:0000021c       __imp_?Length@String@v8@@QBEHXZ 1004c21c     iojs:node.dll
 0002:00000220       __imp_?Write@String@v8@@QBEHPAGHHH@Z 1004c220     iojs:node.dll
 0002:00000224       __imp_?NewFromTwoByte@String@v8@@SA?AV?$Local@VString@v8@@@2@PAVIsolate@2@PBGW4NewStringType@12@H@Z 1004c224     iojs:node.dll
 0002:00000228       __imp_?New@Date@v8@@SA?AV?$Local@VValue@v8@@@2@PAVIsolate@2@N@Z 1004c228     iojs:node.dll
 0002:0000022c       __imp_?New@Array@v8@@SA?AV?$Local@VArray@v8@@@2@PAVIsolate@2@H@Z 1004c22c     iojs:node.dll
 0002:00000230       __imp_?Error@Exception@v8@@SA?AV?$Local@VValue@v8@@@2@V?$Local@VString@v8@@@2@@Z 1004c230     iojs:node.dll
 0002:00000234       __imp_?CreateHandle@HandleScope@v8@@KAPAPAVObject@internal@2@PAVIsolate@42@PAV342@@Z 1004c234     iojs:node.dll
 0002:00000238       __imp_?ThrowException@Isolate@v8@@QAE?AV?$Local@VValue@v8@@@2@V32@@Z 1004c238     iojs:node.dll
 0002:0000023c       __imp_?New@Integer@v8@@SA?AV?$Local@VInteger@v8@@@2@PAVIsolate@2@H@Z 1004c23c     iojs:node.dll
 0002:00000240       __imp_?Set@Object@v8@@QAE_NIV?$Local@VValue@v8@@@2@@Z 1004c240     iojs:node.dll
 0002:00000244       __imp_?Call@Function@v8@@QAE?AV?$Local@VValue@v8@@@2@V32@HQAV32@@Z 1004c244     iojs:node.dll
 0002:00000248       __imp_?Length@Array@v8@@QBEIXZ 1004c248     iojs:node.dll
 0002:0000024c       __imp_?GetCurrentContext@Isolate@v8@@QAE?AV?$Local@VContext@v8@@@2@XZ 1004c24c     iojs:node.dll
 0002:00000250       __imp_?Global@Context@v8@@QAE?AV?$Local@VObject@v8@@@2@XZ 1004c250     iojs:node.dll
 0002:00000254       __imp__uv_default_loop     1004c254     iojs:node.dll
 0002:00000258       __imp__uv_queue_work       1004c258     iojs:node.dll
 0002:0000025c       __imp_?ToString@Value@v8@@QBE?AV?$Local@VString@v8@@@2@XZ 1004c25c     iojs:node.dll
 0002:00000260       __imp_?Get@Object@v8@@QAE?AV?$Local@VValue@v8@@@2@V32@@Z 1004c260     iojs:node.dll
 0002:00000264       __imp_?IntegerValue@Value@v8@@QBE_JXZ 1004c264     iojs:node.dll
 0002:00000268       __imp_?Int32Value@Value@v8@@QBEHXZ 1004c268     iojs:node.dll
 0002:0000026c       __imp_?New@Buffer@node@@YA?AV?$MaybeLocal@VObject@v8@@@v8@@PAVIsolate@4@PADIP6AX1PAX@Z2@Z 1004c26c     iojs:node.dll
 0002:00000270       __imp_?ToLocalEmpty@V8@v8@@CAXXZ 1004c270     iojs:node.dll
 0002:00000274       __imp_?New@Number@v8@@SA?AV?$Local@VNumber@v8@@@2@PAVIsolate@2@N@Z 1004c274     iojs:node.dll
 0002:00000278       __imp__node_module_register 1004c278     iojs:node.dll
 0002:0000027c       __imp_?SetInternalFieldCount@ObjectTemplate@v8@@QAEXH@Z 1004c27c     iojs:node.dll
 0002:00000280       __imp_?Set@Object@v8@@QAE_NV?$Local@VValue@v8@@@2@0@Z 1004c280     iojs:node.dll
 0002:00000284       __imp_?InternalFieldCount@Object@v8@@QAEHXZ 1004c284     iojs:node.dll
 0002:00000288       __imp_?SetAlignedPointerInInternalField@Object@v8@@QAEXHPAX@Z 1004c288     iojs:node.dll
 0002:0000028c       __imp_?SlowGetAlignedPointerFromInternalField@Object@v8@@AAEPAXH@Z 1004c28c     iojs:node.dll
 0002:00000290       __imp_?NewFromUtf8@String@v8@@SA?AV?$Local@VString@v8@@@2@PAVIsolate@2@PBDW4NewStringType@12@H@Z 1004c290     iojs:node.dll
 0002:00000294       __imp_?GlobalizeReference@V8@v8@@CAPAPAVObject@internal@2@PAVIsolate@42@PAPAV342@@Z 1004c294     iojs:node.dll
 0002:00000298       __imp_?DisposeGlobal@V8@v8@@CAXPAPAVObject@internal@2@@Z 1004c298     iojs:node.dll
 0002:0000029c       __imp_?MakeWeak@V8@v8@@CAXPAPAVObject@internal@2@PAXP6AXABV?$WeakCallbackInfo@X@2@@ZW4WeakCallbackType@2@@Z 1004c29c     iojs:node.dll
 0002:000002a0       __imp_?ClearWeak@V8@v8@@CAPAXPAPAVObject@internal@2@@Z 1004c2a0     iojs:node.dll
 0002:000002a4       __imp_?New@FunctionTemplate@v8@@SA?AV?$Local@VFunctionTemplate@v8@@@2@PAVIsolate@2@P6AXABV?$FunctionCallbackInfo@VValue@v8@@@2@@ZV?$Local@VValue@v8@@@2@V?$Local@VSignature@v8@@@2@HW4ConstructorBehavior@2@@Z 1004c2a4     iojs:node.dll
 0002:000002a8       __imp_?GetFunction@FunctionTemplate@v8@@QAE?AV?$Local@VFunction@v8@@@2@XZ 1004c2a8     iojs:node.dll
 0002:000002ac       __imp_?InstanceTemplate@FunctionTemplate@v8@@QAE?AV?$Local@VObjectTemplate@v8@@@2@XZ 1004c2ac     iojs:node.dll
 0002:000002b0       __imp_?PrototypeTemplate@FunctionTemplate@v8@@QAE?AV?$Local@VObjectTemplate@v8@@@2@XZ 1004c2b0     iojs:node.dll
 0002:000002b4       __imp_?SetClassName@FunctionTemplate@v8@@QAEXV?$Local@VString@v8@@@2@@Z 1004c2b4     iojs:node.dll
 0002:000002b8       __imp_?Set@Template@v8@@QAEXV?$Local@VName@v8@@@2@V?$Local@VData@v8@@@2@W4PropertyAttribute@2@@Z 1004c2b8     iojs:node.dll
 0002:000002bc       __imp_??0HandleScope@v8@@QAE@PAVIsolate@1@@Z 1004c2bc     iojs:node.dll
 0002:000002c0       __imp_??1HandleScope@v8@@QAE@XZ 1004c2c0     iojs:node.dll
 0002:000002c4       __imp_?GetCurrent@Isolate@v8@@SAPAV12@XZ 1004c2c4     iojs:node.dll
 0002:000002c8       __imp_?New@Signature@v8@@SA?AV?$Local@VSignature@v8@@@2@PAVIsolate@2@V?$Local@VFunctionTemplate@v8@@@2@@Z 1004c2c8     iojs:node.dll
 0002:000002cc       __imp_?New@Object@v8@@SA?AV?$Local@VObject@v8@@@2@PAVIsolate@2@@Z 1004c2cc     iojs:node.dll
 0002:000002d0       __imp_?New@Buffer@node@@YA?AV?$MaybeLocal@VObject@v8@@@v8@@PAVIsolate@4@I@Z 1004c2d0     iojs:node.dll
 0002:000002d4       __imp_?ToObject@Value@v8@@QBE?AV?$Local@VObject@v8@@@2@XZ 1004c2d4     iojs:node.dll
 0002:000002d8       __imp_?Uint32Value@Value@v8@@QBEIXZ 1004c2d8     iojs:node.dll
 0002:000002dc       __imp_?NumberValue@Value@v8@@QBENXZ 1004c2dc     iojs:node.dll
 0002:000002e0       __imp_?BooleanValue@Value@v8@@QBE_NXZ 1004c2e0     iojs:node.dll
 0002:000002e4       __imp_?IsDate@Value@v8@@QBE_NXZ 1004c2e4     iojs:node.dll
 0002:000002e8       __imp_?IsUint32@Value@v8@@QBE_NXZ 1004c2e8     iojs:node.dll
 0002:000002ec       __imp_?IsInt32@Value@v8@@QBE_NXZ 1004c2ec     iojs:node.dll
 0002:000002f0       __imp_?IsNumber@Value@v8@@QBE_NXZ 1004c2f0     iojs:node.dll
 0002:000002f4       __imp_?IsBoolean@Value@v8@@QBE_NXZ 1004c2f4     iojs:node.dll
 0002:000002f8       __imp_?IsObject@Value@v8@@QBE_NXZ 1004c2f8     iojs:node.dll
 0002:000002fc       __imp_?IsArray@Value@v8@@QBE_NXZ 1004c2fc     iojs:node.dll
 0002:00000300       __imp_?WriteUtf8@String@v8@@QBEHPADHPAHH@Z 1004c300     iojs:node.dll
 0002:00000304       __imp_?Get@Object@v8@@QAE?AV?$Local@VValue@v8@@@2@I@Z 1004c304     iojs:node.dll
 0002:00000308       __imp_?HasInstance@Buffer@node@@YA_NV?$Local@VValue@v8@@@v8@@@Z 1004c308     iojs:node.dll
 0002:0000030c       __imp_?Data@Buffer@node@@YAPADV?$Local@VObject@v8@@@v8@@@Z 1004c30c     iojs:node.dll
 0002:00000310       __imp_?Length@Buffer@node@@YAIV?$Local@VObject@v8@@@v8@@@Z 1004c310     iojs:node.dll
 0002:00000314       __imp_?ToInteger@Value@v8@@QBE?AV?$Local@VInteger@v8@@@2@XZ 1004c314     iojs:node.dll
 0002:00000318       __imp_?Clone@Object@v8@@QAE?AV?$Local@VObject@v8@@@2@XZ 1004c318     iojs:node.dll
 0002:0000031c       \177node_NULL_THUNK_DATA   1004c31c     iojs:node.dll
 0002:00000320       ___guard_check_icall_fptr  1004c320     LIBCMT:guard_support.obj
 0002:00000324       ___xc_a                    1004c324     LIBCMT:initializers.obj
 0002:0000035c       __register_sqlserver_      1004c35c     Connection.obj
 0002:00000360       ___xc_z                    1004c360     LIBCMT:initializers.obj
 0002:00000364       ___xi_a                    1004c364     LIBCMT:initializers.obj
 0002:00000370       ___acrt_stdio_initializer  1004c370     libucrt:stdio_initializer.obj
 0002:00000374       ___acrt_tran_sse2_initializer 1004c374     libucrt:sse2_initializer.obj
 0002:00000378       ___acrt_timeset_initializer 1004c378     libucrt:timeset_initializer.obj
 0002:0000037c       ___acrt_multibyte_initializer 1004c37c     libucrt:multibyte_initializer.obj
 0002:00000380       ___xi_z                    1004c380     LIBCMT:initializers.obj
 0002:00000384       ___xl_a                    1004c384     LIBCMT:tlssup.obj
 0002:00000388       ___xl_z                    1004c388     LIBCMT:tlssup.obj
 0002:0000038c       ___xp_a                    1004c38c     LIBCMT:initializers.obj
 0002:00000394       ___acrt_locale_terminator  1004c394     libucrt:locale_initializer.obj
 0002:00000398       ___dcrt_console_output_terminator 1004c398     libucrt:console_output_initializer.obj
 0002:0000039c       ___acrt_stdio_terminator   1004c39c     libucrt:stdio_initializer.obj
 0002:000003a0       ___xp_z                    1004c3a0     LIBCMT:initializers.obj
 0002:000003a4       ___xt_a                    1004c3a4     LIBCMT:initializers.obj
 0002:000003a8       ___xt_z                    1004c3a8     LIBCMT:initializers.obj
 0002:000003b4       ??_7exception@std@@6B@     1004c3b4     libcpmt:xthrow.obj
 0002:000003bc       ??_C@_0BC@EOODALEL@Unknown?5exception?$AA@ 1004c3bc     libcpmt:xthrow.obj
 0002:000003d4       ??_7bad_alloc@std@@6B@     1004c3d4     libcpmt:xthrow.obj
 0002:000003dc       ??_C@_0P@GHFPNOJB@bad?5allocation?$AA@ 1004c3dc     libcpmt:xthrow.obj
 0002:000003f0       ??_7logic_error@std@@6B@   1004c3f0     libcpmt:xthrow.obj
 0002:000003fc       ??_7invalid_argument@std@@6B@ 1004c3fc     libcpmt:xthrow.obj
 0002:00000408       ??_7length_error@std@@6B@  1004c408     libcpmt:xthrow.obj
 0002:00000414       ??_7out_of_range@std@@6B@  1004c414     libcpmt:xthrow.obj
 0002:00000420       ??_7runtime_error@std@@6B@ 1004c420     libcpmt:xthrow.obj
 0002:00000460       ??_C@_0BI@NGCEHDD@device?5or?5resource?5busy?$AA@ 1004c460     libcpmt:thread0.obj
 0002:00000478       ??_C@_0BB@FCMFBGOM@invalid?5argument?$AA@ 1004c478     libcpmt:thread0.obj
 0002:0000048c       ??_C@_0BA@ENLPPKBN@no?5such?5process?$AA@ 1004c48c     libcpmt:thread0.obj
 0002:0000049c       ??_C@_0BC@ENOOLCNF@not?5enough?5memory?$AA@ 1004c49c     libcpmt:thread0.obj
 0002:000004b0       ??_C@_0BI@OHIEJAAB@operation?5not?5permitted?$AA@ 1004c4b0     libcpmt:thread0.obj
 0002:000004c8       ??_C@_0BO@BJBOMOEJ@resource?5deadlock?5would?5occur?$AA@ 1004c4c8     libcpmt:thread0.obj
 0002:000004e8       ??_C@_0BP@LKNGHENJ@resource?5unavailable?5try?5again?$AA@ 1004c4e8     libcpmt:thread0.obj
 0002:0000050c       ??_7error_category@std@@6B@ 1004c50c     libcpmt:thread0.obj
 0002:00000528       ??_7_System_error@std@@6B@ 1004c528     libcpmt:thread0.obj
 0002:00000534       ??_7system_error@std@@6B@  1004c534     libcpmt:thread0.obj
 0002:00000540       ??_7_Generic_error_category@std@@6B@ 1004c540     libcpmt:thread0.obj
 0002:0000055c       ??_7stl_critical_section_vista@details@Concurrency@@6B@ 1004c55c     libcpmt:mutex.obj
 0002:00000574       ??_7stl_critical_section_win7@details@Concurrency@@6B@ 1004c574     libcpmt:mutex.obj
 0002:0000058c       ??_7stl_critical_section_concrt@details@Concurrency@@6B@ 1004c58c     libcpmt:mutex.obj
 0002:000005a4       ??_7_Facet_base@std@@6B@   1004c5a4     libcpmt:locale0.obj
 0002:000005b4       ??_7_Locimp@locale@std@@6B@ 1004c5b4     libcpmt:locale0.obj
 0002:000005c0       ??_C@_01NBENCBCI@?$CK?$AA@ 1004c5c0     libcpmt:locale0.obj
 0002:000005c4       ??_C@_01GFHCPBMG@C?$AA@    1004c5c4     libcpmt:locale0.obj
 0002:000005c8       ?_BADOFF@std@@3_JB         1004c5c8     libcpmt:ios.obj
 0002:000005d0       ??_C@_0BD@JPHBMONG@identifier?5removed?$AA@ 1004c5d0     libcpmt:syserror.obj
 0002:000005e4       ??_C@_0BG@CDNPAGJK@illegal?5byte?5sequence?$AA@ 1004c5e4     libcpmt:syserror.obj
 0002:000005fc       ??_C@_0CD@BNPLBMNA@inappropriate?5io?5control?5operati@ 1004c5fc     libcpmt:syserror.obj
 0002:00000620       ??_C@_0M@EGEKIIMP@interrupted?$AA@ 1004c620     libcpmt:syserror.obj
 0002:0000062c       ??_C@_0N@OHAFKDEK@invalid?5seek?$AA@ 1004c62c     libcpmt:syserror.obj
 0002:0000063c       ??_C@_08GLNPIFBN@io?5error?$AA@ 1004c63c     libcpmt:syserror.obj
 0002:00000648       ??_C@_0P@FLLDBIDK@is?5a?5directory?$AA@ 1004c648     libcpmt:syserror.obj
 0002:00000658       ??_C@_0N@IFLPBIOP@message?5size?$AA@ 1004c658     libcpmt:syserror.obj
 0002:00000668       ??_C@_0N@KIIEAAIO@network?5down?$AA@ 1004c668     libcpmt:syserror.obj
 0002:00000678       ??_C@_0O@FNPDBHEE@network?5reset?$AA@ 1004c678     libcpmt:syserror.obj
 0002:00000688       ??_C@_0BE@IFNCKGE@network?5unreachable?$AA@ 1004c688     libcpmt:syserror.obj
 0002:0000069c       ??_C@_0BA@PFFCAOFK@no?5buffer?5space?$AA@ 1004c69c     libcpmt:syserror.obj
 0002:000006ac       ??_C@_0BB@IEPBLJHK@no?5child?5process?$AA@ 1004c6ac     libcpmt:syserror.obj
 0002:000006c0       ??_C@_07PLECNNKG@no?5link?$AA@ 1004c6c0     libcpmt:syserror.obj
 0002:000006c8       ??_C@_0BC@NJECKMKE@no?5lock?5available?$AA@ 1004c6c8     libcpmt:syserror.obj
 0002:000006dc       ??_C@_0BF@PBGGPKKE@no?5message?5available?$AA@ 1004c6dc     libcpmt:syserror.obj
 0002:000006f4       ??_C@_0L@EDOLMPAK@no?5message?$AA@ 1004c6f4     libcpmt:syserror.obj
 0002:00000700       ??_C@_0BD@EAMBFIDF@no?5protocol?5option?$AA@ 1004c700     libcpmt:syserror.obj
 0002:00000714       ??_C@_0BD@IJDJKDEA@no?5space?5on?5device?$AA@ 1004c714     libcpmt:syserror.obj
 0002:00000728       ??_C@_0BE@MKFDAFMP@no?5stream?5resources?$AA@ 1004c728     libcpmt:syserror.obj
 0002:0000073c       ??_C@_0BK@IMCPHCBI@no?5such?5device?5or?5address?$AA@ 1004c73c     libcpmt:syserror.obj
 0002:00000758       ??_C@_0P@FDINDDOK@no?5such?5device?$AA@ 1004c758     libcpmt:syserror.obj
 0002:00000768       ??_C@_0BK@NDOCBPGE@no?5such?5file?5or?5directory?$AA@ 1004c768     libcpmt:syserror.obj
 0002:00000784       ??_C@_0BA@DOCPFFJG@not?5a?5directory?$AA@ 1004c784     libcpmt:syserror.obj
 0002:00000794       ??_C@_0N@POEIPGGF@not?5a?5socket?$AA@ 1004c794     libcpmt:syserror.obj
 0002:000007a4       ??_C@_0N@LGAPMMPI@not?5a?5stream?$AA@ 1004c7a4     libcpmt:syserror.obj
 0002:000007b4       ??_C@_0O@GLMIBBEG@not?5connected?$AA@ 1004c7b4     libcpmt:syserror.obj
 0002:000007c4       ??_C@_0O@NHEDABJP@not?5supported?$AA@ 1004c7c4     libcpmt:syserror.obj
 0002:000007d4       ??_C@_0BD@MOLBPMEA@operation?5canceled?$AA@ 1004c7d4     libcpmt:syserror.obj
 0002:000007e8       ??_C@_0BG@KDKHOPCO@operation?5in?5progress?$AA@ 1004c7e8     libcpmt:syserror.obj
 0002:00000800       ??_C@_0BI@LNEGIFLN@operation?5not?5supported?$AA@ 1004c800     libcpmt:syserror.obj
 0002:00000818       ??_C@_0BG@OEMDKMEE@operation?5would?5block?$AA@ 1004c818     libcpmt:syserror.obj
 0002:00000830       ??_C@_0L@BLPOFLNJ@owner?5dead?$AA@ 1004c830     libcpmt:syserror.obj
 0002:0000083c       ??_C@_0BC@CIJDGCDI@permission?5denied?$AA@ 1004c83c     libcpmt:syserror.obj
 0002:00000850       ??_C@_0P@FNPOCJBE@protocol?5error?$AA@ 1004c850     libcpmt:syserror.obj
 0002:00000860       ??_C@_0BH@JPPPLHJB@protocol?5not?5supported?$AA@ 1004c860     libcpmt:syserror.obj
 0002:00000878       ??_C@_0BG@EICBIHDP@read?5only?5file?5system?$AA@ 1004c878     libcpmt:syserror.obj
 0002:00000890       ??_C@_0BE@GOIPJJHG@result?5out?5of?5range?$AA@ 1004c890     libcpmt:syserror.obj
 0002:000008a4       ??_C@_0BG@MPLKFPAE@state?5not?5recoverable?$AA@ 1004c8a4     libcpmt:syserror.obj
 0002:000008bc       ??_C@_0P@DIIFGFCG@stream?5timeout?$AA@ 1004c8bc     libcpmt:syserror.obj
 0002:000008cc       ??_C@_0P@IPFDMIFL@text?5file?5busy?$AA@ 1004c8cc     libcpmt:syserror.obj
 0002:000008dc       ??_C@_09KJPPMAOI@timed?5out?$AA@ 1004c8dc     libcpmt:syserror.obj
 0002:000008e8       ??_C@_0BO@HACHBEKI@too?5many?5files?5open?5in?5system?$AA@ 1004c8e8     libcpmt:syserror.obj
 0002:00000908       ??_C@_0BE@GHAFMPAH@too?5many?5files?5open?$AA@ 1004c908     libcpmt:syserror.obj
 0002:0000091c       ??_C@_0P@HCOMKFCC@too?5many?5links?$AA@ 1004c91c     libcpmt:syserror.obj
 0002:0000092c       ??_C@_0BO@EFGOJEF@too?5many?5symbolic?5link?5levels?$AA@ 1004c92c     libcpmt:syserror.obj
 0002:0000094c       ??_C@_0BA@KGKGOOJA@value?5too?5large?$AA@ 1004c94c     libcpmt:syserror.obj
 0002:0000095c       ??_C@_0BE@MIEJDDNH@wrong?5protocol?5type?$AA@ 1004c95c     libcpmt:syserror.obj
 0002:00000e30       ??_C@_0BN@LKKBCCDB@address?5family?5not?5supported?$AA@ 1004ce30     libcpmt:syserror.obj
 0002:00000e50       ??_C@_0P@LDMLAFHI@address?5in?5use?$AA@ 1004ce50     libcpmt:syserror.obj
 0002:00000e60       ??_C@_0BG@DHPCNBJB@address?5not?5available?$AA@ 1004ce60     libcpmt:syserror.obj
 0002:00000e78       ??_C@_0BC@DFIBIBIL@already?5connected?$AA@ 1004ce78     libcpmt:syserror.obj
 0002:00000e8c       ??_C@_0BH@CAKOHOMI@argument?5list?5too?5long?$AA@ 1004ce8c     libcpmt:syserror.obj
 0002:00000ea4       ??_C@_0BH@CGIMPKIM@argument?5out?5of?5domain?$AA@ 1004cea4     libcpmt:syserror.obj
 0002:00000ebc       ??_C@_0M@KGHGGJGL@bad?5address?$AA@ 1004cebc     libcpmt:syserror.obj
 0002:00000ec8       ??_C@_0BE@MPJPGCEO@bad?5file?5descriptor?$AA@ 1004cec8     libcpmt:syserror.obj
 0002:00000edc       ??_C@_0M@PMMIEFCP@bad?5message?$AA@ 1004cedc     libcpmt:syserror.obj
 0002:00000ee8       ??_C@_0M@KPHOFDBE@broken?5pipe?$AA@ 1004cee8     libcpmt:syserror.obj
 0002:00000ef4       ??_C@_0BD@MGNDDEGM@connection?5aborted?$AA@ 1004cef4     libcpmt:syserror.obj
 0002:00000f08       ??_C@_0BP@KAIHPOGN@connection?5already?5in?5progress?$AA@ 1004cf08     libcpmt:syserror.obj
 0002:00000f28       ??_C@_0BD@PJLIIJEL@connection?5refused?$AA@ 1004cf28     libcpmt:syserror.obj
 0002:00000f3c       ??_C@_0BB@IECNJNOI@connection?5reset?$AA@ 1004cf3c     libcpmt:syserror.obj
 0002:00000f50       ??_C@_0BC@PPHBOELF@cross?5device?5link?$AA@ 1004cf50     libcpmt:syserror.obj
 0002:00000f64       ??_C@_0BN@KDMIFEIP@destination?5address?5required?$AA@ 1004cf64     libcpmt:syserror.obj
 0002:00000f84       ??_C@_0BE@JIDOCPHM@directory?5not?5empty?$AA@ 1004cf84     libcpmt:syserror.obj
 0002:00000f98       ??_C@_0BI@BNCLIGPB@executable?5format?5error?$AA@ 1004cf98     libcpmt:syserror.obj
 0002:00000fb0       ??_C@_0M@MIDIAGJP@file?5exists?$AA@ 1004cfb0     libcpmt:syserror.obj
 0002:00000fbc       ??_C@_0P@DNAJLBJK@file?5too?5large?$AA@ 1004cfbc     libcpmt:syserror.obj
 0002:00000fcc       ??_C@_0BC@EJHOMAAK@filename?5too?5long?$AA@ 1004cfcc     libcpmt:syserror.obj
 0002:00000fe0       ??_C@_0BH@KEFGLDAF@function?5not?5supported?$AA@ 1004cfe0     libcpmt:syserror.obj
 0002:00000ff8       ??_C@_0BB@DHFDFGDM@host?5unreachable?$AA@ 1004cff8     libcpmt:syserror.obj
 0002:0000100c       ??_C@_0O@BFJCFAAK@unknown?5error?$AA@ 1004d00c     libcpmt:syserror.obj
 0002:0000101c       ??_C@_1BK@MGMFAEKH@?$AAk?$AAe?$AAr?$AAn?$AAe?$AAl?$AA3?$AA2?$AA?4?$AAd?$AAl?$AAl?$AA?$AA@ 1004d01c     libcpmt:winapisupp.obj
 0002:00001038       ??_C@_08KNHFBNJ@FlsAlloc?$AA@ 1004d038     libcpmt:winapisupp.obj
 0002:00001044       ??_C@_07PEJMOBNF@FlsFree?$AA@ 1004d044     libcpmt:winapisupp.obj
 0002:0000104c       ??_C@_0M@GDNOONDI@FlsGetValue?$AA@ 1004d04c     libcpmt:winapisupp.obj
 0002:00001058       ??_C@_0M@JCPCPOEF@FlsSetValue?$AA@ 1004d058     libcpmt:winapisupp.obj
 0002:00001064       ??_C@_0BM@HCFOFFN@InitializeCriticalSectionEx?$AA@ 1004d064     libcpmt:winapisupp.obj
 0002:00001080       ??_C@_0BE@GPLMMCMH@InitOnceExecuteOnce?$AA@ 1004d080     libcpmt:winapisupp.obj
 0002:00001094       ??_C@_0P@DLHPPCNH@CreateEventExW?$AA@ 1004d094     libcpmt:winapisupp.obj
 0002:000010a4       ??_C@_0BB@MEFPJLHN@CreateSemaphoreW?$AA@ 1004d0a4     libcpmt:winapisupp.obj
 0002:000010b8       ??_C@_0BD@KIEEOEEH@CreateSemaphoreExW?$AA@ 1004d0b8     libcpmt:winapisupp.obj
 0002:000010cc       ??_C@_0BG@OGFAJCKC@CreateThreadpoolTimer?$AA@ 1004d0cc     libcpmt:winapisupp.obj
 0002:000010e4       ??_C@_0BD@LPLEMMDI@SetThreadpoolTimer?$AA@ 1004d0e4     libcpmt:winapisupp.obj
 0002:000010f8       ??_C@_0CA@FMNJENH@WaitForThreadpoolTimerCallbacks?$AA@ 1004d0f8     libcpmt:winapisupp.obj
 0002:00001118       ??_C@_0BF@DCFCCNOC@CloseThreadpoolTimer?$AA@ 1004d118     libcpmt:winapisupp.obj
 0002:00001130       ??_C@_0BF@FLABGKKM@CreateThreadpoolWait?$AA@ 1004d130     libcpmt:winapisupp.obj
 0002:00001148       ??_C@_0BC@MGCOHNA@SetThreadpoolWait?$AA@ 1004d148     libcpmt:winapisupp.obj
 0002:0000115c       ??_C@_0BE@OCIOMIMP@CloseThreadpoolWait?$AA@ 1004d15c     libcpmt:winapisupp.obj
 0002:00001170       ??_C@_0BJ@LKGHFHBO@FlushProcessWriteBuffers?$AA@ 1004d170     libcpmt:winapisupp.obj
 0002:0000118c       ??_C@_0BP@KALKKPMO@FreeLibraryWhenCallbackReturns?$AA@ 1004d18c     libcpmt:winapisupp.obj
 0002:000011ac       ??_C@_0BK@DFNBACLA@GetCurrentProcessorNumber?$AA@ 1004d1ac     libcpmt:winapisupp.obj
 0002:000011c8       ??_C@_0BE@FKKLLFLM@CreateSymbolicLinkW?$AA@ 1004d1c8     libcpmt:winapisupp.obj
 0002:000011dc       ??_C@_0BE@JOGNEJCI@GetCurrentPackageId?$AA@ 1004d1dc     libcpmt:winapisupp.obj
 0002:000011f0       ??_C@_0P@CDHHOHKP@GetTickCount64?$AA@ 1004d1f0     libcpmt:winapisupp.obj
 0002:00001200       ??_C@_0BN@NEEHBBPO@GetFileInformationByHandleEx?$AA@ 1004d200     libcpmt:winapisupp.obj
 0002:00001220       ??_C@_0BL@KBBHGKCM@SetFileInformationByHandle?$AA@ 1004d220     libcpmt:winapisupp.obj
 0002:0000123c       ??_C@_0BP@FPNJPEJC@GetSystemTimePreciseAsFileTime?$AA@ 1004d23c     libcpmt:winapisupp.obj
 0002:0000125c       ??_C@_0BM@HLJJNPAH@InitializeConditionVariable?$AA@ 1004d25c     libcpmt:winapisupp.obj
 0002:00001278       ??_C@_0BG@BFNILBLN@WakeConditionVariable?$AA@ 1004d278     libcpmt:winapisupp.obj
 0002:00001290       ??_C@_0BJ@PGPPEPCC@WakeAllConditionVariable?$AA@ 1004d290     libcpmt:winapisupp.obj
 0002:000012ac       ??_C@_0BJ@JEBJOJFJ@SleepConditionVariableCS?$AA@ 1004d2ac     libcpmt:winapisupp.obj
 0002:000012c8       ??_C@_0BC@MMLHEBPB@InitializeSRWLock?$AA@ 1004d2c8     libcpmt:winapisupp.obj
 0002:000012dc       ??_C@_0BI@OMNLIJDB@AcquireSRWLockExclusive?$AA@ 1004d2dc     libcpmt:winapisupp.obj
 0002:000012f4       ??_C@_0BL@OGHFEMNA@TryAcquireSRWLockExclusive?$AA@ 1004d2f4     libcpmt:winapisupp.obj
 0002:00001310       ??_C@_0BI@HMIEPCNJ@ReleaseSRWLockExclusive?$AA@ 1004d310     libcpmt:winapisupp.obj
 0002:00001328       ??_C@_0BK@LGACAGIC@SleepConditionVariableSRW?$AA@ 1004d328     libcpmt:winapisupp.obj
 0002:00001344       ??_C@_0BF@GGPHFPJA@CreateThreadpoolWork?$AA@ 1004d344     libcpmt:winapisupp.obj
 0002:0000135c       ??_C@_0BF@NHDAIMMO@SubmitThreadpoolWork?$AA@ 1004d35c     libcpmt:winapisupp.obj
 0002:00001374       ??_C@_0BE@NPHIPNPD@CloseThreadpoolWork?$AA@ 1004d374     libcpmt:winapisupp.obj
 0002:00001388       ??_C@_0BA@IHGNDAEB@CompareStringEx?$AA@ 1004d388     libcpmt:winapisupp.obj
 0002:00001398       ??_C@_0BA@ONOKGCMP@GetLocaleInfoEx?$AA@ 1004d398     libcpmt:winapisupp.obj
 0002:000013a8       ??_C@_0O@KKBNKAPF@LCMapStringEx?$AA@ 1004d3a8     libcpmt:winapisupp.obj
 0002:000013bc       ??_7bad_cast@std@@6B@      1004d3bc     libcpmt:locale.obj
 0002:000013c8       ??_7?$ctype@D@std@@6B@     1004d3c8     libcpmt:locale.obj
 0002:000013f8       ??_7?$num_put@DV?$ostreambuf_iterator@DU?$char_traits@D@std@@@std@@@std@@6B@ 1004d3f8     libcpmt:locale.obj
 0002:00001428       ??_7?$numpunct@D@std@@6B@  1004d428     libcpmt:locale.obj
 0002:00001448       ??_C@_11LOCGONAA@?$AA?$AA@ 1004d448     libcpmt:wlocale.obj
 0002:0000144c       ??_C@_01JOAMLHOP@?9?$AA@   1004d44c     libcpmt:wlocale.obj
 0002:00001450       __real@0000000000000000    1004d450     libcpmt:wlocale.obj
 0002:00002338       ??_C@_15EMKDOKLE@?$AAa?$AAr?$AA?$AA@ 1004e338     libcpmt:winapinls.obj
 0002:00002340       ??_C@_15KNPADPLH@?$AAb?$AAg?$AA?$AA@ 1004e340     libcpmt:winapinls.obj
 0002:00002348       ??_C@_15EDMHLDMO@?$AAc?$AAa?$AA?$AA@ 1004e348     libcpmt:winapinls.obj
 0002:00002350       ??_C@_1O@BPEAJADD@?$AAz?$AAh?$AA?9?$AAC?$AAH?$AAS?$AA?$AA@ 1004e350     libcpmt:winapinls.obj
 0002:00002360       ??_C@_15LJNHCMNK@?$AAc?$AAs?$AA?$AA@ 1004e360     libcpmt:winapinls.obj
 0002:00002368       ??_C@_15FOMCIDHG@?$AAd?$AAa?$AA?$AA@ 1004e368     libcpmt:winapinls.obj
 0002:00002370       ??_C@_15NBKABECB@?$AAd?$AAe?$AA?$AA@ 1004e370     libcpmt:winapinls.obj
 0002:00002378       ??_C@_15GHPEIIAO@?$AAe?$AAl?$AA?$AA@ 1004e378     libcpmt:winapinls.obj
 0002:00002380       ??_C@_15MNPNEAIF@?$AAe?$AAn?$AA?$AA@ 1004e380     libcpmt:winapinls.obj
 0002:00002388       ??_C@_15GPIOMPMH@?$AAe?$AAs?$AA?$AA@ 1004e388     libcpmt:winapinls.obj
 0002:00002390       ??_C@_15NGLOAKJC@?$AAf?$AAi?$AA?$AA@ 1004e390     libcpmt:winapinls.obj
 0002:00002398       ??_C@_15FBKGNKAM@?$AAf?$AAr?$AA?$AA@ 1004e398     libcpmt:winapinls.obj
 0002:000023a0       ??_C@_15KGGCNEFK@?$AAh?$AAe?$AA?$AA@ 1004e3a0     libcpmt:winapinls.obj
 0002:000023a8       ??_C@_15PGHLIDMF@?$AAh?$AAu?$AA?$AA@ 1004e3a8     libcpmt:winapinls.obj
 0002:000023b0       ??_C@_15BIEMAPLM@?$AAi?$AAs?$AA?$AA@ 1004e3b0     libcpmt:winapinls.obj
 0002:000023b8       ??_C@_15IFJLDHAF@?$AAi?$AAt?$AA?$AA@ 1004e3b8     libcpmt:winapinls.obj
 0002:000023c0       ??_C@_15GEMIOCAG@?$AAj?$AAa?$AA?$AA@ 1004e3c0     libcpmt:winapinls.obj
 0002:000023c8       ??_C@_15EPELEGJA@?$AAk?$AAo?$AA?$AA@ 1004e3c8     libcpmt:winapinls.obj
 0002:000023d0       ??_C@_15NDDHIMN@?$AAn?$AAl?$AA?$AA@ 1004e3d0     libcpmt:winapinls.obj
 0002:000023d8       ??_C@_15BPIGNHCD@?$AAn?$AAo?$AA?$AA@ 1004e3d8     libcpmt:winapinls.obj
 0002:000023e0       ??_C@_15DEOPBLCG@?$AAp?$AAl?$AA?$AA@ 1004e3e0     libcpmt:winapinls.obj
 0002:000023e8       ??_C@_15KBECGEFG@?$AAp?$AAt?$AA?$AA@ 1004e3e8     libcpmt:winapinls.obj
 0002:000023f0       ??_C@_15GLJCBFMD@?$AAr?$AAo?$AA?$AA@ 1004e3f0     libcpmt:winapinls.obj
 0002:000023f8       ??_C@_15FEDGKCDI@?$AAr?$AAu?$AA?$AA@ 1004e3f8     libcpmt:winapinls.obj
 0002:00002400       ??_C@_15GLKMLLHM@?$AAh?$AAr?$AA?$AA@ 1004e400     libcpmt:winapinls.obj
 0002:00002408       ??_C@_15CPKMFBDB@?$AAs?$AAk?$AA?$AA@ 1004e408     libcpmt:winapinls.obj
 0002:00002410       ??_C@_15BAAIOGMK@?$AAs?$AAq?$AA?$AA@ 1004e410     libcpmt:winapinls.obj
 0002:00002418       ??_C@_15INNPNOHD@?$AAs?$AAv?$AA?$AA@ 1004e418     libcpmt:winapinls.obj
 0002:00002420       ??_C@_15CABMMOGH@?$AAt?$AAh?$AA?$AA@ 1004e420     libcpmt:winapinls.obj
 0002:00002428       ??_C@_15BPLIHJJM@?$AAt?$AAr?$AA?$AA@ 1004e428     libcpmt:winapinls.obj
 0002:00002430       ??_C@_15NEOEKKDJ@?$AAu?$AAr?$AA?$AA@ 1004e430     libcpmt:winapinls.obj
 0002:00002438       ??_C@_15NFICGAJK@?$AAi?$AAd?$AA?$AA@ 1004e438     libcpmt:winapinls.obj
 0002:00002440       ??_C@_15PJPFLCCM@?$AAu?$AAk?$AA?$AA@ 1004e440     libcpmt:winapinls.obj
 0002:00002448       ??_C@_15HPJPHDM@?$AAb?$AAe?$AA?$AA@ 1004e448     libcpmt:winapinls.obj
 0002:00002450       ??_C@_15LCHLGJII@?$AAs?$AAl?$AA?$AA@ 1004e450     libcpmt:winapinls.obj
 0002:00002458       ??_C@_15PCFJPHHO@?$AAe?$AAt?$AA?$AA@ 1004e458     libcpmt:winapinls.obj
 0002:00002460       ??_C@_15HPFPGODN@?$AAl?$AAv?$AA?$AA@ 1004e460     libcpmt:winapinls.obj
 0002:00002468       ??_C@_15NFFGKGLG@?$AAl?$AAt?$AA?$AA@ 1004e468     libcpmt:winapinls.obj
 0002:00002470       ??_C@_15BDAKCCHN@?$AAf?$AAa?$AA?$AA@ 1004e470     libcpmt:winapinls.obj
 0002:00002478       ??_C@_15NFGIAIAJ@?$AAv?$AAi?$AA?$AA@ 1004e478     libcpmt:winapinls.obj
 0002:00002480       ??_C@_15LMKNDMHN@?$AAh?$AAy?$AA?$AA@ 1004e480     libcpmt:winapinls.obj
 0002:00002488       ??_C@_15IJBHMCFL@?$AAa?$AAz?$AA?$AA@ 1004e488     libcpmt:winapinls.obj
 0002:00002490       ??_C@_15EKOFJABL@?$AAe?$AAu?$AA?$AA@ 1004e490     libcpmt:winapinls.obj
 0002:00002498       ??_C@_15BGHADCNK@?$AAm?$AAk?$AA?$AA@ 1004e498     libcpmt:winapinls.obj
 0002:000024a0       ??_C@_15JDNICKHM@?$AAa?$AAf?$AA?$AA@ 1004e4a0     libcpmt:winapinls.obj
 0002:000024a8       ??_C@_15KPJEDBKD@?$AAk?$AAa?$AA?$AA@ 1004e4a8     libcpmt:winapinls.obj
 0002:000024b0       ??_C@_15PDNFFFEO@?$AAf?$AAo?$AA?$AA@ 1004e4b0     libcpmt:winapinls.obj
 0002:000024b8       ??_C@_15OMLEGLOC@?$AAh?$AAi?$AA?$AA@ 1004e4b8     libcpmt:winapinls.obj
 0002:000024c0       ??_C@_15IDNNENKK@?$AAm?$AAs?$AA?$AA@ 1004e4c0     libcpmt:winapinls.obj
 0002:000024c8       ??_C@_15MACJNBMH@?$AAk?$AAk?$AA?$AA@ 1004e4c8     libcpmt:winapinls.obj
 0002:000024d0       ??_C@_15DKDJEOND@?$AAk?$AAy?$AA?$AA@ 1004e4d0     libcpmt:winapinls.obj
 0002:000024d8       ??_C@_15DFGDLJBG@?$AAs?$AAw?$AA?$AA@ 1004e4d8     libcpmt:winapinls.obj
 0002:000024e0       ??_C@_15BBFAICNG@?$AAu?$AAz?$AA?$AA@ 1004e4e0     libcpmt:winapinls.obj
 0002:000024e8       ??_C@_15DKNDCGEA@?$AAt?$AAt?$AA?$AA@ 1004e4e8     libcpmt:winapinls.obj
 0002:000024f0       ??_C@_15MGIFMDPL@?$AAp?$AAa?$AA?$AA@ 1004e4f0     libcpmt:winapinls.obj
 0002:000024f8       ??_C@_15HCNDBBA@?$AAg?$AAu?$AA?$AA@ 1004e4f8     libcpmt:winapinls.obj
 0002:00002500       ??_C@_15FNBEIBON@?$AAt?$AAa?$AA?$AA@ 1004e500     libcpmt:winapinls.obj
 0002:00002508       ??_C@_15NCHGBGLK@?$AAt?$AAe?$AA?$AA@ 1004e508     libcpmt:winapinls.obj
 0002:00002510       ??_C@_15PHPHCBPF@?$AAk?$AAn?$AA?$AA@ 1004e510     libcpmt:winapinls.obj
 0002:00002518       ??_C@_15DLGBCKMP@?$AAm?$AAr?$AA?$AA@ 1004e518     libcpmt:winapinls.obj
 0002:00002520       ??_C@_15EABBLBFF@?$AAs?$AAa?$AA?$AA@ 1004e520     libcpmt:winapinls.obj
 0002:00002528       ??_C@_15CBKOMCOI@?$AAm?$AAn?$AA?$AA@ 1004e528     libcpmt:winapinls.obj
 0002:00002530       ??_C@_15CKDMCJAF@?$AAg?$AAl?$AA?$AA@ 1004e530     libcpmt:winapinls.obj
 0002:00002538       ??_C@_17CNJFBPG@?$AAk?$AAo?$AAk?$AA?$AA@ 1004e538     libcpmt:winapinls.obj
 0002:00002540       ??_C@_17FFBJICPL@?$AAs?$AAy?$AAr?$AA?$AA@ 1004e540     libcpmt:winapinls.obj
 0002:00002548       ??_C@_17KPNDCPAF@?$AAd?$AAi?$AAv?$AA?$AA@ 1004e548     libcpmt:winapinls.obj
 0002:00002550       ??_C@_1M@OKAHONE@?$AAa?$AAr?$AA?9?$AAS?$AAA?$AA?$AA@ 1004e550     libcpmt:winapinls.obj
 0002:0000255c       ??_C@_1M@FFFIGIGK@?$AAb?$AAg?$AA?9?$AAB?$AAG?$AA?$AA@ 1004e55c     libcpmt:winapinls.obj
 0002:00002568       ??_C@_1M@BJNKEDC@?$AAc?$AAa?$AA?9?$AAE?$AAS?$AA?$AA@ 1004e568     libcpmt:winapinls.obj
 0002:00002574       ??_C@_1M@CLNBBOPM@?$AAz?$AAh?$AA?9?$AAT?$AAW?$AA?$AA@ 1004e574     libcpmt:winapinls.obj
 0002:00002580       ??_C@_1M@IJJHFJHA@?$AAc?$AAs?$AA?9?$AAC?$AAZ?$AA?$AA@ 1004e580     libcpmt:winapinls.obj
 0002:0000258c       ??_C@_1M@CLPEOBGI@?$AAd?$AAa?$AA?9?$AAD?$AAK?$AA?$AA@ 1004e58c     libcpmt:winapinls.obj
 0002:00002598       ??_C@_1M@MCMADGCB@?$AAd?$AAe?$AA?9?$AAD?$AAE?$AA?$AA@ 1004e598     libcpmt:winapinls.obj
 0002:000025a4       ??_C@_1M@OOCKEMAM@?$AAe?$AAl?$AA?9?$AAG?$AAR?$AA?$AA@ 1004e5a4     libcpmt:winapinls.obj
 0002:000025b0       ??_C@_1M@BMHNFIME@?$AAe?$AAn?$AA?9?$AAU?$AAS?$AA?$AA@ 1004e5b0     libcpmt:winapinls.obj
 0002:000025bc       ??_C@_1M@DDNJFGID@?$AAf?$AAi?$AA?9?$AAF?$AAI?$AA?$AA@ 1004e5bc     libcpmt:winapinls.obj
 0002:000025c8       ??_C@_1M@GLIPPMAC@?$AAf?$AAr?$AA?9?$AAF?$AAR?$AA?$AA@ 1004e5c8     libcpmt:winapinls.obj
 0002:000025d4       ??_C@_1M@GFMCHPE@?$AAh?$AAe?$AA?9?$AAI?$AAL?$AA?$AA@ 1004e5d4     libcpmt:winapinls.obj
 0002:000025e0       ??_C@_1M@MHLPGNKM@?$AAh?$AAu?$AA?9?$AAH?$AAU?$AA?$AA@ 1004e5e0     libcpmt:winapinls.obj
 0002:000025ec       ??_C@_1M@LPDDNNPN@?$AAi?$AAs?$AA?9?$AAI?$AAS?$AA?$AA@ 1004e5ec     libcpmt:winapinls.obj
 0002:000025f8       ??_C@_1M@MADIPODN@?$AAi?$AAt?$AA?9?$AAI?$AAT?$AA?$AA@ 1004e5f8     libcpmt:winapinls.obj
 0002:00002604       ??_C@_1M@HPNHIDJI@?$AAj?$AAa?$AA?9?$AAJ?$AAP?$AA?$AA@ 1004e604     libcpmt:winapinls.obj
 0002:00002610       ??_C@_1M@JLOOOEGK@?$AAk?$AAo?$AA?9?$AAK?$AAR?$AA?$AA@ 1004e610     libcpmt:winapinls.obj
 0002:0000261c       ??_C@_1M@IHBJJGG@?$AAn?$AAl?$AA?9?$AAN?$AAL?$AA?$AA@ 1004e61c     libcpmt:winapinls.obj
 0002:00002628       ??_C@_1M@EANAGDL@?$AAn?$AAb?$AA?9?$AAN?$AAO?$AA?$AA@ 1004e628     libcpmt:winapinls.obj
 0002:00002634       ??_C@_1M@NEIEMEGP@?$AAp?$AAl?$AA?9?$AAP?$AAL?$AA?$AA@ 1004e634     libcpmt:winapinls.obj
 0002:00002640       ??_C@_1M@BOCFIGEP@?$AAp?$AAt?$AA?9?$AAB?$AAR?$AA?$AA@ 1004e640     libcpmt:winapinls.obj
 0002:0000264c       ??_C@_1M@IMPFOPBG@?$AAr?$AAo?$AA?9?$AAR?$AAO?$AA?$AA@ 1004e64c     libcpmt:winapinls.obj
 0002:00002658       ??_C@_1M@IDNNEJMM@?$AAr?$AAu?$AA?9?$AAR?$AAU?$AA?$AA@ 1004e658     libcpmt:winapinls.obj
 0002:00002664       ??_C@_1M@LILEEOGM@?$AAh?$AAr?$AA?9?$AAH?$AAR?$AA?$AA@ 1004e664     libcpmt:winapinls.obj
 0002:00002670       ??_C@_1M@FKIFEHPB@?$AAs?$AAk?$AA?9?$AAS?$AAK?$AA?$AA@ 1004e670     libcpmt:winapinls.obj
 0002:0000267c       ??_C@_1M@LJMAMNPJ@?$AAs?$AAq?$AA?9?$AAA?$AAL?$AA?$AA@ 1004e67c     libcpmt:winapinls.obj
 0002:00002688       ??_C@_1M@GIAKDKJK@?$AAs?$AAv?$AA?9?$AAS?$AAE?$AA?$AA@ 1004e688     libcpmt:winapinls.obj
 0002:00002694       ??_C@_1M@MKJKIKCL@?$AAt?$AAh?$AA?9?$AAT?$AAH?$AA?$AA@ 1004e694     libcpmt:winapinls.obj
 0002:000026a0       ??_C@_1M@MFLCCMPB@?$AAt?$AAr?$AA?9?$AAT?$AAR?$AA?$AA@ 1004e6a0     libcpmt:winapinls.obj
 0002:000026ac       ??_C@_1M@OIJHDKJN@?$AAu?$AAr?$AA?9?$AAP?$AAK?$AA?$AA@ 1004e6ac     libcpmt:winapinls.obj
 0002:000026b8       ??_C@_1M@LHIPCIEK@?$AAi?$AAd?$AA?9?$AAI?$AAD?$AA?$AA@ 1004e6b8     libcpmt:winapinls.obj
 0002:000026c4       ??_C@_1M@MFMOBGI@?$AAu?$AAk?$AA?9?$AAU?$AAA?$AA?$AA@ 1004e6c4     libcpmt:winapinls.obj
 0002:000026d0       ??_C@_1M@OBGLJIPL@?$AAb?$AAe?$AA?9?$AAB?$AAY?$AA?$AA@ 1004e6d0     libcpmt:winapinls.obj
 0002:000026dc       ??_C@_1M@BCFAJEAD@?$AAs?$AAl?$AA?9?$AAS?$AAI?$AA?$AA@ 1004e6dc     libcpmt:winapinls.obj
 0002:000026e8       ??_C@_1M@FKFFEDDN@?$AAe?$AAt?$AA?9?$AAE?$AAE?$AA?$AA@ 1004e6e8     libcpmt:winapinls.obj
 0002:000026f4       ??_C@_1M@KGKKAACI@?$AAl?$AAv?$AA?9?$AAL?$AAV?$AA?$AA@ 1004e6f4     libcpmt:winapinls.obj
 0002:00002700       ??_C@_1M@IFGBIJO@?$AAl?$AAt?$AA?9?$AAL?$AAT?$AA?$AA@ 1004e700     libcpmt:winapinls.obj
 0002:0000270c       ??_C@_1M@FGEAHEDM@?$AAf?$AAa?$AA?9?$AAI?$AAR?$AA?$AA@ 1004e70c     libcpmt:winapinls.obj
 0002:00002718       ??_C@_1M@KBMAIBFN@?$AAv?$AAi?$AA?9?$AAV?$AAN?$AA?$AA@ 1004e718     libcpmt:winapinls.obj
 0002:00002724       ??_C@_1M@GPCBKDJK@?$AAh?$AAy?$AA?9?$AAA?$AAM?$AA?$AA@ 1004e724     libcpmt:winapinls.obj
 0002:00002730       ??_C@_1BG@BECMDDJB@?$AAa?$AAz?$AA?9?$AAA?$AAZ?$AA?9?$AAL?$AAa?$AAt?$AAn?$AA?$AA@ 1004e730     libcpmt:winapinls.obj
 0002:00002748       ??_C@_1M@MAOFCAEA@?$AAe?$AAu?$AA?9?$AAE?$AAS?$AA?$AA@ 1004e748     libcpmt:winapinls.obj
 0002:00002754       ??_C@_1M@IGHABKPI@?$AAm?$AAk?$AA?9?$AAM?$AAK?$AA?$AA@ 1004e754     libcpmt:winapinls.obj
 0002:00002760       ??_C@_1M@IAIGNEJG@?$AAt?$AAn?$AA?9?$AAZ?$AAA?$AA?$AA@ 1004e760     libcpmt:winapinls.obj
 0002:0000276c       ??_C@_1M@IIJCOJFA@?$AAx?$AAh?$AA?9?$AAZ?$AAA?$AA?$AA@ 1004e76c     libcpmt:winapinls.obj
 0002:00002778       ??_C@_1M@LGPJHNJH@?$AAz?$AAu?$AA?9?$AAZ?$AAA?$AA?$AA@ 1004e778     libcpmt:winapinls.obj
 0002:00002784       ??_C@_1M@HOKAOIO@?$AAa?$AAf?$AA?9?$AAZ?$AAA?$AA?$AA@ 1004e784     libcpmt:winapinls.obj
 0002:00002790       ??_C@_1M@DPCLHLIE@?$AAk?$AAa?$AA?9?$AAG?$AAE?$AA?$AA@ 1004e790     libcpmt:winapinls.obj
 0002:0000279c       ??_C@_1M@BLKMHJBI@?$AAf?$AAo?$AA?9?$AAF?$AAO?$AA?$AA@ 1004e79c     libcpmt:winapinls.obj
 0002:000027a8       ??_C@_1M@LGGJAPPB@?$AAh?$AAi?$AA?9?$AAI?$AAN?$AA?$AA@ 1004e7a8     libcpmt:winapinls.obj
 0002:000027b4       ??_C@_1M@FIKPIHFE@?$AAm?$AAt?$AA?9?$AAM?$AAT?$AA?$AA@ 1004e7b4     libcpmt:winapinls.obj
 0002:000027c0       ??_C@_1M@HEGGPBFA@?$AAs?$AAe?$AA?9?$AAN?$AAO?$AA?$AA@ 1004e7c0     libcpmt:winapinls.obj
 0002:000027cc       ??_C@_1M@EIBJEEPA@?$AAm?$AAs?$AA?9?$AAM?$AAY?$AA?$AA@ 1004e7cc     libcpmt:winapinls.obj
 0002:000027d8       ??_C@_1M@FHLBGMPP@?$AAk?$AAk?$AA?9?$AAK?$AAZ?$AA?$AA@ 1004e7d8     libcpmt:winapinls.obj
 0002:000027e4       ??_C@_1M@NGJJLCGI@?$AAk?$AAy?$AA?9?$AAK?$AAG?$AA?$AA@ 1004e7e4     libcpmt:winapinls.obj
 0002:000027f0       ??_C@_1M@GIENNBFC@?$AAs?$AAw?$AA?9?$AAK?$AAE?$AA?$AA@ 1004e7f0     libcpmt:winapinls.obj
 0002:000027fc       ??_C@_1BG@NDGMJIMJ@?$AAu?$AAz?$AA?9?$AAU?$AAZ?$AA?9?$AAL?$AAa?$AAt?$AAn?$AA?$AA@ 1004e7fc     libcpmt:winapinls.obj
 0002:00002814       ??_C@_1M@IDCCIHBC@?$AAt?$AAt?$AA?9?$AAR?$AAU?$AA?$AA@ 1004e814     libcpmt:winapinls.obj
 0002:00002820       ??_C@_1M@LOICPMOJ@?$AAb?$AAn?$AA?9?$AAI?$AAN?$AA?$AA@ 1004e820     libcpmt:winapinls.obj
 0002:0000282c       ??_C@_1M@KPKKNEAH@?$AAp?$AAa?$AA?9?$AAI?$AAN?$AA?$AA@ 1004e82c     libcpmt:winapinls.obj
 0002:00002838       ??_C@_1M@PJGPPBOG@?$AAg?$AAu?$AA?9?$AAI?$AAN?$AA?$AA@ 1004e838     libcpmt:winapinls.obj
 0002:00002844       ??_C@_1M@KMKMOPHI@?$AAt?$AAa?$AA?9?$AAI?$AAN?$AA?$AA@ 1004e844     libcpmt:winapinls.obj
 0002:00002850       ??_C@_1M@KFEHEPAC@?$AAt?$AAe?$AA?9?$AAI?$AAN?$AA?$AA@ 1004e850     libcpmt:winapinls.obj
 0002:0000285c       ??_C@_1M@CDCLMGHI@?$AAk?$AAn?$AA?9?$AAI?$AAN?$AA?$AA@ 1004e85c     libcpmt:winapinls.obj
 0002:00002868       ??_C@_1M@MIODLDKF@?$AAm?$AAl?$AA?9?$AAI?$AAN?$AA?$AA@ 1004e868     libcpmt:winapinls.obj
 0002:00002874       ??_C@_1M@PBIEACPO@?$AAm?$AAr?$AA?9?$AAI?$AAN?$AA?$AA@ 1004e874     libcpmt:winapinls.obj
 0002:00002880       ??_C@_1M@NIDEAGPH@?$AAs?$AAa?$AA?9?$AAI?$AAN?$AA?$AA@ 1004e880     libcpmt:winapinls.obj
 0002:0000288c       ??_C@_1M@FHIHCBIO@?$AAm?$AAn?$AA?9?$AAM?$AAN?$AA?$AA@ 1004e88c     libcpmt:winapinls.obj
 0002:00002898       ??_C@_1M@JAIJPENP@?$AAc?$AAy?$AA?9?$AAG?$AAB?$AA?$AA@ 1004e898     libcpmt:winapinls.obj
 0002:000028a4       ??_C@_1M@PHGFBEPN@?$AAg?$AAl?$AA?9?$AAE?$AAS?$AA?$AA@ 1004e8a4     libcpmt:winapinls.obj
 0002:000028b0       ??_C@_1O@KPIPDNCP@?$AAk?$AAo?$AAk?$AA?9?$AAI?$AAN?$AA?$AA@ 1004e8b0     libcpmt:winapinls.obj
 0002:000028c0       ??_C@_1O@KNHJLDJA@?$AAs?$AAy?$AAr?$AA?9?$AAS?$AAY?$AA?$AA@ 1004e8c0     libcpmt:winapinls.obj
 0002:000028d0       ??_C@_1O@MKEKBLAH@?$AAd?$AAi?$AAv?$AA?9?$AAM?$AAV?$AA?$AA@ 1004e8d0     libcpmt:winapinls.obj
 0002:000028e0       ??_C@_1O@OHDCKDDF@?$AAq?$AAu?$AAz?$AA?9?$AAB?$AAO?$AA?$AA@ 1004e8e0     libcpmt:winapinls.obj
 0002:000028f0       ??_C@_1M@LEPJNLFD@?$AAn?$AAs?$AA?9?$AAZ?$AAA?$AA?$AA@ 1004e8f0     libcpmt:winapinls.obj
 0002:000028fc       ??_C@_1M@OMLEIIJB@?$AAm?$AAi?$AA?9?$AAN?$AAZ?$AA?$AA@ 1004e8fc     libcpmt:winapinls.obj
 0002:00002908       ??_C@_1M@PMPEAILG@?$AAa?$AAr?$AA?9?$AAI?$AAQ?$AA?$AA@ 1004e908     libcpmt:winapinls.obj
 0002:00002914       ??_C@_1M@BIBDDEMK@?$AAz?$AAh?$AA?9?$AAC?$AAN?$AA?$AA@ 1004e914     libcpmt:winapinls.obj
 0002:00002920       ??_C@_1M@CNKPNOEE@?$AAd?$AAe?$AA?9?$AAC?$AAH?$AA?$AA@ 1004e920     libcpmt:winapinls.obj
 0002:0000292c       ??_C@_1M@LKMGMLKO@?$AAe?$AAn?$AA?9?$AAG?$AAB?$AA?$AA@ 1004e92c     libcpmt:winapinls.obj
 0002:00002938       ??_C@_1M@PGKJFFGL@?$AAe?$AAs?$AA?9?$AAM?$AAX?$AA?$AA@ 1004e938     libcpmt:winapinls.obj
 0002:00002944       ??_C@_1M@DNNANBDC@?$AAf?$AAr?$AA?9?$AAB?$AAE?$AA?$AA@ 1004e944     libcpmt:winapinls.obj
 0002:00002950       ??_C@_1M@HLGMDFHM@?$AAi?$AAt?$AA?9?$AAC?$AAH?$AA?$AA@ 1004e950     libcpmt:winapinls.obj
 0002:0000295c       ??_C@_1M@CLLBGJH@?$AAn?$AAl?$AA?9?$AAB?$AAE?$AA?$AA@ 1004e95c     libcpmt:winapinls.obj
 0002:00002968       ??_C@_1M@BODBOGLF@?$AAn?$AAn?$AA?9?$AAN?$AAO?$AA?$AA@ 1004e968     libcpmt:winapinls.obj
 0002:00002974       ??_C@_1M@HFFAHKAD@?$AAp?$AAt?$AA?9?$AAP?$AAT?$AA?$AA@ 1004e974     libcpmt:winapinls.obj
 0002:00002980       ??_C@_1BG@LNOAKHIE@?$AAs?$AAr?$AA?9?$AAS?$AAP?$AA?9?$AAL?$AAa?$AAt?$AAn?$AA?$AA@ 1004e980     libcpmt:winapinls.obj
 0002:00002998       ??_C@_1M@HBMHBGAK@?$AAs?$AAv?$AA?9?$AAF?$AAI?$AA?$AA@ 1004e998     libcpmt:winapinls.obj
 0002:000029a4       ??_C@_1BG@DGCJGJBE@?$AAa?$AAz?$AA?9?$AAA?$AAZ?$AA?9?$AAC?$AAy?$AAr?$AAl?$AA?$AA@ 1004e9a4     libcpmt:winapinls.obj
 0002:000029bc       ??_C@_1M@KEJDAAHB@?$AAs?$AAe?$AA?9?$AAS?$AAE?$AA?$AA@ 1004e9bc     libcpmt:winapinls.obj
 0002:000029c8       ??_C@_1M@HEIBJJAD@?$AAm?$AAs?$AA?9?$AAB?$AAN?$AA?$AA@ 1004e9c8     libcpmt:winapinls.obj
 0002:000029d4       ??_C@_1BG@PBGJMCEM@?$AAu?$AAz?$AA?9?$AAU?$AAZ?$AA?9?$AAC?$AAy?$AAr?$AAl?$AA?$AA@ 1004e9d4     libcpmt:winapinls.obj
 0002:000029ec       ??_C@_1O@LAOBCMDF@?$AAq?$AAu?$AAz?$AA?9?$AAE?$AAC?$AA?$AA@ 1004e9ec     libcpmt:winapinls.obj
 0002:000029fc       ??_C@_1M@POEEMAIO@?$AAa?$AAr?$AA?9?$AAE?$AAG?$AA?$AA@ 1004e9fc     libcpmt:winapinls.obj
 0002:00002a08       ??_C@_1M@EFAKDEDL@?$AAz?$AAh?$AA?9?$AAH?$AAK?$AA?$AA@ 1004ea08     libcpmt:winapinls.obj
 0002:00002a14       ??_C@_1M@HKKIJHGI@?$AAd?$AAe?$AA?9?$AAA?$AAT?$AA?$AA@ 1004ea14     libcpmt:winapinls.obj
 0002:00002a20       ??_C@_1M@KBFBEHJF@?$AAe?$AAn?$AA?9?$AAA?$AAU?$AA?$AA@ 1004ea20     libcpmt:winapinls.obj
 0002:00002a2c       ??_C@_1M@MNPLFAAH@?$AAe?$AAs?$AA?9?$AAE?$AAS?$AA?$AA@ 1004ea2c     libcpmt:winapinls.obj
 0002:00002a38       ??_C@_1M@HJOOJFMA@?$AAf?$AAr?$AA?9?$AAC?$AAA?$AA?$AA@ 1004ea38     libcpmt:winapinls.obj
 0002:00002a44       ??_C@_1BG@JPOFPNAB@?$AAs?$AAr?$AA?9?$AAS?$AAP?$AA?9?$AAC?$AAy?$AAr?$AAl?$AA?$AA@ 1004ea44     libcpmt:winapinls.obj
 0002:00002a5c       ??_C@_1M@LNFOCMOB@?$AAs?$AAe?$AA?9?$AAF?$AAI?$AA?$AA@ 1004ea5c     libcpmt:winapinls.obj
 0002:00002a68       ??_C@_1O@MGJBOAMB@?$AAq?$AAu?$AAz?$AA?9?$AAP?$AAE?$AA?$AA@ 1004ea68     libcpmt:winapinls.obj
 0002:00002a78       ??_C@_1M@GJINLBOK@?$AAa?$AAr?$AA?9?$AAL?$AAY?$AA?$AA@ 1004ea78     libcpmt:winapinls.obj
 0002:00002a84       ??_C@_1M@GGMNHJNL@?$AAz?$AAh?$AA?9?$AAS?$AAG?$AA?$AA@ 1004ea84     libcpmt:winapinls.obj
 0002:00002a90       ??_C@_1M@HOIKODND@?$AAd?$AAe?$AA?9?$AAL?$AAU?$AA?$AA@ 1004ea90     libcpmt:winapinls.obj
 0002:00002a9c       ??_C@_1M@DDOCCGFG@?$AAe?$AAn?$AA?9?$AAC?$AAA?$AA?$AA@ 1004ea9c     libcpmt:winapinls.obj
 0002:00002aa8       ??_C@_1M@BNOEMJLF@?$AAe?$AAs?$AA?9?$AAG?$AAT?$AA?$AA@ 1004eaa8     libcpmt:winapinls.obj
 0002:00002ab4       ??_C@_1M@EOGNKEK@?$AAf?$AAr?$AA?9?$AAC?$AAH?$AA?$AA@ 1004eab4     libcpmt:winapinls.obj
 0002:00002ac0       ??_C@_1M@FLIDJFHL@?$AAh?$AAr?$AA?9?$AAB?$AAA?$AA?$AA@ 1004eac0     libcpmt:winapinls.obj
 0002:00002acc       ??_C@_1O@FMCELNAJ@?$AAs?$AAm?$AAj?$AA?9?$AAN?$AAO?$AA?$AA@ 1004eacc     libcpmt:winapinls.obj
 0002:00002adc       ??_C@_1M@JHGLJMGJ@?$AAa?$AAr?$AA?9?$AAD?$AAZ?$AA?$AA@ 1004eadc     libcpmt:winapinls.obj
 0002:00002ae8       ??_C@_1M@JKKFDCNP@?$AAz?$AAh?$AA?9?$AAM?$AAO?$AA?$AA@ 1004eae8     libcpmt:winapinls.obj
 0002:00002af4       ??_C@_1M@GEEFALPE@?$AAd?$AAe?$AA?9?$AAL?$AAI?$AA?$AA@ 1004eaf4     libcpmt:winapinls.obj
 0002:00002b00       ??_C@_1M@IGEOFBG@?$AAe?$AAn?$AA?9?$AAN?$AAZ?$AA?$AA@ 1004eb00     libcpmt:winapinls.obj
 0002:00002b0c       ??_C@_1M@KDBONEHP@?$AAe?$AAs?$AA?9?$AAC?$AAR?$AA?$AA@ 1004eb0c     libcpmt:winapinls.obj
 0002:00002b18       ??_C@_1M@FHMDOHNN@?$AAf?$AAr?$AA?9?$AAL?$AAU?$AA?$AA@ 1004eb18     libcpmt:winapinls.obj
 0002:00002b24       ??_C@_1BG@NFKKMAFG@?$AAb?$AAs?$AA?9?$AAB?$AAA?$AA?9?$AAL?$AAa?$AAt?$AAn?$AA?$AA@ 1004eb24     libcpmt:winapinls.obj
 0002:00002b3c       ??_C@_1O@IMNBEMCI@?$AAs?$AAm?$AAj?$AA?9?$AAS?$AAE?$AA?$AA@ 1004eb3c     libcpmt:winapinls.obj
 0002:00002b4c       ??_C@_1M@DHHMBNDP@?$AAa?$AAr?$AA?9?$AAM?$AAA?$AA?$AA@ 1004eb4c     libcpmt:winapinls.obj
 0002:00002b58       ??_C@_1M@BNBLJCGH@?$AAe?$AAn?$AA?9?$AAI?$AAE?$AA?$AA@ 1004eb58     libcpmt:winapinls.obj
 0002:00002b64       ??_C@_1M@GEPAFMDL@?$AAe?$AAs?$AA?9?$AAP?$AAA?$AA?$AA@ 1004eb64     libcpmt:winapinls.obj
 0002:00002b70       ??_C@_1M@OJONDMDL@?$AAf?$AAr?$AA?9?$AAM?$AAC?$AA?$AA@ 1004eb70     libcpmt:winapinls.obj
 0002:00002b7c       ??_C@_1BG@OBCNFJB@?$AAs?$AAr?$AA?9?$AAB?$AAA?$AA?9?$AAL?$AAa?$AAt?$AAn?$AA?$AA@ 1004eb7c     libcpmt:winapinls.obj
 0002:00002b94       ??_C@_1O@KEMEEGPO@?$AAs?$AAm?$AAa?$AA?9?$AAN?$AAO?$AA?$AA@ 1004eb94     libcpmt:winapinls.obj
 0002:00002ba4       ??_C@_1M@ELMGFODK@?$AAa?$AAr?$AA?9?$AAT?$AAN?$AA?$AA@ 1004eba4     libcpmt:winapinls.obj
 0002:00002bb0       ??_C@_1M@BHDLHFAF@?$AAe?$AAn?$AA?9?$AAZ?$AAA?$AA?$AA@ 1004ebb0     libcpmt:winapinls.obj
 0002:00002bbc       ??_C@_1M@BMGIGLIF@?$AAe?$AAs?$AA?9?$AAD?$AAO?$AA?$AA@ 1004ebbc     libcpmt:winapinls.obj
 0002:00002bc8       ??_C@_1BG@CMBHIPBE@?$AAs?$AAr?$AA?9?$AAB?$AAA?$AA?9?$AAC?$AAy?$AAr?$AAl?$AA?$AA@ 1004ebc8     libcpmt:winapinls.obj
 0002:00002be0       ??_C@_1O@HEDBLHNP@?$AAs?$AAm?$AAa?$AA?9?$AAS?$AAE?$AA?$AA@ 1004ebe0     libcpmt:winapinls.obj
 0002:00002bf0       ??_C@_1M@DAGCADIM@?$AAa?$AAr?$AA?9?$AAO?$AAM?$AA?$AA@ 1004ebf0     libcpmt:winapinls.obj
 0002:00002bfc       ??_C@_1M@FODLMICG@?$AAe?$AAn?$AA?9?$AAJ?$AAM?$AA?$AA@ 1004ebfc     libcpmt:winapinls.obj
 0002:00002c08       ??_C@_1M@DNMLCIHB@?$AAe?$AAs?$AA?9?$AAV?$AAE?$AA?$AA@ 1004ec08     libcpmt:winapinls.obj
 0002:00002c14       ??_C@_1O@EOKHMKJK@?$AAs?$AAm?$AAs?$AA?9?$AAF?$AAI?$AA?$AA@ 1004ec14     libcpmt:winapinls.obj
 0002:00002c24       ??_C@_1M@CAFJMKOF@?$AAa?$AAr?$AA?9?$AAY?$AAE?$AA?$AA@ 1004ec24     libcpmt:winapinls.obj
 0002:00002c30       ??_C@_1M@CBFHIJLI@?$AAe?$AAn?$AA?9?$AAC?$AAB?$AA?$AA@ 1004ec30     libcpmt:winapinls.obj
 0002:00002c3c       ??_C@_1M@BGNFLDN@?$AAe?$AAs?$AA?9?$AAC?$AAO?$AA?$AA@ 1004ec3c     libcpmt:winapinls.obj
 0002:00002c48       ??_C@_1O@JMPHMAMC@?$AAs?$AAm?$AAn?$AA?9?$AAF?$AAI?$AA?$AA@ 1004ec48     libcpmt:winapinls.obj
 0002:00002c58       ??_C@_1M@JLANABKE@?$AAa?$AAr?$AA?9?$AAS?$AAY?$AA?$AA@ 1004ec58     libcpmt:winapinls.obj
 0002:00002c64       ??_C@_1M@HPKGCFGN@?$AAe?$AAn?$AA?9?$AAB?$AAZ?$AA?$AA@ 1004ec64     libcpmt:winapinls.obj
 0002:00002c70       ??_C@_1M@OLJCMLGM@?$AAe?$AAs?$AA?9?$AAP?$AAE?$AA?$AA@ 1004ec70     libcpmt:winapinls.obj
 0002:00002c7c       ??_C@_1M@MKKGFKLE@?$AAa?$AAr?$AA?9?$AAJ?$AAO?$AA?$AA@ 1004ec7c     libcpmt:winapinls.obj
 0002:00002c88       ??_C@_1M@EKPGLDNI@?$AAe?$AAn?$AA?9?$AAT?$AAT?$AA?$AA@ 1004ec88     libcpmt:winapinls.obj
 0002:00002c94       ??_C@_1M@OONGHFHE@?$AAe?$AAs?$AA?9?$AAA?$AAR?$AA?$AA@ 1004ec94     libcpmt:winapinls.obj
 0002:00002ca0       ??_C@_1M@OOJFGBHE@?$AAa?$AAr?$AA?9?$AAL?$AAB?$AA?$AA@ 1004eca0     libcpmt:winapinls.obj
 0002:00002cac       ??_C@_1M@GCEJHNEG@?$AAe?$AAn?$AA?9?$AAZ?$AAW?$AA?$AA@ 1004ecac     libcpmt:winapinls.obj
 0002:00002cb8       ??_C@_1M@JNOCAHJI@?$AAe?$AAs?$AA?9?$AAE?$AAC?$AA?$AA@ 1004ecb8     libcpmt:winapinls.obj
 0002:00002cc4       ??_C@_1M@JEFHPGGB@?$AAa?$AAr?$AA?9?$AAK?$AAW?$AA?$AA@ 1004ecc4     libcpmt:winapinls.obj
 0002:00002cd0       ??_C@_1M@MLKIBJOJ@?$AAe?$AAn?$AA?9?$AAP?$AAH?$AA?$AA@ 1004ecd0     libcpmt:winapinls.obj
 0002:00002cdc       ??_C@_1M@BDNIPEND@?$AAe?$AAs?$AA?9?$AAC?$AAL?$AA?$AA@ 1004ecdc     libcpmt:winapinls.obj
 0002:00002ce8       ??_C@_1M@MPNMEKBD@?$AAa?$AAr?$AA?9?$AAA?$AAE?$AA?$AA@ 1004ece8     libcpmt:winapinls.obj
 0002:00002cf4       ??_C@_1M@KBJALCPI@?$AAe?$AAs?$AA?9?$AAU?$AAY?$AA?$AA@ 1004ecf4     libcpmt:winapinls.obj
 0002:00002d00       ??_C@_1M@LLCCOAGA@?$AAa?$AAr?$AA?9?$AAB?$AAH?$AA?$AA@ 1004ed00     libcpmt:winapinls.obj
 0002:00002d0c       ??_C@_1M@PBFNCDEL@?$AAe?$AAs?$AA?9?$AAP?$AAY?$AA?$AA@ 1004ed0c     libcpmt:winapinls.obj
 0002:00002d18       ??_C@_1M@EDGINPNP@?$AAa?$AAr?$AA?9?$AAQ?$AAA?$AA?$AA@ 1004ed18     libcpmt:winapinls.obj
 0002:00002d24       ??_C@_1M@MKDBIIJI@?$AAe?$AAs?$AA?9?$AAB?$AAO?$AA?$AA@ 1004ed24     libcpmt:winapinls.obj
 0002:00002d30       ??_C@_1M@CPKKEBLD@?$AAe?$AAs?$AA?9?$AAS?$AAV?$AA?$AA@ 1004ed30     libcpmt:winapinls.obj
 0002:00002d3c       ??_C@_1M@NDBGMMJL@?$AAe?$AAs?$AA?9?$AAH?$AAN?$AA?$AA@ 1004ed3c     libcpmt:winapinls.obj
 0002:00002d48       ??_C@_1M@JIJIBHDP@?$AAe?$AAs?$AA?9?$AAN?$AAI?$AA?$AA@ 1004ed48     libcpmt:winapinls.obj
 0002:00002d54       ??_C@_1M@CGFMKEEK@?$AAe?$AAs?$AA?9?$AAP?$AAR?$AA?$AA@ 1004ed54     libcpmt:winapinls.obj
 0002:00002d60       ??_C@_1O@ICJHKIIK@?$AAz?$AAh?$AA?9?$AAC?$AAH?$AAT?$AA?$AA@ 1004ed60     libcpmt:winapinls.obj
 0002:00002d70       ??_C@_15CLNEJCE@?$AAs?$AAr?$AA?$AA@ 1004ed70     libcpmt:winapinls.obj
 0002:00002d78       ??_C@_1M@KAHEKEIG@?$AAa?$AAf?$AA?9?$AAz?$AAa?$AA?$AA@ 1004ed78     libcpmt:winapinls.obj
 0002:00002d84       ??_C@_1M@GIECOABL@?$AAa?$AAr?$AA?9?$AAa?$AAe?$AA?$AA@ 1004ed84     libcpmt:winapinls.obj
 0002:00002d90       ??_C@_1M@BMLMEKGI@?$AAa?$AAr?$AA?9?$AAb?$AAh?$AA?$AA@ 1004ed90     libcpmt:winapinls.obj
 0002:00002d9c       ??_C@_1M@DAPFDGGB@?$AAa?$AAr?$AA?9?$AAd?$AAz?$AA?$AA@ 1004ed9c     libcpmt:winapinls.obj
 0002:00002da8       ??_C@_1M@FJNKGKIG@?$AAa?$AAr?$AA?9?$AAe?$AAg?$AA?$AA@ 1004eda8     libcpmt:winapinls.obj
 0002:00002db4       ??_C@_1M@FLGKKCLO@?$AAa?$AAr?$AA?9?$AAi?$AAq?$AA?$AA@ 1004edb4     libcpmt:winapinls.obj
 0002:00002dc0       ??_C@_1M@GNDIPALM@?$AAa?$AAr?$AA?9?$AAj?$AAo?$AA?$AA@ 1004edc0     libcpmt:winapinls.obj
 0002:00002dcc       ??_C@_1M@DDMJFMGJ@?$AAa?$AAr?$AA?9?$AAk?$AAw?$AA?$AA@ 1004edcc     libcpmt:winapinls.obj
 0002:00002dd8       ??_C@_1M@EJALMLHM@?$AAa?$AAr?$AA?9?$AAl?$AAb?$AA?$AA@ 1004edd8     libcpmt:winapinls.obj
 0002:00002de4       ??_C@_1M@MOBDBLOC@?$AAa?$AAr?$AA?9?$AAl?$AAy?$AA?$AA@ 1004ede4     libcpmt:winapinls.obj
 0002:00002df0       ??_C@_1M@JAOCLHDH@?$AAa?$AAr?$AA?9?$AAm?$AAa?$AA?$AA@ 1004edf0     libcpmt:winapinls.obj
 0002:00002dfc       ??_C@_1M@JHPMKJIE@?$AAa?$AAr?$AA?9?$AAo?$AAm?$AA?$AA@ 1004edfc     libcpmt:winapinls.obj
 0002:00002e08       ??_C@_1M@OEPGHFNH@?$AAa?$AAr?$AA?9?$AAq?$AAa?$AA?$AA@ 1004ee08     libcpmt:winapinls.obj
 0002:00002e14       ??_C@_1M@KJDONENM@?$AAa?$AAr?$AA?9?$AAs?$AAa?$AA?$AA@ 1004ee14     libcpmt:winapinls.obj
 0002:00002e20       ??_C@_1M@DMJDKLKM@?$AAa?$AAr?$AA?9?$AAs?$AAy?$AA?$AA@ 1004ee20     libcpmt:winapinls.obj
 0002:00002e2c       ??_C@_1M@OMFIPEDC@?$AAa?$AAr?$AA?9?$AAt?$AAn?$AA?$AA@ 1004ee2c     libcpmt:winapinls.obj
 0002:00002e38       ??_C@_1M@IHMHGAON@?$AAa?$AAr?$AA?9?$AAy?$AAe?$AA?$AA@ 1004ee38     libcpmt:winapinls.obj
 0002:00002e44       ??_C@_1BG@KDCPGJGB@?$AAa?$AAz?$AA?9?$AAa?$AAz?$AA?9?$AAc?$AAy?$AAr?$AAl?$AA?$AA@ 1004ee44     libcpmt:winapinls.obj
 0002:00002e5c       ??_C@_1BG@IBCKDDOE@?$AAa?$AAz?$AA?9?$AAa?$AAz?$AA?9?$AAl?$AAa?$AAt?$AAn?$AA?$AA@ 1004ee5c     libcpmt:winapinls.obj
 0002:00002e74       ??_C@_1M@EGPFDCPD@?$AAb?$AAe?$AA?9?$AAb?$AAy?$AA?$AA@ 1004ee74     libcpmt:winapinls.obj
 0002:00002e80       ??_C@_1M@PCMGMCGC@?$AAb?$AAg?$AA?9?$AAb?$AAg?$AA?$AA@ 1004ee80     libcpmt:winapinls.obj
 0002:00002e8c       ??_C@_1M@BJBMFGOB@?$AAb?$AAn?$AA?9?$AAi?$AAn?$AA?$AA@ 1004ee8c     libcpmt:winapinls.obj
 0002:00002e98       ??_C@_1BG@EAKMMACD@?$AAb?$AAs?$AA?9?$AAb?$AAa?$AA?9?$AAl?$AAa?$AAt?$AAn?$AA?$AA@ 1004ee98     libcpmt:winapinls.obj
 0002:00002eb0       ??_C@_1M@KGADAODK@?$AAc?$AAa?$AA?9?$AAe?$AAs?$AA?$AA@ 1004eeb0     libcpmt:winapinls.obj
 0002:00002ebc       ??_C@_1M@COAJPDHI@?$AAc?$AAs?$AA?9?$AAc?$AAz?$AA?$AA@ 1004eebc     libcpmt:winapinls.obj
 0002:00002ec8       ??_C@_1M@DHBHFONH@?$AAc?$AAy?$AA?9?$AAg?$AAb?$AA?$AA@ 1004eec8     libcpmt:winapinls.obj
 0002:00002ed4       ??_C@_1M@IMGKELGA@?$AAd?$AAa?$AA?9?$AAd?$AAk?$AA?$AA@ 1004eed4     libcpmt:winapinls.obj
 0002:00002ee0       ??_C@_1M@NNDGDNGA@?$AAd?$AAe?$AA?9?$AAa?$AAt?$AA?$AA@ 1004eee0     libcpmt:winapinls.obj
 0002:00002eec       ??_C@_1M@IKDBHEEM@?$AAd?$AAe?$AA?9?$AAc?$AAh?$AA?$AA@ 1004eeec     libcpmt:winapinls.obj
 0002:00002ef8       ??_C@_1M@GFFOJMCJ@?$AAd?$AAe?$AA?9?$AAd?$AAe?$AA?$AA@ 1004eef8     libcpmt:winapinls.obj
 0002:00002f04       ??_C@_1M@MDNLKBPM@?$AAd?$AAe?$AA?9?$AAl?$AAi?$AA?$AA@ 1004ef04     libcpmt:winapinls.obj
 0002:00002f10       ??_C@_1M@NJBEEJNL@?$AAd?$AAe?$AA?9?$AAl?$AAu?$AA?$AA@ 1004ef10     libcpmt:winapinls.obj
 0002:00002f1c       ??_C@_1O@GNNELBAP@?$AAd?$AAi?$AAv?$AA?9?$AAm?$AAv?$AA?$AA@ 1004ef1c     libcpmt:winapinls.obj
 0002:00002f2c       ??_C@_1M@EJLEOGAE@?$AAe?$AAl?$AA?9?$AAg?$AAr?$AA?$AA@ 1004ef2c     libcpmt:winapinls.obj
 0002:00002f38       ??_C@_1M@GMPONJN@?$AAe?$AAn?$AA?9?$AAa?$AAu?$AA?$AA@ 1004ef38     libcpmt:winapinls.obj
 0002:00002f44       ??_C@_1M@NIDIIPGF@?$AAe?$AAn?$AA?9?$AAb?$AAz?$AA?$AA@ 1004ef44     libcpmt:winapinls.obj
 0002:00002f50       ??_C@_1M@JEHMIMFO@?$AAe?$AAn?$AA?9?$AAc?$AAa?$AA?$AA@ 1004ef50     libcpmt:winapinls.obj
 0002:00002f5c       ??_C@_1M@IGMJCDLA@?$AAe?$AAn?$AA?9?$AAc?$AAb?$AA?$AA@ 1004ef5c     libcpmt:winapinls.obj
 0002:00002f68       ??_C@_1M@BNFIGBKG@?$AAe?$AAn?$AA?9?$AAg?$AAb?$AA?$AA@ 1004ef68     libcpmt:winapinls.obj
 0002:00002f74       ??_C@_1M@LKIFDIGP@?$AAe?$AAn?$AA?9?$AAi?$AAe?$AA?$AA@ 1004ef74     libcpmt:winapinls.obj
 0002:00002f80       ??_C@_1M@PJKFGCCO@?$AAe?$AAn?$AA?9?$AAj?$AAm?$AA?$AA@ 1004ef80     libcpmt:winapinls.obj
 0002:00002f8c       ??_C@_1M@KPPKEPBO@?$AAe?$AAn?$AA?9?$AAn?$AAz?$AA?$AA@ 1004ef8c     libcpmt:winapinls.obj
 0002:00002f98       ??_C@_1M@GMDGLDOB@?$AAe?$AAn?$AA?9?$AAp?$AAh?$AA?$AA@ 1004ef98     libcpmt:winapinls.obj
 0002:00002fa4       ??_C@_1M@ONGIBJNA@?$AAe?$AAn?$AA?9?$AAt?$AAt?$AA?$AA@ 1004efa4     libcpmt:winapinls.obj
 0002:00002fb0       ??_C@_1M@LLODPCMM@?$AAe?$AAn?$AA?9?$AAu?$AAs?$AA?$AA@ 1004efb0     libcpmt:winapinls.obj
 0002:00002fbc       ??_C@_1M@LAKFNPAN@?$AAe?$AAn?$AA?9?$AAz?$AAa?$AA?$AA@ 1004efbc     libcpmt:winapinls.obj
 0002:00002fc8       ??_C@_1M@MFNHNHEO@?$AAe?$AAn?$AA?9?$AAz?$AAw?$AA?$AA@ 1004efc8     libcpmt:winapinls.obj
 0002:00002fd4       ??_C@_1M@EJEINPHM@?$AAe?$AAs?$AA?9?$AAa?$AAr?$AA?$AA@ 1004efd4     libcpmt:winapinls.obj
 0002:00002fe0       ??_C@_1M@GNKPCCJA@?$AAe?$AAs?$AA?9?$AAb?$AAo?$AA?$AA@ 1004efe0     libcpmt:winapinls.obj
 0002:00002fec       ??_C@_1M@LEEGFONL@?$AAe?$AAs?$AA?9?$AAc?$AAl?$AA?$AA@ 1004efec     libcpmt:winapinls.obj
 0002:00002ff8       ??_C@_1M@KGPDPBDF@?$AAe?$AAs?$AA?9?$AAc?$AAo?$AA?$AA@ 1004eff8     libcpmt:winapinls.obj
 0002:00003004       ??_C@_1M@EIAHOHH@?$AAe?$AAs?$AA?9?$AAc?$AAr?$AA?$AA@ 1004f004     libcpmt:winapinls.obj
 0002:00003010       ??_C@_1M@LLPGMBIN@?$AAe?$AAs?$AA?9?$AAd?$AAo?$AA?$AA@ 1004f010     libcpmt:winapinls.obj
 0002:0000301c       ??_C@_1M@DKHMKNJA@?$AAe?$AAs?$AA?9?$AAe?$AAc?$AA?$AA@ 1004f01c     libcpmt:winapinls.obj
 0002:00003028       ??_C@_1M@GKGFPKAP@?$AAe?$AAs?$AA?9?$AAe?$AAs?$AA?$AA@ 1004f028     libcpmt:winapinls.obj
 0002:00003034       ??_C@_1M@LKHKGDLN@?$AAe?$AAs?$AA?9?$AAg?$AAt?$AA?$AA@ 1004f034     libcpmt:winapinls.obj
 0002:00003040       ??_C@_1M@HEIIGGJD@?$AAe?$AAs?$AA?9?$AAh?$AAn?$AA?$AA@ 1004f040     libcpmt:winapinls.obj
 0002:0000304c       ??_C@_1M@FBDHPPGD@?$AAe?$AAs?$AA?9?$AAm?$AAx?$AA?$AA@ 1004f04c     libcpmt:winapinls.obj
 0002:00003058       ??_C@_1M@DPAGLNDH@?$AAe?$AAs?$AA?9?$AAn?$AAi?$AA?$AA@ 1004f058     libcpmt:winapinls.obj
 0002:00003064       ??_C@_1M@MDGOPGDD@?$AAe?$AAs?$AA?9?$AAp?$AAa?$AA?$AA@ 1004f064     libcpmt:winapinls.obj
 0002:00003070       ??_C@_1M@EMAMGBGE@?$AAe?$AAs?$AA?9?$AAp?$AAe?$AA?$AA@ 1004f070     libcpmt:winapinls.obj
 0002:0000307c       ??_C@_1M@IBMCAOEC@?$AAe?$AAs?$AA?9?$AAp?$AAr?$AA?$AA@ 1004f07c     libcpmt:winapinls.obj
 0002:00003088       ??_C@_1M@FGMDIJED@?$AAe?$AAs?$AA?9?$AAp?$AAy?$AA?$AA@ 1004f088     libcpmt:winapinls.obj
 0002:00003094       ??_C@_1M@IIDEOLLL@?$AAe?$AAs?$AA?9?$AAs?$AAv?$AA?$AA@ 1004f094     libcpmt:winapinls.obj
 0002:000030a0       ??_C@_1M@GAOBIPA@?$AAe?$AAs?$AA?9?$AAu?$AAy?$AA?$AA@ 1004f0a0     libcpmt:winapinls.obj
 0002:000030ac       ??_C@_1M@JKFFICHJ@?$AAe?$AAs?$AA?9?$AAv?$AAe?$AA?$AA@ 1004f0ac     libcpmt:winapinls.obj
 0002:000030b8       ??_C@_1M@PNMLOJDF@?$AAe?$AAt?$AA?9?$AAe?$AAe?$AA?$AA@ 1004f0b8     libcpmt:winapinls.obj
 0002:000030c4       ??_C@_1M@GHHLIKEI@?$AAe?$AAu?$AA?9?$AAe?$AAs?$AA?$AA@ 1004f0c4     libcpmt:winapinls.obj
 0002:000030d0       ??_C@_1M@PBNONODE@?$AAf?$AAa?$AA?9?$AAi?$AAr?$AA?$AA@ 1004f0d0     libcpmt:winapinls.obj
 0002:000030dc       ??_C@_1M@JEEHPMIL@?$AAf?$AAi?$AA?9?$AAf?$AAi?$AA?$AA@ 1004f0dc     libcpmt:winapinls.obj
 0002:000030e8       ??_C@_1M@LMDCNDBA@?$AAf?$AAo?$AA?9?$AAf?$AAo?$AA?$AA@ 1004f0e8     libcpmt:winapinls.obj
 0002:000030f4       ??_C@_1M@JKEOHLDK@?$AAf?$AAr?$AA?9?$AAb?$AAe?$AA?$AA@ 1004f0f4     libcpmt:winapinls.obj
 0002:00003100       ??_C@_1M@NOHADPMI@?$AAf?$AAr?$AA?9?$AAc?$AAa?$AA?$AA@ 1004f100     libcpmt:winapinls.obj
 0002:0000310c       ??_C@_1M@KDHIHAEC@?$AAf?$AAr?$AA?9?$AAc?$AAh?$AA?$AA@ 1004f10c     libcpmt:winapinls.obj
 0002:00003118       ??_C@_1M@MMBBFGAK@?$AAf?$AAr?$AA?9?$AAf?$AAr?$AA?$AA@ 1004f118     libcpmt:winapinls.obj
 0002:00003124       ??_C@_1M@PAFNENNF@?$AAf?$AAr?$AA?9?$AAl?$AAu?$AA?$AA@ 1004f124     libcpmt:winapinls.obj
 0002:00003130       ??_C@_1M@EOHDJGDD@?$AAf?$AAr?$AA?9?$AAm?$AAc?$AA?$AA@ 1004f130     libcpmt:winapinls.obj
 0002:0000313c       ??_C@_1M@FAPLLOPF@?$AAg?$AAl?$AA?9?$AAe?$AAs?$AA?$AA@ 1004f13c     libcpmt:winapinls.obj
 0002:00003148       ??_C@_1M@FOPBFLOO@?$AAg?$AAu?$AA?9?$AAi?$AAn?$AA?$AA@ 1004f148     libcpmt:winapinls.obj
 0002:00003154       ??_C@_1M@KBMCINPM@?$AAh?$AAe?$AA?9?$AAi?$AAl?$AA?$AA@ 1004f154     libcpmt:winapinls.obj
 0002:00003160       ??_C@_1M@BBPHKFPJ@?$AAh?$AAi?$AA?9?$AAi?$AAn?$AA?$AA@ 1004f160     libcpmt:winapinls.obj
 0002:0000316c       ??_C@_1M@PMBNDPHD@?$AAh?$AAr?$AA?9?$AAb?$AAa?$AA?$AA@ 1004f16c     libcpmt:winapinls.obj
 0002:00003178       ??_C@_1M@BPCKOEGE@?$AAh?$AAr?$AA?9?$AAh?$AAr?$AA?$AA@ 1004f178     libcpmt:winapinls.obj
 0002:00003184       ??_C@_1M@GACBMHKE@?$AAh?$AAu?$AA?9?$AAh?$AAu?$AA?$AA@ 1004f184     libcpmt:winapinls.obj
 0002:00003190       ??_C@_1M@MILPAJJC@?$AAh?$AAy?$AA?9?$AAa?$AAm?$AA?$AA@ 1004f190     libcpmt:winapinls.obj
 0002:0000319c       ??_C@_1M@BABBICEC@?$AAi?$AAd?$AA?9?$AAi?$AAd?$AA?$AA@ 1004f19c     libcpmt:winapinls.obj
 0002:000031a8       ??_C@_1M@BIKNHHPF@?$AAi?$AAs?$AA?9?$AAi?$AAs?$AA?$AA@ 1004f1a8     libcpmt:winapinls.obj
 0002:000031b4       ??_C@_1M@NMPCJPHE@?$AAi?$AAt?$AA?9?$AAc?$AAh?$AA?$AA@ 1004f1b4     libcpmt:winapinls.obj
 0002:000031c0       ??_C@_1M@GHKGFEDF@?$AAi?$AAt?$AA?9?$AAi?$AAt?$AA?$AA@ 1004f1c0     libcpmt:winapinls.obj
 0002:000031cc       ??_C@_1M@NIEJCJJA@?$AAj?$AAa?$AA?9?$AAj?$AAp?$AA?$AA@ 1004f1cc     libcpmt:winapinls.obj
 0002:000031d8       ??_C@_1M@JILFNBIM@?$AAk?$AAa?$AA?9?$AAg?$AAe?$AA?$AA@ 1004f1d8     libcpmt:winapinls.obj
 0002:000031e4       ??_C@_1M@PACPMGPH@?$AAk?$AAk?$AA?9?$AAk?$AAz?$AA?$AA@ 1004f1e4     libcpmt:winapinls.obj
 0002:000031f0       ??_C@_1M@IELFGMHA@?$AAk?$AAn?$AA?9?$AAi?$AAn?$AA?$AA@ 1004f1f0     libcpmt:winapinls.obj
 0002:000031fc       ??_C@_1M@DMHAEOGC@?$AAk?$AAo?$AA?9?$AAk?$AAr?$AA?$AA@ 1004f1fc     libcpmt:winapinls.obj
 0002:00003208       ??_C@_1O@IBBJHCH@?$AAk?$AAo?$AAk?$AA?9?$AAi?$AAn?$AA?$AA@ 1004f208     libcpmt:winapinls.obj
 0002:00003218       ??_C@_1M@HBAHBIGA@?$AAk?$AAy?$AA?9?$AAk?$AAg?$AA?$AA@ 1004f218     libcpmt:winapinls.obj
 0002:00003224       ??_C@_1M@KPMILCJG@?$AAl?$AAt?$AA?9?$AAl?$AAt?$AA?$AA@ 1004f224     libcpmt:winapinls.obj
 0002:00003230       ??_C@_1M@BDEKKCA@?$AAl?$AAv?$AA?9?$AAl?$AAv?$AA?$AA@ 1004f230     libcpmt:winapinls.obj
 0002:0000323c       ??_C@_1M@ELCKCCJJ@?$AAm?$AAi?$AA?9?$AAn?$AAz?$AA?$AA@ 1004f23c     libcpmt:winapinls.obj
 0002:00003248       ??_C@_1M@CBOOLAPA@?$AAm?$AAk?$AA?9?$AAm?$AAk?$AA?$AA@ 1004f248     libcpmt:winapinls.obj
 0002:00003254       ??_C@_1M@GPHNBJKN@?$AAm?$AAl?$AA?9?$AAi?$AAn?$AA?$AA@ 1004f254     libcpmt:winapinls.obj
 0002:00003260       ??_C@_1M@PABJILIG@?$AAm?$AAn?$AA?9?$AAm?$AAn?$AA?$AA@ 1004f260     libcpmt:winapinls.obj
 0002:0000326c       ??_C@_1M@FGBKKIPG@?$AAm?$AAr?$AA?9?$AAi?$AAn?$AA?$AA@ 1004f26c     libcpmt:winapinls.obj
 0002:00003278       ??_C@_1M@NDBPDDAL@?$AAm?$AAs?$AA?9?$AAb?$AAn?$AA?$AA@ 1004f278     libcpmt:winapinls.obj
 0002:00003284       ??_C@_1M@OPIHOOPI@?$AAm?$AAs?$AA?9?$AAm?$AAy?$AA?$AA@ 1004f284     libcpmt:winapinls.obj
 0002:00003290       ??_C@_1M@PPDBCNFM@?$AAm?$AAt?$AA?9?$AAm?$AAt?$AA?$AA@ 1004f290     libcpmt:winapinls.obj
 0002:0000329c       ??_C@_1M@KDJDKMDD@?$AAn?$AAb?$AA?9?$AAn?$AAo?$AA?$AA@ 1004f29c     libcpmt:winapinls.obj
 0002:000032a8       ??_C@_1M@KFCFLMJP@?$AAn?$AAl?$AA?9?$AAb?$AAe?$AA?$AA@ 1004f2a8     libcpmt:winapinls.obj
 0002:000032b4       ??_C@_1M@KPOPDDGO@?$AAn?$AAl?$AA?9?$AAn?$AAl?$AA?$AA@ 1004f2b4     libcpmt:winapinls.obj
 0002:000032c0       ??_C@_1M@LJKPEMLN@?$AAn?$AAn?$AA?9?$AAn?$AAo?$AA?$AA@ 1004f2c0     libcpmt:winapinls.obj
 0002:000032cc       ??_C@_1M@BDGHHBFL@?$AAn?$AAs?$AA?9?$AAz?$AAa?$AA?$AA@ 1004f2cc     libcpmt:winapinls.obj
 0002:000032d8       ??_C@_1M@IDEHOAP@?$AAp?$AAa?$AA?9?$AAi?$AAn?$AA?$AA@ 1004f2d8     libcpmt:winapinls.obj
 0002:000032e4       ??_C@_1M@HDBKGOGH@?$AAp?$AAl?$AA?9?$AAp?$AAl?$AA?$AA@ 1004f2e4     libcpmt:winapinls.obj
 0002:000032f0       ??_C@_1M@LJLLCMEH@?$AAp?$AAt?$AA?9?$AAb?$AAr?$AA?$AA@ 1004f2f0     libcpmt:winapinls.obj
 0002:000032fc       ??_C@_1M@NCMONAAL@?$AAp?$AAt?$AA?9?$AAp?$AAt?$AA?$AA@ 1004f2fc     libcpmt:winapinls.obj
 0002:00003308       ??_C@_1O@EAKMAJDN@?$AAq?$AAu?$AAz?$AA?9?$AAb?$AAo?$AA?$AA@ 1004f308     libcpmt:winapinls.obj
 0002:00003318       ??_C@_1O@BHHPIGDN@?$AAq?$AAu?$AAz?$AA?9?$AAe?$AAc?$AA?$AA@ 1004f318     libcpmt:winapinls.obj
 0002:00003328       ??_C@_1O@GBAPEKMJ@?$AAq?$AAu?$AAz?$AA?9?$AAp?$AAe?$AA?$AA@ 1004f328     libcpmt:winapinls.obj
 0002:00003338       ??_C@_1M@CLGLEFBO@?$AAr?$AAo?$AA?9?$AAr?$AAo?$AA?$AA@ 1004f338     libcpmt:winapinls.obj
 0002:00003344       ??_C@_1M@CEEDODME@?$AAr?$AAu?$AA?9?$AAr?$AAu?$AA?$AA@ 1004f344     libcpmt:winapinls.obj
 0002:00003350       ??_C@_1M@HPKKKMPP@?$AAs?$AAa?$AA?9?$AAi?$AAn?$AA?$AA@ 1004f350     libcpmt:winapinls.obj
 0002:0000335c       ??_C@_1M@BKMAIGOJ@?$AAs?$AAe?$AA?9?$AAf?$AAi?$AA?$AA@ 1004f35c     libcpmt:winapinls.obj
 0002:00003368       ??_C@_1M@NDPIFLFI@?$AAs?$AAe?$AA?9?$AAn?$AAo?$AA?$AA@ 1004f368     libcpmt:winapinls.obj
 0002:00003374       ??_C@_1M@DANKKHJ@?$AAs?$AAe?$AA?9?$AAs?$AAe?$AA?$AA@ 1004f374     libcpmt:winapinls.obj
 0002:00003380       ??_C@_1M@PNBLONPJ@?$AAs?$AAk?$AA?9?$AAs?$AAk?$AA?$AA@ 1004f380     libcpmt:winapinls.obj
 0002:0000338c       ??_C@_1M@LFMODOAL@?$AAs?$AAl?$AA?9?$AAs?$AAi?$AA?$AA@ 1004f38c     libcpmt:winapinls.obj
 0002:00003398       ??_C@_1O@DFKOMPG@?$AAs?$AAm?$AAa?$AA?9?$AAn?$AAo?$AA?$AA@ 1004f398     libcpmt:winapinls.obj
 0002:000033a8       ??_C@_1O@NDKPBNNH@?$AAs?$AAm?$AAa?$AA?9?$AAs?$AAe?$AA?$AA@ 1004f3a8     libcpmt:winapinls.obj
 0002:000033b8       ??_C@_1O@PLLKBHAB@?$AAs?$AAm?$AAj?$AA?9?$AAn?$AAo?$AA?$AA@ 1004f3b8     libcpmt:winapinls.obj
 0002:000033c8       ??_C@_1O@CLEPOGCA@?$AAs?$AAm?$AAj?$AA?9?$AAs?$AAe?$AA?$AA@ 1004f3c8     libcpmt:winapinls.obj
 0002:000033d8       ??_C@_1O@DLGJGKMK@?$AAs?$AAm?$AAn?$AA?9?$AAf?$AAi?$AA?$AA@ 1004f3d8     libcpmt:winapinls.obj
 0002:000033e8       ??_C@_1O@OJDJGAJC@?$AAs?$AAm?$AAs?$AA?9?$AAf?$AAi?$AA?$AA@ 1004f3e8     libcpmt:winapinls.obj
 0002:000033f8       ??_C@_1M@BOFOGHPB@?$AAs?$AAq?$AA?9?$AAa?$AAl?$AA?$AA@ 1004f3f8     libcpmt:winapinls.obj
 0002:00003404       ??_C@_1BG@LJBBIPGB@?$AAs?$AAr?$AA?9?$AAb?$AAa?$AA?9?$AAc?$AAy?$AAr?$AAl?$AA?$AA@ 1004f404     libcpmt:winapinls.obj
 0002:0000341c       ??_C@_1BG@JLBENFOE@?$AAs?$AAr?$AA?9?$AAb?$AAa?$AA?9?$AAl?$AAa?$AAt?$AAn?$AA?$AA@ 1004f41c     libcpmt:winapinls.obj
 0002:00003434       ??_C@_1BG@KODPNHE@?$AAs?$AAr?$AA?9?$AAs?$AAp?$AA?9?$AAc?$AAy?$AAr?$AAl?$AA?$AA@ 1004f434     libcpmt:winapinls.obj
 0002:0000344c       ??_C@_1BG@CIOGKHPB@?$AAs?$AAr?$AA?9?$AAs?$AAp?$AA?9?$AAl?$AAa?$AAt?$AAn?$AA?$AA@ 1004f44c     libcpmt:winapinls.obj
 0002:00003464       ??_C@_1M@NGFJLMAC@?$AAs?$AAv?$AA?9?$AAf?$AAi?$AA?$AA@ 1004f464     libcpmt:winapinls.obj
 0002:00003470       ??_C@_1M@MPJEJAJC@?$AAs?$AAv?$AA?9?$AAs?$AAe?$AA?$AA@ 1004f470     libcpmt:winapinls.obj
 0002:0000347c       ??_C@_1M@MPNDHLFK@?$AAs?$AAw?$AA?9?$AAk?$AAe?$AA?$AA@ 1004f47c     libcpmt:winapinls.obj
 0002:00003488       ??_C@_1O@KOHBJJI@?$AAs?$AAy?$AAr?$AA?9?$AAs?$AAy?$AA?$AA@ 1004f488     libcpmt:winapinls.obj
 0002:00003498       ??_C@_1M@LDCEFHA@?$AAt?$AAa?$AA?9?$AAi?$AAn?$AA?$AA@ 1004f498     libcpmt:winapinls.obj
 0002:000034a4       ??_C@_1M@CNJOFAK@?$AAt?$AAe?$AA?9?$AAi?$AAn?$AA?$AA@ 1004f4a4     libcpmt:winapinls.obj
 0002:000034b0       ??_C@_1M@GNAECACD@?$AAt?$AAh?$AA?9?$AAt?$AAh?$AA?$AA@ 1004f4b0     libcpmt:winapinls.obj
 0002:000034bc       ??_C@_1M@CHBIHOJO@?$AAt?$AAn?$AA?9?$AAz?$AAa?$AA?$AA@ 1004f4bc     libcpmt:winapinls.obj
 0002:000034c8       ??_C@_1M@GCCMIGPJ@?$AAt?$AAr?$AA?9?$AAt?$AAr?$AA?$AA@ 1004f4c8     libcpmt:winapinls.obj
 0002:000034d4       ??_C@_1M@CELMCNBK@?$AAt?$AAt?$AA?9?$AAr?$AAu?$AA?$AA@ 1004f4d4     libcpmt:winapinls.obj
 0002:000034e0       ??_C@_1M@KLMCELGA@?$AAu?$AAk?$AA?9?$AAu?$AAa?$AA?$AA@ 1004f4e0     libcpmt:winapinls.obj
 0002:000034ec       ??_C@_1M@EPAJJAJF@?$AAu?$AAr?$AA?9?$AAp?$AAk?$AA?$AA@ 1004f4ec     libcpmt:winapinls.obj
 0002:000034f8       ??_C@_1BG@GEGPMCDJ@?$AAu?$AAz?$AA?9?$AAu?$AAz?$AA?9?$AAc?$AAy?$AAr?$AAl?$AA?$AA@ 1004f4f8     libcpmt:winapinls.obj
 0002:00003510       ??_C@_1BG@EGGKJILM@?$AAu?$AAz?$AA?9?$AAu?$AAz?$AA?9?$AAl?$AAa?$AAt?$AAn?$AA?$AA@ 1004f510     libcpmt:winapinls.obj
 0002:00003528       ??_C@_1M@GFOCLFF@?$AAv?$AAi?$AA?9?$AAv?$AAn?$AA?$AA@ 1004f528     libcpmt:winapinls.obj
 0002:00003534       ??_C@_1M@CPAMEDFI@?$AAx?$AAh?$AA?9?$AAz?$AAa?$AA?$AA@ 1004f534     libcpmt:winapinls.obj
 0002:00003540       ??_C@_1O@EBKIFIGN@?$AAz?$AAh?$AA?9?$AAc?$AAh?$AAs?$AA?$AA@ 1004f540     libcpmt:winapinls.obj
 0002:00003550       ??_C@_1O@NMHPGANE@?$AAz?$AAh?$AA?9?$AAc?$AAh?$AAt?$AA?$AA@ 1004f550     libcpmt:winapinls.obj
 0002:00003560       ??_C@_1M@LPINJOMC@?$AAz?$AAh?$AA?9?$AAc?$AAn?$AA?$AA@ 1004f560     libcpmt:winapinls.obj
 0002:0000356c       ??_C@_1M@OCJEJODD@?$AAz?$AAh?$AA?9?$AAh?$AAk?$AA?$AA@ 1004f56c     libcpmt:winapinls.obj
 0002:00003578       ??_C@_1M@DNDLJINH@?$AAz?$AAh?$AA?9?$AAm?$AAo?$AA?$AA@ 1004f578     libcpmt:winapinls.obj
 0002:00003584       ??_C@_1M@MBFDNDND@?$AAz?$AAh?$AA?9?$AAs?$AAg?$AA?$AA@ 1004f584     libcpmt:winapinls.obj
 0002:00003590       ??_C@_1M@IMEPLEPE@?$AAz?$AAh?$AA?9?$AAt?$AAw?$AA?$AA@ 1004f590     libcpmt:winapinls.obj
 0002:0000359c       ??_C@_1M@BBGHNHJP@?$AAz?$AAu?$AA?9?$AAz?$AAa?$AA?$AA@ 1004f59c     libcpmt:winapinls.obj
 0002:000035ac       ??_7type_info@@6B@         1004f5ac     LIBCMT:std_type_info_static.obj
 0002:000035b0       __pRawDllMain              1004f5b0     LIBCMT:dll_dllmain.obj
 0002:000035b0       __pDefaultRawDllMain       1004f5b0     LIBCMT:dll_dllmain.obj
 0002:000035c0       ??_7bad_array_new_length@std@@6B@ 1004f5c0     LIBCMT:throw_bad_alloc.obj
 0002:000035c8       ??_C@_0BF@KINCDENJ@bad?5array?5new?5length?$AA@ 1004f5c8     LIBCMT:throw_bad_alloc.obj
 0002:000035e4       ??_7improper_lock@Concurrency@@6B@ 1004f5e4     libconcrt:rtlocks.obj
 0002:000035ec       ??_C@_0BD@BAGHDICJ@Lock?5already?5taken?$AA@ 1004f5ec     libconcrt:rtlocks.obj
 0002:00003604       ??_7scheduler_resource_allocation_error@Concurrency@@6B@ 1004f604     libconcrt:Platform.obj
 0002:0000360c       ??_C@_0BH@CJPDKMEB@SetThreadGroupAffinity?$AA@ 1004f60c     libconcrt:Platform.obj
 0002:00003624       ??_C@_0BH@CINNILJO@GetThreadGroupAffinity?$AA@ 1004f624     libconcrt:Platform.obj
 0002:0000363c       ??_C@_0BM@JLHMEGJA@GetCurrentProcessorNumberEx?$AA@ 1004f63c     libconcrt:Platform.obj
 0002:00003658       ??_C@_0CB@HOJBBPPI@GetLogicalProcessorInformationEx@ 1004f658     libconcrt:Platform.obj
 0002:00003680       ??_7scheduler_worker_creation_error@Concurrency@@6B@ 1004f680     libconcrt:Exceptions.obj
 0002:0000368c       ??_7unsupported_os@Concurrency@@6B@ 1004f68c     libconcrt:Exceptions.obj
 0002:00003698       ??_7improper_scheduler_attach@Concurrency@@6B@ 1004f698     libconcrt:Exceptions.obj
 0002:000036a4       ??_7improper_scheduler_reference@Concurrency@@6B@ 1004f6a4     libconcrt:Exceptions.obj
 0002:000036b0       ??_7context_unblock_unbalanced@Concurrency@@6B@ 1004f6b0     libconcrt:Exceptions.obj
 0002:000036bc       ??_7context_self_unblock@Concurrency@@6B@ 1004f6bc     libconcrt:Exceptions.obj
 0002:000036c8       ??_7missing_wait@Concurrency@@6B@ 1004f6c8     libconcrt:Exceptions.obj
 0002:000036d4       ??_7invalid_scheduler_policy_key@Concurrency@@6B@ 1004f6d4     libconcrt:Exceptions.obj
 0002:000036e0       ??_7invalid_scheduler_policy_value@Concurrency@@6B@ 1004f6e0     libconcrt:Exceptions.obj
 0002:000036ec       ??_7invalid_scheduler_policy_thread_specification@Concurrency@@6B@ 1004f6ec     libconcrt:Exceptions.obj
 0002:000036f8       ??_7nested_scheduler_missing_detach@Concurrency@@6B@ 1004f6f8     libconcrt:Exceptions.obj
 0002:00003704       ??_7invalid_oversubscribe_operation@Concurrency@@6B@ 1004f704     libconcrt:Exceptions.obj
 0002:00003710       ??_7invalid_operation@Concurrency@@6B@ 1004f710     libconcrt:ResourceManager.obj
 0002:0000371c       ??_7TopologyObject@GlobalCore@details@Concurrency@@6B@ 1004f71c     libconcrt:ResourceManager.obj
 0002:00003728       ??_7TopologyObject@GlobalNode@details@Concurrency@@6B@ 1004f728     libconcrt:ResourceManager.obj
 0002:00003740       ??_7ResourceManager@details@Concurrency@@6B@ 1004f740     libconcrt:ResourceManager.obj
 0002:00003758       ??_C@_05IOMEMJEC@count?$AA@ 1004f758     libconcrt:ResourceManager.obj
 0002:00003760       ??_C@_0L@HKFDMHB@pScheduler?$AA@ 1004f760     libconcrt:ResourceManager.obj
 0002:0000376c       ??_C@_07CPCPJPKL@version?$AA@ 1004f76c     libconcrt:ResourceManager.obj
 0002:00003778       __real@3e7ad7f29abcaf48    1004f778     libconcrt:ResourceManager.obj
 0002:00003780       __real@41f0000000000000    1004f780     libconcrt:ResourceManager.obj
 0002:00003788       ?s_maxExternalAllocators@SchedulerBase@details@Concurrency@@0HB 1004f788     libconcrt:SchedulerBase.obj
 0002:0000378c       ?s_allocatorFreePoolLimit@SchedulerBase@details@Concurrency@@0HB 1004f78c     libconcrt:SchedulerBase.obj
 0002:00003794       ??_7ScheduleGroup@Concurrency@@6B@ 1004f794     libconcrt:SchedulerBase.obj
 0002:000037ac       ??_7Scheduler@Concurrency@@6B@ 1004f7ac     libconcrt:SchedulerBase.obj
 0002:000037e4       ??_7_Chore@details@Concurrency@@6B@ 1004f7e4     libconcrt:SchedulerBase.obj
 0002:000037ec       ??_7RealizedChore@details@Concurrency@@6B@ 1004f7ec     libconcrt:SchedulerBase.obj
 0002:000037f4       ??_7SchedulerBase@details@Concurrency@@6B@ 1004f7f4     libconcrt:SchedulerBase.obj
 0002:00003858       ??_7CacheLocalScheduleGroupSegment@details@Concurrency@@6B@ 1004f858     libconcrt:SchedulerBase.obj
 0002:0000386c       ??_7CacheLocalScheduleGroup@details@Concurrency@@6B@ 1004f86c     libconcrt:SchedulerBase.obj
 0002:00003898       ??_7FairScheduleGroupSegment@details@Concurrency@@6B@ 1004f898     libconcrt:SchedulerBase.obj
 0002:000038ac       ??_7FairScheduleGroup@details@Concurrency@@6B@ 1004f8ac     libconcrt:SchedulerBase.obj
 0002:000038d4       ??_C@_0M@IAPOLKMH@eventObject?$AA@ 1004f8d4     libconcrt:SchedulerBase.obj
 0002:000038e0       ??_C@_0BI@PMOAFEOC@ppVirtualProcessorRoots?$AA@ 1004f8e0     libconcrt:SchedulerBase.obj
 0002:000038fc       ??_7WaitBlock@details@Concurrency@@6B@ 1004f8fc     libconcrt:event.obj
 0002:00003914       ??_7SingleWaitBlock@details@Concurrency@@6B@ 1004f914     libconcrt:event.obj
 0002:0000392c       ??_7MultiWaitBlock@details@Concurrency@@6B@ 1004f92c     libconcrt:event.obj
 0002:00003948       ??_7WaitAllBlock@details@Concurrency@@6B@ 1004f948     libconcrt:event.obj
 0002:00003964       ??_7WaitAnyBlock@details@Concurrency@@6B@ 1004f964     libconcrt:event.obj
 0002:00003980       ??_7TimedSingleWaitBlock@details@Concurrency@@6B@ 1004f980     libconcrt:event.obj
 0002:00003998       ??_7?$_MallocaArrayHolder@PAVContext@Concurrency@@@details@Concurrency@@6B@ 1004f998     libconcrt:event.obj
 0002:0000399c       ??_C@_07CAAEJHLA@pEvents?$AA@ 1004f99c     libconcrt:event.obj
 0002:000039a8       ??_7Context@Concurrency@@6B@ 1004f9a8     libconcrt:ContextBase.obj
 0002:000039c4       ??_7ContextBase@details@Concurrency@@6B@ 1004f9c4     libconcrt:ContextBase.obj
 0002:00003a10       ?_Upper@?1??_Memory_order_upper_bound@std@@YA?AW4memory_order@2@W432@0@Z@4QAY05$$CBW432@A 1004fa10     libconcrt:TaskCollection.obj
 0002:00003aa4       ??_7_Interruption_exception@details@Concurrency@@6B@ 1004faa4     libconcrt:TaskCollection.obj
 0002:00003ab0       ??_7_RefCounter@details@Concurrency@@6B@ 1004fab0     libconcrt:TaskCollection.obj
 0002:00003abc       ??_7_CancellationTokenRegistration@details@Concurrency@@6B@ 1004fabc     libconcrt:TaskCollection.obj
 0002:00003acc       ??_7CancellationTokenRegistration_TaskProc@details@Concurrency@@6B@ 1004facc     libconcrt:TaskCollection.obj
 0002:00003adc       ??_7?$_MallocaArrayHolder@PAVevent@Concurrency@@@details@Concurrency@@6B@ 1004fadc     libconcrt:TaskCollection.obj
 0002:00003ae0       ??_C@_0O@JJAHDPNG@SchedulerKind?$AA@ 1004fae0     libconcrt:SchedulerPolicyBase.obj
 0002:00003af0       ??_C@_0P@CGAHIHHE@MaxConcurrency?$AA@ 1004faf0     libconcrt:SchedulerPolicyBase.obj
 0002:00003b00       ??_C@_0P@BLMOAEF@MinConcurrency?$AA@ 1004fb00     libconcrt:SchedulerPolicyBase.obj
 0002:00003b10       ??_C@_0BN@GKPFKNNF@TargetOversubscriptionFactor?$AA@ 1004fb10     libconcrt:SchedulerPolicyBase.obj
 0002:00003b30       ??_C@_0BG@PCMPEOIE@LocalContextCacheSize?$AA@ 1004fb30     libconcrt:SchedulerPolicyBase.obj
 0002:00003b48       ??_C@_0BB@OPLJNNNB@ContextStackSize?$AA@ 1004fb48     libconcrt:SchedulerPolicyBase.obj
 0002:00003b5c       ??_C@_0BA@CHGPFLBM@ContextPriority?$AA@ 1004fb5c     libconcrt:SchedulerPolicyBase.obj
 0002:00003b6c       ??_C@_0BD@HMLGOEAM@SchedulingProtocol?$AA@ 1004fb6c     libconcrt:SchedulerPolicyBase.obj
 0002:00003b80       ??_C@_0BI@PEDMDBKL@DynamicProgressFeedback?$AA@ 1004fb80     libconcrt:SchedulerPolicyBase.obj
 0002:00003b98       ??_C@_0BE@EBKJEJDK@WinRTInitialization?$AA@ 1004fb98     libconcrt:SchedulerPolicyBase.obj
 0002:00003bac       ??_C@_0BE@OJPKBKLL@MaxPolicyElementKey?$AA@ 1004fbac     libconcrt:SchedulerPolicyBase.obj
 0002:00003bc4       ??_7ExecutionResource@details@Concurrency@@6B@ 1004fbc4     libconcrt:ExecutionResource.obj
 0002:00003bd8       __real@3f1a36e2eb1c432d    1004fbd8     libconcrt:HillClimbing.obj
 0002:00003be0       __real@3f70624dd2f1a9fc    1004fbe0     libconcrt:HillClimbing.obj
 0002:00003be8       __real@3fc3333333333333    1004fbe8     libconcrt:HillClimbing.obj
 0002:00003bf0       __real@bff0000000000000    1004fbf0     libconcrt:HillClimbing.obj
 0002:00003bfc       ??_7SchedulerProxy@details@Concurrency@@6B@ 1004fbfc     libconcrt:SchedulerProxy.obj
 0002:00003c24       ??_C@_08BAFMHLII@pContext?$AA@ 1004fc24     libconcrt:SchedulerProxy.obj
 0002:00003c30       ??_C@_0BD@HOFLOOHM@pExecutionResource?$AA@ 1004fc30     libconcrt:SchedulerProxy.obj
 0002:00003c44       ??_C@_1BI@IDAOOPDH@?$AAc?$AAo?$AAm?$AAb?$AAa?$AAs?$AAe?$AA?4?$AAd?$AAl?$AAl?$AA?$AA@ 1004fc44     libconcrt:WinRTWrapper.obj
 0002:00003c5c       ??_C@_0N@PPOMPGGK@RoInitialize?$AA@ 1004fc5c     libconcrt:WinRTWrapper.obj
 0002:00003c6c       ??_C@_0P@LLFHBIJD@RoUninitialize?$AA@ 1004fc6c     libconcrt:WinRTWrapper.obj
 0002:00003c80       ??_7FreeThreadProxy@details@Concurrency@@6B@ 1004fc80     libconcrt:ThreadProxyFactoryManager.obj
 0002:00003c9c       ??_7IThreadProxyFactory@details@Concurrency@@6B@ 1004fc9c     libconcrt:ThreadProxyFactoryManager.obj
 0002:00003cb4       ?s_proxyStackSize@?$ThreadProxyFactory@VFreeThreadProxy@details@Concurrency@@@details@Concurrency@@1QBIB 1004fcb4     libconcrt:ThreadProxyFactoryManager.obj
 0002:00003cc8       ??_7?$ThreadProxyFactory@VFreeThreadProxy@details@Concurrency@@@details@Concurrency@@6B@ 1004fcc8     libconcrt:ThreadProxyFactoryManager.obj
 0002:00003cf4       ??_7FreeThreadProxyFactory@details@Concurrency@@6B@ 1004fcf4     libconcrt:ThreadProxyFactoryManager.obj
 0002:00003d1c       ?ConcRT_ProviderGuid@Concurrency@@3U_GUID@@B 1004fd1c     libconcrt:Trace.obj
 0002:00003d2c       ?ConcRTEventGuid@Concurrency@@3U_GUID@@B 1004fd2c     libconcrt:Trace.obj
 0002:00003d3c       ?SchedulerEventGuid@Concurrency@@3U_GUID@@B 1004fd3c     libconcrt:Trace.obj
 0002:00003d4c       ?ScheduleGroupEventGuid@Concurrency@@3U_GUID@@B 1004fd4c     libconcrt:Trace.obj
 0002:00003d5c       ?ContextEventGuid@Concurrency@@3U_GUID@@B 1004fd5c     libconcrt:Trace.obj
 0002:00003d6c       ?ChoreEventGuid@Concurrency@@3U_GUID@@B 1004fd6c     libconcrt:Trace.obj
 0002:00003d7c       ?VirtualProcessorEventGuid@Concurrency@@3U_GUID@@B 1004fd7c     libconcrt:Trace.obj
 0002:00003d8c       ?LockEventGuid@Concurrency@@3U_GUID@@B 1004fd8c     libconcrt:Trace.obj
 0002:00003d9c       ?ResourceManagerEventGuid@Concurrency@@3U_GUID@@B 1004fd9c     libconcrt:Trace.obj
 0002:00003dac       ?PPLParallelInvokeEventGuid@Concurrency@@3U_GUID@@B 1004fdac     libconcrt:Trace.obj
 0002:00003dbc       ?PPLParallelForEventGuid@Concurrency@@3U_GUID@@B 1004fdbc     libconcrt:Trace.obj
 0002:00003dcc       ?PPLParallelForeachEventGuid@Concurrency@@3U_GUID@@B 1004fdcc     libconcrt:Trace.obj
 0002:00003ddc       ?AgentEventGuid@Concurrency@@3U_GUID@@B 1004fddc     libconcrt:Trace.obj
 0002:00003dec       ??_C@_1BK@JHLNAEJL@?$AAa?$AAd?$AAv?$AAa?$AAp?$AAi?$AA3?$AA2?$AA?4?$AAd?$AAl?$AAl?$AA?$AA@ 1004fdec     libconcrt:Trace.obj
 0002:00003e08       ??_C@_0BE@FKJMGMF@RegisterTraceGuidsW?$AA@ 1004fe08     libconcrt:Trace.obj
 0002:00003e1c       ??_C@_0BF@OFMMALCC@UnregisterTraceGuids?$AA@ 1004fe1c     libconcrt:Trace.obj
 0002:00003e34       ??_C@_0L@EOLEDHLE@TraceEvent?$AA@ 1004fe34     libconcrt:Trace.obj
 0002:00003e40       ??_C@_0BF@OFCGPMKL@GetTraceLoggerHandle?$AA@ 1004fe40     libconcrt:Trace.obj
 0002:00003e58       ??_C@_0BE@JCHMKLLJ@GetTraceEnableLevel?$AA@ 1004fe58     libconcrt:Trace.obj
 0002:00003e6c       ??_C@_0BE@DNOHFPHI@GetTraceEnableFlags?$AA@ 1004fe6c     libconcrt:Trace.obj
 0002:00003e84       ??_7VirtualProcessor@details@Concurrency@@6B@ 1004fe84     libconcrt:VirtualProcessor.obj
 0002:00003ea8       ?s_bucketSizes@SubAllocator@details@Concurrency@@0QBHB 1004fea8     libconcrt:SubAllocator.obj
 0002:00004028       ?GranularityShift@SubAllocator@details@Concurrency@@0HB 10050028     libconcrt:SubAllocator.obj
 0002:0000402c       ?MaxAllocationSize@SubAllocator@details@Concurrency@@0HB 1005002c     libconcrt:SubAllocator.obj
 0002:00004034       ??_7IExecutionContext@Concurrency@@6B@ 10050034     libconcrt:InternalContextBase.obj
 0002:0000404c       ??_7InternalContextBase@details@Concurrency@@6BIExecutionContext@2@@ 1005004c     libconcrt:InternalContextBase.obj
 0002:00004074       ??_7InternalContextBase@details@Concurrency@@6BContextBase@12@@ 10050074     libconcrt:InternalContextBase.obj
 0002:000040bc       ??_C@_0N@FACDCNDA@pThreadProxy?$AA@ 100500bc     libconcrt:InternalContextBase.obj
 0002:000040d0       ??_7ScheduleGroupSegmentBase@details@Concurrency@@6B@ 100500d0     libconcrt:ScheduleGroupBase.obj
 0002:000040e4       ??_7ScheduleGroupBase@details@Concurrency@@6B@ 100500e4     libconcrt:ScheduleGroupBase.obj
 0002:0000410c       ??_C@_04MGCDEED@proc?$AA@  1005010c     libconcrt:ScheduleGroupBase.obj
 0002:00004118       ??_7ExternalContextBase@details@Concurrency@@6B@ 10050118     libconcrt:ExternalContextBase.obj
 0002:00004164       ??_7IScheduler@Concurrency@@6B@ 10050164     libconcrt:ThreadScheduler.obj
 0002:00004184       ??_7ThreadInternalContext@details@Concurrency@@6BIExecutionContext@2@@ 10050184     libconcrt:ThreadScheduler.obj
 0002:000041ac       ??_7ThreadInternalContext@details@Concurrency@@6BContextBase@12@@ 100501ac     libconcrt:ThreadScheduler.obj
 0002:000041f8       ??_7ThreadScheduler@details@Concurrency@@6BIScheduler@2@@ 100501f8     libconcrt:ThreadScheduler.obj
 0002:00004218       ??_7ThreadScheduler@details@Concurrency@@6BSchedulerBase@12@@ 10050218     libconcrt:ThreadScheduler.obj
 0002:0000427c       ??_7VirtualProcessorRoot@details@Concurrency@@6B@ 1005027c     libconcrt:VirtualProcessorRoot.obj
 0002:000042a8       ??_7FreeVirtualProcessorRoot@details@Concurrency@@6B@ 100502a8     libconcrt:FreeVirtualProcessorRoot.obj
 0002:000042d0       ??_C@_0M@CIMHMGAD@switchState?$AA@ 100502d0     libconcrt:FreeThreadProxy.obj
 0002:000042e0       ??_7ThreadProxy@details@Concurrency@@6B@ 100502e0     libconcrt:ThreadProxy.obj
 0002:000042fc       ??_7ThreadVirtualProcessor@details@Concurrency@@6B@ 100502fc     libconcrt:ThreadVirtualProcessor.obj
 0002:00004340       __pDestructExceptionObject 10050340     libvcruntime:frame.obj
 0002:00004348       ??_7bad_exception@std@@6B@ 10050348     libvcruntime:frame.obj
 0002:00004350       ??_C@_0O@DPKOEFFH@bad?5exception?$AA@ 10050350     libvcruntime:frame.obj
 0002:00004370       ??_C@_1BC@DNHGCMLG@?$AAa?$AAd?$AAv?$AAa?$AAp?$AAi?$AA3?$AA2?$AA?$AA@ 10050370     libvcruntime:winapi_downlevel.obj
 0002:00004384       ??_C@_1DM@KHCHBNEB@?$AAa?$AAp?$AAi?$AA?9?$AAm?$AAs?$AA?9?$AAw?$AAi?$AAn?$AA?9?$AAc?$AAo?$AAr?$AAe?$AA?9?$AAf?$AAi?$AAb?$AAe?$AAr?$AAs?$AA?9?$AAl?$AA1?$AA?9?$AA1?$AA?9?$AA1?$AA?$AA@ 10050384     libvcruntime:winapi_downlevel.obj
 0002:000043c0       ??_C@_1DK@LPPGFMPP@?$AAa?$AAp?$AAi?$AA?9?$AAm?$AAs?$AA?9?$AAw?$AAi?$AAn?$AA?9?$AAc?$AAo?$AAr?$AAe?$AA?9?$AAs?$AAy?$AAn?$AAc?$AAh?$AA?9?$AAl?$AA1?$AA?9?$AA2?$AA?9?$AA0?$AA?$AA@ 100503c0     libvcruntime:winapi_downlevel.obj
 0002:000043fc       ??_C@_1BC@GDMECMAK@?$AAk?$AAe?$AAr?$AAn?$AAe?$AAl?$AA3?$AA2?$AA?$AA@ 100503fc     libvcruntime:winapi_downlevel.obj
 0002:0000443c       ??_7bad_typeid@std@@6B@    1005043c     libvcruntime:rtti.obj
 0002:00004448       ??_7__non_rtti_object@std@@6B@ 10050448     libvcruntime:rtti.obj
 0002:00004450       ??_C@_0CB@CGKGGDFI@Access?5violation?5?9?5no?5RTTI?5data?$CB@ 10050450     libvcruntime:rtti.obj
 0002:00004474       ??_C@_0BC@JNJNLHBP@Bad?5dynamic_cast?$CB?$AA@ 10050474     libvcruntime:rtti.obj
 0002:00004618       ??_C@_08EHJDFFNH@__based?$CI?$AA@ 10050618     libvcruntime:undname.obj
 0002:00004624       ??_C@_07KOLFKCDI@__cdecl?$AA@ 10050624     libvcruntime:undname.obj
 0002:0000462c       ??_C@_08GHMPAG@__pascal?$AA@ 1005062c     libvcruntime:undname.obj
 0002:00004638       ??_C@_09IFJBGAPI@__stdcall?$AA@ 10050638     libvcruntime:undname.obj
 0002:00004644       ??_C@_0L@NPHFGOKO@__thiscall?$AA@ 10050644     libvcruntime:undname.obj
 0002:00004650       ??_C@_0L@JMKHOMEK@__fastcall?$AA@ 10050650     libvcruntime:undname.obj
 0002:0000465c       ??_C@_0N@BCKKPABJ@__vectorcall?$AA@ 1005065c     libvcruntime:undname.obj
 0002:0000466c       ??_C@_09HIJEGCPM@__clrcall?$AA@ 1005066c     libvcruntime:undname.obj
 0002:00004678       ??_C@_06GHPCKEAG@__eabi?$AA@ 10050678     libvcruntime:undname.obj
 0002:00004680       ??_C@_07JOMMBBKO@__ptr64?$AA@ 10050680     libvcruntime:undname.obj
 0002:00004688       ??_C@_0L@PILCLIHE@__restrict?$AA@ 10050688     libvcruntime:undname.obj
 0002:00004694       ??_C@_0M@GFIIJFMG@__unaligned?$AA@ 10050694     libvcruntime:undname.obj
 0002:000046a0       ??_C@_09DHDLOLLB@restrict?$CI?$AA@ 100506a0     libvcruntime:undname.obj
 0002:000046ac       ??_C@_04NIHEBCM@?5new?$AA@ 100506ac     libvcruntime:undname.obj
 0002:000046b4       ??_C@_07FPCDHGMM@?5delete?$AA@ 100506b4     libvcruntime:undname.obj
 0002:000046bc       ??_C@_01NEMOKFLO@?$DN?$AA@ 100506bc     libvcruntime:undname.obj
 0002:000046c0       ??_C@_02GPIOPFAK@?$DO?$DO?$AA@ 100506c0     libvcruntime:undname.obj
 0002:000046c4       ??_C@_02FODMEDOG@?$DM?$DM?$AA@ 100506c4     libvcruntime:undname.obj
 0002:000046c8       ??_C@_01DCLJPIOD@?$CB?$AA@ 100506c8     libvcruntime:undname.obj
 0002:000046cc       ??_C@_02EGOFBIJA@?$DN?$DN?$AA@ 100506cc     libvcruntime:undname.obj
 0002:000046d0       ??_C@_02FDNJECIE@?$CB?$DN?$AA@ 100506d0     libvcruntime:undname.obj
 0002:000046d4       ??_C@_02GPECMEKF@?$FL?$FN?$AA@ 100506d4     libvcruntime:undname.obj
 0002:000046d8       ??_C@_08LHJFAFGD@operator?$AA@ 100506d8     libvcruntime:undname.obj
 0002:000046e4       ??_C@_02HBOOOICD@?9?$DO?$AA@ 100506e4     libvcruntime:undname.obj
 0002:000046e8       ??_C@_02ECNGHCIF@?$CL?$CL?$AA@ 100506e8     libvcruntime:undname.obj
 0002:000046ec       ??_C@_02BAABKJLB@?9?9?$AA@ 100506ec     libvcruntime:undname.obj
 0002:000046f0       ??_C@_01MIFGBAGJ@?$CL?$AA@ 100506f0     libvcruntime:undname.obj
 0002:000046f4       ??_C@_01HNPIGOCE@?$CG?$AA@ 100506f4     libvcruntime:undname.obj
 0002:000046f8       ??_C@_03MNHNFDLC@?9?$DO?$CK?$AA@ 100506f8     libvcruntime:undname.obj
 0002:000046fc       ??_C@_01KMDKNFGN@?1?$AA@   100506fc     libvcruntime:undname.obj
 0002:00004700       ??_C@_01FGNFDNOH@?$CF?$AA@ 10050700     libvcruntime:undname.obj
 0002:00004704       ??_C@_01MNNFJEPP@?$DM?$AA@ 10050704     libvcruntime:undname.obj
 0002:00004708       ??_C@_02EHCHHCKH@?$DM?$DN?$AA@ 10050708     libvcruntime:undname.obj
 0002:0000470c       ??_C@_01PPODPGHN@?$DO?$AA@ 1005070c     libvcruntime:undname.obj
 0002:00004710       ??_C@_02EEKDKGMJ@?$DO?$DN?$AA@ 10050710     libvcruntime:undname.obj
 0002:00004714       ??_C@_01IHBHIGKO@?0?$AA@   10050714     libvcruntime:undname.obj
 0002:00004718       ??_C@_02HCKGKOFO@?$CI?$CJ?$AA@ 10050718     libvcruntime:undname.obj
 0002:0000471c       ??_C@_01PJKLJHI@?$HO?$AA@  1005071c     libvcruntime:undname.obj
 0002:00004720       ??_C@_01JKBOJNNK@?$FO?$AA@ 10050720     libvcruntime:undname.obj
 0002:00004724       ??_C@_01DNKMNLPK@?$HM?$AA@ 10050724     libvcruntime:undname.obj
 0002:00004728       ??_C@_02PPKAJPJL@?$CG?$CG?$AA@ 10050728     libvcruntime:undname.obj
 0002:0000472c       ??_C@_02NONPIBCD@?$HM?$HM?$AA@ 1005072c     libvcruntime:undname.obj
 0002:00004730       ??_C@_02FPIMKNGF@?$CK?$DN?$AA@ 10050730     libvcruntime:undname.obj
 0002:00004734       ??_C@_02FOEOMHFC@?$CL?$DN?$AA@ 10050734     libvcruntime:undname.obj
 0002:00004738       ??_C@_02FKMDLLOA@?9?$DN?$AA@ 10050738     libvcruntime:undname.obj
 0002:0000473c       ??_C@_02FJEHGPIO@?1?$DN?$AA@ 1005073c     libvcruntime:undname.obj
 0002:00004740       ??_C@_02FENAOKFI@?$CF?$DN?$AA@ 10050740     libvcruntime:undname.obj
 0002:00004744       ??_C@_03IKFCCPFF@?$DO?$DO?$DN?$AA@ 10050744     libvcruntime:undname.obj
 0002:00004748       ??_C@_03CDNPDDLA@?$DM?$DM?$DN?$AA@ 10050748     libvcruntime:undname.obj
 0002:0000474c       ??_C@_02FGJGFEAB@?$CG?$DN?$AA@ 1005074c     libvcruntime:undname.obj
 0002:00004750       ??_C@_02DHLNPPGH@?$HM?$DN?$AA@ 10050750     libvcruntime:undname.obj
 0002:00004754       ??_C@_02MHEGNOJ@?$FO?$DN?$AA@ 10050754     libvcruntime:undname.obj
 0002:00004758       ??_C@_09IFPLHPGF@?$GAvftable?8?$AA@ 10050758     libvcruntime:undname.obj
 0002:00004764       ??_C@_09BLBHBJP@?$GAvbtable?8?$AA@ 10050764     libvcruntime:undname.obj
 0002:00004770       ??_C@_07FEEIOKP@?$GAvcall?8?$AA@ 10050770     libvcruntime:undname.obj
 0002:00004778       ??_C@_08LLFFHHDJ@?$GAtypeof?8?$AA@ 10050778     libvcruntime:undname.obj
 0002:00004784       ??_C@_0BF@KDPPACIK@?$GAlocal?5static?5guard?8?$AA@ 10050784     libvcruntime:undname.obj
 0002:0000479c       ??_C@_08OBABFOLI@?$GAstring?8?$AA@ 1005079c     libvcruntime:undname.obj
 0002:000047a8       ??_C@_0BD@JDLKDPAB@?$GAvbase?5destructor?8?$AA@ 100507a8     libvcruntime:undname.obj
 0002:000047bc       ??_C@_0BN@DEGPLNFK@?$GAvector?5deleting?5destructor?8?$AA@ 100507bc     libvcruntime:undname.obj
 0002:000047dc       ??_C@_0BO@OBMKPJIG@?$GAdefault?5constructor?5closure?8?$AA@ 100507dc     libvcruntime:undname.obj
 0002:000047fc       ??_C@_0BN@IMDCHIKM@?$GAscalar?5deleting?5destructor?8?$AA@ 100507fc     libvcruntime:undname.obj
 0002:0000481c       ??_C@_0BO@PFGOCPJJ@?$GAvector?5constructor?5iterator?8?$AA@ 1005081c     libvcruntime:undname.obj
 0002:0000483c       ??_C@_0BN@LFPFMEDL@?$GAvector?5destructor?5iterator?8?$AA@ 1005083c     libvcruntime:undname.obj
 0002:0000485c       ??_C@_0CE@IKBNEHA@?$GAvector?5vbase?5constructor?5iterat@ 1005085c     libvcruntime:undname.obj
 0002:00004880       ??_C@_0BL@NILFHHPC@?$GAvirtual?5displacement?5map?8?$AA@ 10050880     libvcruntime:undname.obj
 0002:0000489c       ??_C@_0CB@JONCMFFK@?$GAeh?5vector?5constructor?5iterator?8@ 1005089c     libvcruntime:undname.obj
 0002:000048c0       ??_C@_0CA@GCEOPDGL@?$GAeh?5vector?5destructor?5iterator?8?$AA@ 100508c0     libvcruntime:undname.obj
 0002:000048e0       ??_C@_0CH@OOJPLCPH@?$GAeh?5vector?5vbase?5constructor?5ite@ 100508e0     libvcruntime:undname.obj
 0002:00004908       ??_C@_0BL@LLKPOHJI@?$GAcopy?5constructor?5closure?8?$AA@ 10050908     libvcruntime:undname.obj
 0002:00004924       ??_C@_0BA@KBCDOMBN@?$GAudt?5returning?8?$AA@ 10050924     libvcruntime:undname.obj
 0002:00004934       ??_C@_03KLGMFNMG@?$GAEH?$AA@ 10050934     libvcruntime:undname.obj
 0002:00004938       ??_C@_05KHLCHHI@?$GARTTI?$AA@ 10050938     libvcruntime:undname.obj
 0002:00004940       ??_C@_0BA@KKLDJDLB@?$GAlocal?5vftable?8?$AA@ 10050940     libvcruntime:undname.obj
 0002:00004950       ??_C@_0CE@IIHCMGGL@?$GAlocal?5vftable?5constructor?5closu@ 10050950     libvcruntime:undname.obj
 0002:00004974       ??_C@_06FHBGPFGH@?5new?$FL?$FN?$AA@ 10050974     libvcruntime:undname.obj
 0002:0000497c       ??_C@_09LBNFPBCA@?5delete?$FL?$FN?$AA@ 1005097c     libvcruntime:undname.obj
 0002:00004988       ??_C@_0P@HJKNJFNN@?$GAomni?5callsig?8?$AA@ 10050988     libvcruntime:undname.obj
 0002:00004998       ??_C@_0BL@CNOONJFP@?$GAplacement?5delete?5closure?8?$AA@ 10050998     libvcruntime:undname.obj
 0002:000049b4       ??_C@_0BN@CKNJLHMB@?$GAplacement?5delete?$FL?$FN?5closure?8?$AA@ 100509b4     libvcruntime:undname.obj
 0002:000049d4       ??_C@_0CG@CFDHKGGD@?$GAmanaged?5vector?5constructor?5iter@ 100509d4     libvcruntime:undname.obj
 0002:000049fc       ??_C@_0CF@IMGKMJNO@?$GAmanaged?5vector?5destructor?5itera@ 100509fc     libvcruntime:undname.obj
 0002:00004a24       ??_C@_0CG@HLDDJMAG@?$GAeh?5vector?5copy?5constructor?5iter@ 10050a24     libvcruntime:undname.obj
 0002:00004a4c       ??_C@_0CM@FCBBDIGB@?$GAeh?5vector?5vbase?5copy?5constructo@ 10050a4c     libvcruntime:undname.obj
 0002:00004a78       ??_C@_0BL@CLIPGLGB@?$GAdynamic?5initializer?5for?5?8?$AA@ 10050a78     libvcruntime:undname.obj
 0002:00004a94       ??_C@_0CB@PDBIFEP@?$GAdynamic?5atexit?5destructor?5for?5?8@ 10050a94     libvcruntime:undname.obj
 0002:00004ab8       ??_C@_0CD@CGAJBKEJ@?$GAvector?5copy?5constructor?5iterato@ 10050ab8     libvcruntime:undname.obj
 0002:00004adc       ??_C@_0CJ@GJELGAMM@?$GAvector?5vbase?5copy?5constructor?5i@ 10050adc     libvcruntime:undname.obj
 0002:00004b08       ??_C@_0CL@FGIJHLCE@?$GAmanaged?5vector?5copy?5constructor@ 10050b08     libvcruntime:undname.obj
 0002:00004b34       ??_C@_0BM@PMGGMLDN@?$GAlocal?5static?5thread?5guard?8?$AA@ 10050b34     libvcruntime:undname.obj
 0002:00004b50       ??_C@_0N@BDNMDMOL@operator?5?$CC?$CC?5?$AA@ 10050b50     libvcruntime:undname.obj
 0002:00004b60       ??_C@_0BC@DAFEJGAK@?5Type?5Descriptor?8?$AA@ 10050b60     libvcruntime:undname.obj
 0002:00004b74       ??_C@_0BM@LDKODKLH@?5Base?5Class?5Descriptor?5at?5?$CI?$AA@ 10050b74     libvcruntime:undname.obj
 0002:00004b90       ??_C@_0BD@LGICGFMM@?5Base?5Class?5Array?8?$AA@ 10050b90     libvcruntime:undname.obj
 0002:00004ba4       ??_C@_0BN@MECKDCOJ@?5Class?5Hierarchy?5Descriptor?8?$AA@ 10050ba4     libvcruntime:undname.obj
 0002:00004bc4       ??_C@_0BK@CFCOFLF@?5Complete?5Object?5Locator?8?$AA@ 10050bc4     libvcruntime:undname.obj
 0002:00004be0       ??_C@_1EK@MBDPDCGA@?$AAM?$AAi?$AAc?$AAr?$AAo?$AAs?$AAo?$AAf?$AAt?$AA?5?$AAV?$AAi?$AAs?$AAu?$AAa?$AAl?$AA?5?$AAC?$AA?$CL?$AA?$CL?$AA?5?$AAR?$AAu?$AAn?$AAt?$AAi?$AAm?$AAe?$AA?5?$AAL?$AAi?$AAb@ 10050be0     libucrt:assert.obj
 0002:00004c30       ??_C@_1FE@LHBLIKM@?$AAA?$AAs?$AAs?$AAe?$AAr?$AAt?$AAi?$AAo?$AAn?$AA?5?$AAf?$AAa?$AAi?$AAl?$AAe?$AAd?$AA?3?$AA?5?$AA?$CF?$AAT?$AAs?$AA?0?$AA?5?$AAf?$AAi?$AAl?$AAe?$AA?5?$AA?$CF?$AAT?$AAs?$AA?0@ 10050c30     libucrt:assert.obj
 0002:00004c84       ??_C@_1CE@OJBNHDMO@?$AAA?$AAs?$AAs?$AAe?$AAr?$AAt?$AAi?$AAo?$AAn?$AA?5?$AAf?$AAa?$AAi?$AAl?$AAe?$AAd?$AA?$CB?$AA?$AA@ 10050c84     libucrt:assert.obj
 0002:00004ca8       ??_C@_1BE@PHKBBGE@?$AAP?$AAr?$AAo?$AAg?$AAr?$AAa?$AAm?$AA?3?$AA?5?$AA?$AA@ 10050ca8     libucrt:assert.obj
 0002:00004cbc       ??_C@_1O@HEMHKNDC@?$AAF?$AAi?$AAl?$AAe?$AA?3?$AA?5?$AA?$AA@ 10050cbc     libucrt:assert.obj
 0002:00004ccc       ??_C@_1O@KCAFKHJE@?$AAL?$AAi?$AAn?$AAe?$AA?3?$AA?5?$AA?$AA@ 10050ccc     libucrt:assert.obj
 0002:00004cdc       ??_C@_1BK@PEDCIPMA@?$AAE?$AAx?$AAp?$AAr?$AAe?$AAs?$AAs?$AAi?$AAo?$AAn?$AA?3?$AA?5?$AA?$AA@ 10050cdc     libucrt:assert.obj
 0002:00004cf8       ??_C@_1OA@EGMLFBHJ@?$AAF?$AAo?$AAr?$AA?5?$AAi?$AAn?$AAf?$AAo?$AAr?$AAm?$AAa?$AAt?$AAi?$AAo?$AAn?$AA?5?$AAo?$AAn?$AA?5?$AAh?$AAo?$AAw?$AA?5?$AAy?$AAo?$AAu?$AAr?$AA?5?$AAp?$AAr?$AAo?$AAg@ 10050cf8     libucrt:assert.obj
 0002:00004dd8       ??_C@_1HK@POCJMFGK@?$AA?$CI?$AAP?$AAr?$AAe?$AAs?$AAs?$AA?5?$AAR?$AAe?$AAt?$AAr?$AAy?$AA?5?$AAt?$AAo?$AA?5?$AAd?$AAe?$AAb?$AAu?$AAg?$AA?5?$AAt?$AAh?$AAe?$AA?5?$AAa?$AAp?$AAp?$AAl?$AAi?$AAc@ 10050dd8     libucrt:assert.obj
 0002:00004e54       ??_C@_17LGKOMLJ@?$AA?4?$AA?4?$AA?4?$AA?$AA@ 10050e54     libucrt:assert.obj
 0002:00004e5c       ??_C@_13LBAGMAIH@?$AA?6?$AA?$AA@ 10050e5c     libucrt:assert.obj
 0002:00004e60       ??_C@_15IABLJNFO@?$AA?6?$AA?6?$AA?$AA@ 10050e60     libucrt:assert.obj
 0002:00004e68       ??_C@_1CO@EAEJAADC@?$AA?$DM?$AAp?$AAr?$AAo?$AAg?$AAr?$AAa?$AAm?$AA?5?$AAn?$AAa?$AAm?$AAe?$AA?5?$AAu?$AAn?$AAk?$AAn?$AAo?$AAw?$AAn?$AA?$DO?$AA?$AA@ 10050e68     libucrt:assert.obj
 0002:00004e98       _standard_lookup_table     10050e98     libucrt:output.obj
 0002:00004ef8       _format_validation_lookup_table 10050ef8     libucrt:output.obj
 0002:00004f54       ??_C@_06OJHGLDPL@?$CInull?$CJ?$AA@ 10050f54     libucrt:output.obj
 0002:00004f5c       ??_C@_1O@CEDCILHN@?$AA?$CI?$AAn?$AAu?$AAl?$AAl?$AA?$CJ?$AA?$AA@ 10050f5c     libucrt:output.obj
 0002:00004f70       __real@8000000000000000    10050f70     libucrt:frexp.obj
 0002:00004fc0       __wctype                   10050fc0     libucrt:ctype.obj
 0002:000051c8       ___newctype                100511c8     libucrt:ctype.obj
 0002:000054c8       ___newclmap                100514c8     libucrt:ctype.obj
 0002:00005648       ___newcumap                10051648     libucrt:ctype.obj
 0002:00005930       ?large_power_data@?1??multiply_by_power_of_ten@__crt_strtox@@YA_NAAUbig_integer@2@I@Z@4QBIB 10051930     libucrt:strtod.obj
 0002:00006238       ?large_power_indices@?1??multiply_by_power_of_ten@__crt_strtox@@YA_NAAUbig_integer@2@I@Z@4QBUunpack_index@?1??12@YA_N0I@Z@B 10052238     libucrt:strtod.obj
 0002:000062d0       ?small_powers_of_ten@?6??multiply_by_power_of_ten@__crt_strtox@@YA_NAAUbig_integer@2@I@Z@4QBIB 100522d0     libucrt:strtod.obj
 0002:00006304       __half                     10052304     libucrt:pow.obj
 0002:00006310       ___acrt_exception_action_table 10052310     libucrt:exception_filter.obj
 0002:000063a0       ___acrt_signal_action_table_count 100523a0     libucrt:exception_filter.obj
 0002:000063a4       ___acrt_signal_action_first_fpe_index 100523a4     libucrt:exception_filter.obj
 0002:000063a8       ___acrt_signal_action_fpe_count 100523a8     libucrt:exception_filter.obj
 0002:000063ac       ??_C@_1BI@BGOHAHKC@?$AAm?$AAs?$AAc?$AAo?$AAr?$AAe?$AAe?$AA?4?$AAd?$AAl?$AAl?$AA?$AA@ 100523ac     libucrt:exit.obj
 0002:000063c4       ??_C@_0P@MIGLKIOC@CorExitProcess?$AA@ 100523c4     libucrt:exit.obj
 0002:00006458       ??_C@_03OEIAHPBN@INF?$AA@  10052458     libucrt:cvt.obj
 0002:0000645c       ??_C@_03OJHLLCGB@inf?$AA@  1005245c     libucrt:cvt.obj
 0002:00006460       ??_C@_03LKNCIKJB@NAN?$AA@  10052460     libucrt:cvt.obj
 0002:00006464       ??_C@_03LHCJEHON@nan?$AA@  10052464     libucrt:cvt.obj
 0002:00006468       ??_C@_09OFJJIMPC@NAN?$CISNAN?$CJ?$AA@ 10052468     libucrt:cvt.obj
 0002:00006474       ??_C@_09IPFBKMDL@nan?$CIsnan?$CJ?$AA@ 10052474     libucrt:cvt.obj
 0002:00006480       ??_C@_08IKHNHAJ@NAN?$CIIND?$CJ?$AA@ 10052480     libucrt:cvt.obj
 0002:0000648c       ??_C@_08OFCDMILK@nan?$CIind?$CJ?$AA@ 1005248c     libucrt:cvt.obj
 0002:00006498       ??_C@_05KLBDPFGC@e?$CL000?$AA@ 10052498     libucrt:cvt.obj
 0002:000064a0       ___lc_category             100524a0     libucrt:wsetlocale.obj
 0002:000064e8       ??_C@_1O@GIFLHMA@?$AAL?$AAC?$AA_?$AAA?$AAL?$AAL?$AA?$AA@ 100524e8     libucrt:wsetlocale.obj
 0002:000064f8       ??_C@_1BG@PPOMIBNJ@?$AAL?$AAC?$AA_?$AAC?$AAO?$AAL?$AAL?$AAA?$AAT?$AAE?$AA?$AA@ 100524f8     libucrt:wsetlocale.obj
 0002:00006510       ??_C@_1BC@FFJGAPJM@?$AAL?$AAC?$AA_?$AAC?$AAT?$AAY?$AAP?$AAE?$AA?$AA@ 10052510     libucrt:wsetlocale.obj
 0002:00006524       ??_C@_1BI@PCKFNJFB@?$AAL?$AAC?$AA_?$AAM?$AAO?$AAN?$AAE?$AAT?$AAA?$AAR?$AAY?$AA?$AA@ 10052524     libucrt:wsetlocale.obj
 0002:0000653c       ??_C@_1BG@ENIEDKID@?$AAL?$AAC?$AA_?$AAN?$AAU?$AAM?$AAE?$AAR?$AAI?$AAC?$AA?$AA@ 1005253c     libucrt:wsetlocale.obj
 0002:00006554       ??_C@_1BA@HAAOMIIG@?$AAL?$AAC?$AA_?$AAT?$AAI?$AAM?$AAE?$AA?$AA@ 10052554     libucrt:wsetlocale.obj
 0002:000065e8       ??_C@_15NBPDDFIP@?$AA?$DN?$AA?$DL?$AA?$AA@ 100525e8     libucrt:wsetlocale.obj
 0002:000065f0       ??_C@_13PJJBFPED@?$AA?$DL?$AA?$AA@ 100525f0     libucrt:wsetlocale.obj
 0002:000065f4       ??_C@_13NMPKAAJP@?$AA?$DN?$AA?$AA@ 100525f4     libucrt:wsetlocale.obj
 0002:000065f8       ??_C@_13FHBKNHDA@?$AAC?$AA?$AA@ 100525f8     libucrt:wsetlocale.obj
 0002:000065fc       ??_C@_17MBJJLFDM@?$AA_?$AA?4?$AA?0?$AA?$AA@ 100525fc     libucrt:wsetlocale.obj
 0002:00006604       ??_C@_13ENNFDPBH@?$AA_?$AA?$AA@ 10052604     libucrt:wsetlocale.obj
 0002:00006608       ??_C@_13JOFGPIOO@?$AA?4?$AA?$AA@ 10052608     libucrt:wsetlocale.obj
 0002:0000660c       ??_C@_03KOEHGMDN@Sun?$AA@  1005260c     libucrt:nlsdata.obj
 0002:00006610       ??_C@_03PDAGKDH@Mon?$AA@   10052610     libucrt:nlsdata.obj
 0002:00006614       ??_C@_03NAGEINEP@Tue?$AA@  10052614     libucrt:nlsdata.obj
 0002:00006618       ??_C@_03MHOMLAJA@Wed?$AA@  10052618     libucrt:nlsdata.obj
 0002:0000661c       ??_C@_03IOFIKPDN@Thu?$AA@  1005261c     libucrt:nlsdata.obj
 0002:00006620       ??_C@_03IDIOELNC@Fri?$AA@  10052620     libucrt:nlsdata.obj
 0002:00006624       ??_C@_03FEFJNEK@Sat?$AA@   10052624     libucrt:nlsdata.obj
 0002:00006628       ??_C@_06OOPIFAJ@Sunday?$AA@ 10052628     libucrt:nlsdata.obj
 0002:00006630       ??_C@_06JLEDEDGH@Monday?$AA@ 10052630     libucrt:nlsdata.obj
 0002:00006638       ??_C@_07BAAGCFCM@Tuesday?$AA@ 10052638     libucrt:nlsdata.obj
 0002:00006640       ??_C@_09DLIGFAKA@Wednesday?$AA@ 10052640     libucrt:nlsdata.obj
 0002:0000664c       ??_C@_08HACCIKIA@Thursday?$AA@ 1005264c     libucrt:nlsdata.obj
 0002:00006658       ??_C@_06JECMNKMI@Friday?$AA@ 10052658     libucrt:nlsdata.obj
 0002:00006660       ??_C@_08INBOOONO@Saturday?$AA@ 10052660     libucrt:nlsdata.obj
 0002:0000666c       ??_C@_03JIHJHPIE@Jan?$AA@  1005266c     libucrt:nlsdata.obj
 0002:00006670       ??_C@_03HJBDCHOM@Feb?$AA@  10052670     libucrt:nlsdata.obj
 0002:00006674       ??_C@_03ODNJBKGA@Mar?$AA@  10052674     libucrt:nlsdata.obj
 0002:00006678       ??_C@_03LEOLGMJP@Apr?$AA@  10052678     libucrt:nlsdata.obj
 0002:0000667c       ??_C@_03CNMDKL@May?$AA@    1005267c     libucrt:nlsdata.obj
 0002:00006680       ??_C@_03IDFGHECI@Jun?$AA@  10052680     libucrt:nlsdata.obj
 0002:00006684       ??_C@_03LBGABGKK@Jul?$AA@  10052684     libucrt:nlsdata.obj
 0002:00006688       ??_C@_03IFJFEIGA@Aug?$AA@  10052688     libucrt:nlsdata.obj
 0002:0000668c       ??_C@_03GGCAPAJC@Sep?$AA@  1005268c     libucrt:nlsdata.obj
 0002:00006690       ??_C@_03BMAOKBAD@Oct?$AA@  10052690     libucrt:nlsdata.obj
 0002:00006694       ??_C@_03JPJOFNIA@Nov?$AA@  10052694     libucrt:nlsdata.obj
 0002:00006698       ??_C@_03MKABNOCG@Dec?$AA@  10052698     libucrt:nlsdata.obj
 0002:0000669c       ??_C@_07CGJPFGJA@January?$AA@ 1005269c     libucrt:nlsdata.obj
 0002:000066a4       ??_C@_08GNJGEPFN@February?$AA@ 100526a4     libucrt:nlsdata.obj
 0002:000066b0       ??_C@_05HPCKOFNC@March?$AA@ 100526b0     libucrt:nlsdata.obj
 0002:000066b8       ??_C@_05DMJDNLEJ@April?$AA@ 100526b8     libucrt:nlsdata.obj
 0002:000066c0       ??_C@_04CNLMGBGM@June?$AA@ 100526c0     libucrt:nlsdata.obj
 0002:000066c8       ??_C@_04MIEPOIFP@July?$AA@ 100526c8     libucrt:nlsdata.obj
 0002:000066d0       ??_C@_06LBBHFDDG@August?$AA@ 100526d0     libucrt:nlsdata.obj
 0002:000066d8       ??_C@_09BHHEALKD@September?$AA@ 100526d8     libucrt:nlsdata.obj
 0002:000066e4       ??_C@_07JJNFCEND@October?$AA@ 100526e4     libucrt:nlsdata.obj
 0002:000066ec       ??_C@_08HCHEGEOA@November?$AA@ 100526ec     libucrt:nlsdata.obj
 0002:000066f8       ??_C@_08EDHMEBNP@December?$AA@ 100526f8     libucrt:nlsdata.obj
 0002:00006704       ??_C@_02DEDBPAFC@AM?$AA@   10052704     libucrt:nlsdata.obj
 0002:00006708       ??_C@_02CJNFDJBF@PM?$AA@   10052708     libucrt:nlsdata.obj
 0002:0000670c       ??_C@_08BPBNCDIB@MM?1dd?1yy?$AA@ 1005270c     libucrt:nlsdata.obj
 0002:00006718       ??_C@_0BE@CKGJFCPC@dddd?0?5MMMM?5dd?0?5yyyy?$AA@ 10052718     libucrt:nlsdata.obj
 0002:0000672c       ??_C@_08JCCMCCIL@HH?3mm?3ss?$AA@ 1005272c     libucrt:nlsdata.obj
 0002:00006738       ??_C@_17MBGCMIPB@?$AAS?$AAu?$AAn?$AA?$AA@ 10052738     libucrt:nlsdata.obj
 0002:00006740       ??_C@_17KBOMKBF@?$AAM?$AAo?$AAn?$AA?$AA@ 10052740     libucrt:nlsdata.obj
 0002:00006748       ??_C@_17BMKGEGOJ@?$AAT?$AAu?$AAe?$AA?$AA@ 10052748     libucrt:nlsdata.obj
 0002:00006750       ??_C@_17CJEDCEPE@?$AAW?$AAe?$AAd?$AA?$AA@ 10052750     libucrt:nlsdata.obj
 0002:00006758       ??_C@_17PDPHAADD@?$AAT?$AAh?$AAu?$AA?$AA@ 10052758     libucrt:nlsdata.obj
 0002:00006760       ??_C@_17HFOLPPLP@?$AAF?$AAr?$AAi?$AA?$AA@ 10052760     libucrt:nlsdata.obj
 0002:00006768       ??_C@_17GGIBDPIH@?$AAS?$AAa?$AAt?$AA?$AA@ 10052768     libucrt:nlsdata.obj
 0002:00006770       ??_C@_1O@IHNHDHPB@?$AAS?$AAu?$AAn?$AAd?$AAa?$AAy?$AA?$AA@ 10052770     libucrt:nlsdata.obj
 0002:00006780       ??_C@_1O@MMNBFLIA@?$AAM?$AAo?$AAn?$AAd?$AAa?$AAy?$AA?$AA@ 10052780     libucrt:nlsdata.obj
 0002:00006790       ??_C@_1BA@ENFBFFEK@?$AAT?$AAu?$AAe?$AAs?$AAd?$AAa?$AAy?$AA?$AA@ 10052790     libucrt:nlsdata.obj
 0002:000067a0       ??_C@_1BE@EBOGMDOH@?$AAW?$AAe?$AAd?$AAn?$AAe?$AAs?$AAd?$AAa?$AAy?$AA?$AA@ 100527a0     libucrt:nlsdata.obj
 0002:000067b4       ??_C@_1BC@HHMNLIHE@?$AAT?$AAh?$AAu?$AAr?$AAs?$AAd?$AAa?$AAy?$AA?$AA@ 100527b4     libucrt:nlsdata.obj
 0002:000067c8       ??_C@_1O@PDICJHAG@?$AAF?$AAr?$AAi?$AAd?$AAa?$AAy?$AA?$AA@ 100527c8     libucrt:nlsdata.obj
 0002:000067d8       ??_C@_1BC@ENMNNPAJ@?$AAS?$AAa?$AAt?$AAu?$AAr?$AAd?$AAa?$AAy?$AA?$AA@ 100527d8     libucrt:nlsdata.obj
 0002:000067ec       ??_C@_17DKNBKCHM@?$AAJ?$AAa?$AAn?$AA?$AA@ 100527ec     libucrt:nlsdata.obj
 0002:000067f4       ??_C@_17LMDJEKJN@?$AAF?$AAe?$AAb?$AA?$AA@ 100527f4     libucrt:nlsdata.obj
 0002:000067fc       ??_C@_17CKNLEDEC@?$AAM?$AAa?$AAr?$AA?$AA@ 100527fc     libucrt:nlsdata.obj
 0002:00006804       ??_C@_17LFPOIHDD@?$AAA?$AAp?$AAr?$AA?$AA@ 10052804     libucrt:nlsdata.obj
 0002:0000680c       ??_C@_17PNNKMEED@?$AAM?$AAa?$AAy?$AA?$AA@ 1005280c     libucrt:nlsdata.obj
 0002:00006814       ??_C@_17KCJGOCPB@?$AAJ?$AAu?$AAn?$AA?$AA@ 10052814     libucrt:nlsdata.obj
 0002:0000681c       ??_C@_17IJPCKHK@?$AAJ?$AAu?$AAl?$AA?$AA@ 1005281c     libucrt:nlsdata.obj
 0002:00006824       ??_C@_17ICPELBCN@?$AAA?$AAu?$AAg?$AA?$AA@ 10052824     libucrt:nlsdata.obj
 0002:0000682c       ??_C@_17HCHCOKMG@?$AAS?$AAe?$AAp?$AA?$AA@ 1005282c     libucrt:nlsdata.obj
 0002:00006834       ??_C@_17FNLKOI@?$AAO?$AAc?$AAt?$AA?$AA@ 10052834     libucrt:nlsdata.obj
 0002:0000683c       ??_C@_17BBDMLCIG@?$AAN?$AAo?$AAv?$AA?$AA@ 1005283c     libucrt:nlsdata.obj
 0002:00006844       ??_C@_17EGKACKIF@?$AAD?$AAe?$AAc?$AA?$AA@ 10052844     libucrt:nlsdata.obj
 0002:0000684c       ??_C@_1BA@EFMEIEBA@?$AAJ?$AAa?$AAn?$AAu?$AAa?$AAr?$AAy?$AA?$AA@ 1005284c     libucrt:nlsdata.obj
 0002:0000685c       ??_C@_1BC@JGDDFFAM@?$AAF?$AAe?$AAb?$AAr?$AAu?$AAa?$AAr?$AAy?$AA?$AA@ 1005285c     libucrt:nlsdata.obj
 0002:00006870       ??_C@_1M@IKEENEDF@?$AAM?$AAa?$AAr?$AAc?$AAh?$AA?$AA@ 10052870     libucrt:nlsdata.obj
 0002:0000687c       ??_C@_1M@GJNLMHFD@?$AAA?$AAp?$AAr?$AAi?$AAl?$AA?$AA@ 1005287c     libucrt:nlsdata.obj
 0002:00006888       ??_C@_19EPFLPGAP@?$AAJ?$AAu?$AAn?$AAe?$AA?$AA@ 10052888     libucrt:nlsdata.obj
 0002:00006894       ??_C@_19BIFMLPCD@?$AAJ?$AAu?$AAl?$AAy?$AA?$AA@ 10052894     libucrt:nlsdata.obj
 0002:000068a0       ??_C@_1O@PAHLKOAC@?$AAA?$AAu?$AAg?$AAu?$AAs?$AAt?$AA?$AA@ 100528a0     libucrt:nlsdata.obj
 0002:000068b0       ??_C@_1BE@DKAAMBJL@?$AAS?$AAe?$AAp?$AAt?$AAe?$AAm?$AAb?$AAe?$AAr?$AA?$AA@ 100528b0     libucrt:nlsdata.obj
 0002:000068c4       ??_C@_1BA@EPANDLNG@?$AAO?$AAc?$AAt?$AAo?$AAb?$AAe?$AAr?$AA?$AA@ 100528c4     libucrt:nlsdata.obj
 0002:000068d4       ??_C@_1BC@BGLIFPF@?$AAN?$AAo?$AAv?$AAe?$AAm?$AAb?$AAe?$AAr?$AA?$AA@ 100528d4     libucrt:nlsdata.obj
 0002:000068e8       ??_C@_1BC@FEMKIFH@?$AAD?$AAe?$AAc?$AAe?$AAm?$AAb?$AAe?$AAr?$AA?$AA@ 100528e8     libucrt:nlsdata.obj
 0002:000068fc       ??_C@_15ODEHAHHF@?$AAA?$AAM?$AA?$AA@ 100528fc     libucrt:nlsdata.obj
 0002:00006904       ??_C@_15CLMNNGEL@?$AAP?$AAM?$AA?$AA@ 10052904     libucrt:nlsdata.obj
 0002:0000690c       ??_C@_1BC@IEBCMHCM@?$AAM?$AAM?$AA?1?$AAd?$AAd?$AA?1?$AAy?$AAy?$AA?$AA@ 1005290c     libucrt:nlsdata.obj
 0002:00006920       ??_C@_1CI@KNAKOEBC@?$AAd?$AAd?$AAd?$AAd?$AA?0?$AA?5?$AAM?$AAM?$AAM?$AAM?$AA?5?$AAd?$AAd?$AA?0?$AA?5?$AAy?$AAy?$AAy?$AAy?$AA?$AA@ 10052920     libucrt:nlsdata.obj
 0002:00006948       ??_C@_1BC@GDGBMEMK@?$AAH?$AAH?$AA?3?$AAm?$AAm?$AA?3?$AAs?$AAs?$AA?$AA@ 10052948     libucrt:nlsdata.obj
 0002:00006960       ___lc_time_c               10052960     libucrt:nlsdata.obj
 0002:00006ac4       ??_C@_04FJHINJAO@tanh?$AA@ 10052ac4     libucrt:fpexcept.obj
 0002:00006acc       ??_C@_04FIHNOPOL@asin?$AA@ 10052acc     libucrt:fpexcept.obj
 0002:00006ad4       ??_C@_04PDIFKINK@acos?$AA@ 10052ad4     libucrt:fpexcept.obj
 0002:00006adc       ??_C@_04MLLJIGOK@atan?$AA@ 10052adc     libucrt:fpexcept.obj
 0002:00006ae4       ??_C@_05KNGEOGJB@atan2?$AA@ 10052ae4     libucrt:fpexcept.obj
 0002:00006aec       ??_C@_04EIAKFFMI@sqrt?$AA@ 10052aec     libucrt:fpexcept.obj
 0002:00006af4       ??_C@_03BLEJJJBH@sin?$AA@  10052af4     libucrt:fpexcept.obj
 0002:00006af8       ??_C@_03LALBNOCG@cos?$AA@  10052af8     libucrt:fpexcept.obj
 0002:00006afc       ??_C@_03IIINPABG@tan?$AA@  10052afc     libucrt:fpexcept.obj
 0002:00006b00       ??_C@_04GFPJNGEK@ceil?$AA@ 10052b00     libucrt:fpexcept.obj
 0002:00006b08       ??_C@_05PBJFFIGL@floor?$AA@ 10052b08     libucrt:fpexcept.obj
 0002:00006b10       ??_C@_04ODHECPBC@fabs?$AA@ 10052b10     libucrt:fpexcept.obj
 0002:00006b18       ??_C@_04EHEDPDJG@modf?$AA@ 10052b18     libucrt:fpexcept.obj
 0002:00006b20       ??_C@_05CEJMAHNP@ldexp?$AA@ 10052b20     libucrt:fpexcept.obj
 0002:00006b28       ??_C@_05KBKMEMPO@_cabs?$AA@ 10052b28     libucrt:fpexcept.obj
 0002:00006b30       ??_C@_06MEIMCGCF@_hypot?$AA@ 10052b30     libucrt:fpexcept.obj
 0002:00006b38       ??_C@_04KEPJIHGP@fmod?$AA@ 10052b38     libucrt:fpexcept.obj
 0002:00006b40       ??_C@_05GKKHEGJL@frexp?$AA@ 10052b40     libucrt:fpexcept.obj
 0002:00006b48       ??_C@_03MJLDFKDL@_y0?$AA@  10052b48     libucrt:fpexcept.obj
 0002:00006b4c       ??_C@_03NAKIGLHK@_y1?$AA@  10052b4c     libucrt:fpexcept.obj
 0002:00006b50       ??_C@_03ONILCKOB@_yn?$AA@  10052b50     libucrt:fpexcept.obj
 0002:00006b54       ??_C@_05JGDBENOH@_logb?$AA@ 10052b54     libucrt:fpexcept.obj
 0002:00006b5c       ??_C@_0L@KDOEJCKC@_nextafter?$AA@ 10052b5c     libucrt:fpexcept.obj
 0002:00006c50       ??_C@_03KHJOGHMM@exp?$AA@  10052c50     libucrt:fpexcept.obj
 0002:00006c54       ??_C@_03JGHBODFD@pow?$AA@  10052c54     libucrt:fpexcept.obj
 0002:00006c58       ??_C@_03MGHMBJCF@log?$AA@  10052c58     libucrt:fpexcept.obj
 0002:00006c5c       ??_C@_05HGHHAHAP@log10?$AA@ 10052c5c     libucrt:fpexcept.obj
 0002:00006c64       ??_C@_04COOMCNPB@sinh?$AA@ 10052c64     libucrt:fpexcept.obj
 0002:00006c6c       ??_C@_04HPJJNFIM@cosh?$AA@ 10052c6c     libucrt:fpexcept.obj
 0002:00006c78       __d_inf                    10052c78     libucrt:util.obj
 0002:00006c80       __d_ind                    10052c80     libucrt:util.obj
 0002:00006c88       __d_max                    10052c88     libucrt:util.obj
 0002:00006c90       __d_mzero                  10052c90     libucrt:util.obj
 0002:00006d00       ??_C@_1EG@CNNIPFIM@?$AAa?$AAp?$AAi?$AA?9?$AAm?$AAs?$AA?9?$AAw?$AAi?$AAn?$AA?9?$AAa?$AAp?$AAp?$AAm?$AAo?$AAd?$AAe?$AAl?$AA?9?$AAr?$AAu?$AAn?$AAt?$AAi?$AAm?$AAe?$AA?9?$AAl?$AA1?$AA?9?$AA1@ 10052d00     libucrt:winapi_thunks.obj
 0002:00006d48       ??_C@_1EA@JGEFHKEI@?$AAa?$AAp?$AAi?$AA?9?$AAm?$AAs?$AA?9?$AAw?$AAi?$AAn?$AA?9?$AAc?$AAo?$AAr?$AAe?$AA?9?$AAd?$AAa?$AAt?$AAe?$AAt?$AAi?$AAm?$AAe?$AA?9?$AAl?$AA1?$AA?9?$AA1?$AA?9?$AA1?$AA?$AA@ 10052d48     libucrt:winapi_thunks.obj
 0002:00006d88       ??_C@_1DI@GCIAAENM@?$AAa?$AAp?$AAi?$AA?9?$AAm?$AAs?$AA?9?$AAw?$AAi?$AAn?$AA?9?$AAc?$AAo?$AAr?$AAe?$AA?9?$AAf?$AAi?$AAl?$AAe?$AA?9?$AAl?$AA2?$AA?9?$AA1?$AA?9?$AA1?$AA?$AA@ 10052d88     libucrt:winapi_thunks.obj
 0002:00006dc0       ??_C@_1EI@MPIAOHOC@?$AAa?$AAp?$AAi?$AA?9?$AAm?$AAs?$AA?9?$AAw?$AAi?$AAn?$AA?9?$AAc?$AAo?$AAr?$AAe?$AA?9?$AAl?$AAo?$AAc?$AAa?$AAl?$AAi?$AAz?$AAa?$AAt?$AAi?$AAo?$AAn?$AA?9?$AAl?$AA1?$AA?9@ 10052dc0     libucrt:winapi_thunks.obj
 0002:00006e08       ??_C@_1FK@FPHCKFIE@?$AAa?$AAp?$AAi?$AA?9?$AAm?$AAs?$AA?9?$AAw?$AAi?$AAn?$AA?9?$AAc?$AAo?$AAr?$AAe?$AA?9?$AAl?$AAo?$AAc?$AAa?$AAl?$AAi?$AAz?$AAa?$AAt?$AAi?$AAo?$AAn?$AA?9?$AAo?$AAb?$AAs@ 10052e08     libucrt:winapi_thunks.obj
 0002:00006e68       ??_C@_1EM@DILCGIIO@?$AAa?$AAp?$AAi?$AA?9?$AAm?$AAs?$AA?9?$AAw?$AAi?$AAn?$AA?9?$AAc?$AAo?$AAr?$AAe?$AA?9?$AAp?$AAr?$AAo?$AAc?$AAe?$AAs?$AAs?$AAt?$AAh?$AAr?$AAe?$AAa?$AAd?$AAs?$AA?9?$AAl@ 10052e68     libucrt:winapi_thunks.obj
 0002:00006eb4       ??_C@_1DM@LNCGDDPN@?$AAa?$AAp?$AAi?$AA?9?$AAm?$AAs?$AA?9?$AAw?$AAi?$AAn?$AA?9?$AAc?$AAo?$AAr?$AAe?$AA?9?$AAs?$AAt?$AAr?$AAi?$AAn?$AAg?$AA?9?$AAl?$AA1?$AA?9?$AA1?$AA?9?$AA0?$AA?$AA@ 10052eb4     libucrt:winapi_thunks.obj
 0002:00006ef0       ??_C@_1DO@FPAPJEMD@?$AAa?$AAp?$AAi?$AA?9?$AAm?$AAs?$AA?9?$AAw?$AAi?$AAn?$AA?9?$AAc?$AAo?$AAr?$AAe?$AA?9?$AAs?$AAy?$AAs?$AAi?$AAn?$AAf?$AAo?$AA?9?$AAl?$AA1?$AA?9?$AA2?$AA?9?$AA1?$AA?$AA@ 10052ef0     libucrt:winapi_thunks.obj
 0002:00006f30       ??_C@_1DK@NDHNAHIO@?$AAa?$AAp?$AAi?$AA?9?$AAm?$AAs?$AA?9?$AAw?$AAi?$AAn?$AA?9?$AAc?$AAo?$AAr?$AAe?$AA?9?$AAw?$AAi?$AAn?$AAr?$AAt?$AA?9?$AAl?$AA1?$AA?9?$AA1?$AA?9?$AA0?$AA?$AA@ 10052f30     libucrt:winapi_thunks.obj
 0002:00006f6c       ??_C@_1DM@KGHDGBCM@?$AAa?$AAp?$AAi?$AA?9?$AAm?$AAs?$AA?9?$AAw?$AAi?$AAn?$AA?9?$AAc?$AAo?$AAr?$AAe?$AA?9?$AAx?$AAs?$AAt?$AAa?$AAt?$AAe?$AA?9?$AAl?$AA2?$AA?9?$AA1?$AA?9?$AA0?$AA?$AA@ 10052f6c     libucrt:winapi_thunks.obj
 0002:00006fa8       ??_C@_1EO@IJIOEFOH@?$AAa?$AAp?$AAi?$AA?9?$AAm?$AAs?$AA?9?$AAw?$AAi?$AAn?$AA?9?$AAr?$AAt?$AAc?$AAo?$AAr?$AAe?$AA?9?$AAn?$AAt?$AAu?$AAs?$AAe?$AAr?$AA?9?$AAw?$AAi?$AAn?$AAd?$AAo?$AAw?$AA?9@ 10052fa8     libucrt:winapi_thunks.obj
 0002:00006ff8       ??_C@_1FG@HHGEKANL@?$AAa?$AAp?$AAi?$AA?9?$AAm?$AAs?$AA?9?$AAw?$AAi?$AAn?$AA?9?$AAs?$AAe?$AAc?$AAu?$AAr?$AAi?$AAt?$AAy?$AA?9?$AAs?$AAy?$AAs?$AAt?$AAe?$AAm?$AAf?$AAu?$AAn?$AAc?$AAt?$AAi@ 10052ff8     libucrt:winapi_thunks.obj
 0002:00007050       ??_C@_1FG@NCKKOLKO@?$AAe?$AAx?$AAt?$AA?9?$AAm?$AAs?$AA?9?$AAw?$AAi?$AAn?$AA?9?$AAk?$AAe?$AAr?$AAn?$AAe?$AAl?$AA3?$AA2?$AA?9?$AAp?$AAa?$AAc?$AAk?$AAa?$AAg?$AAe?$AA?9?$AAc?$AAu?$AAr?$AAr@ 10053050     libucrt:winapi_thunks.obj
 0002:000070a8       ??_C@_1EG@DBIOJECG@?$AAe?$AAx?$AAt?$AA?9?$AAm?$AAs?$AA?9?$AAw?$AAi?$AAn?$AA?9?$AAn?$AAt?$AAu?$AAs?$AAe?$AAr?$AA?9?$AAd?$AAi?$AAa?$AAl?$AAo?$AAg?$AAb?$AAo?$AAx?$AA?9?$AAl?$AA1?$AA?9?$AA1@ 100530a8     libucrt:winapi_thunks.obj
 0002:000070f0       ??_C@_1EO@FIHMJCLF@?$AAe?$AAx?$AAt?$AA?9?$AAm?$AAs?$AA?9?$AAw?$AAi?$AAn?$AA?9?$AAn?$AAt?$AAu?$AAs?$AAe?$AAr?$AA?9?$AAw?$AAi?$AAn?$AAd?$AAo?$AAw?$AAs?$AAt?$AAa?$AAt?$AAi?$AAo?$AAn?$AA?9@ 100530f0     libucrt:winapi_thunks.obj
 0002:00007140       ??_C@_1O@BCCLBEOE@?$AAu?$AAs?$AAe?$AAr?$AA3?$AA2?$AA?$AA@ 10053140     libucrt:winapi_thunks.obj
 0002:00007160       ??_C@_0BE@LJANKFHF@EnumSystemLocalesEx?$AA@ 10053160     libucrt:winapi_thunks.obj
 0002:0000719c       ??_C@_0BA@HNOPNCHB@GetActiveWindow?$AA@ 1005319c     libucrt:winapi_thunks.obj
 0002:000071bc       ??_C@_0BD@HHGDFDBJ@GetLastActivePopup?$AA@ 100531bc     libucrt:winapi_thunks.obj
 0002:000071e0       ??_C@_0BI@DFKBFLJE@GetProcessWindowStation?$AA@ 100531e0     libucrt:winapi_thunks.obj
 0002:00007200       ??_C@_0BJ@PBCCBIPI@GetUserDefaultLocaleName?$AA@ 10053200     libucrt:winapi_thunks.obj
 0002:00007224       ??_C@_0BK@DEKFELLI@GetUserObjectInformationW?$AA@ 10053224     libucrt:winapi_thunks.obj
 0002:00007250       ??_C@_0BC@CELBKLLA@IsValidLocaleName?$AA@ 10053250     libucrt:winapi_thunks.obj
 0002:00007274       ??_C@_0BB@CDHDDLLP@LCIDToLocaleName?$AA@ 10053274     libucrt:winapi_thunks.obj
 0002:00007290       ??_C@_0BB@HBDEELFH@LocaleNameToLCID?$AA@ 10053290     libucrt:winapi_thunks.obj
 0002:000072ac       ??_C@_0M@CHKKJDAI@MessageBoxA?$AA@ 100532ac     libucrt:winapi_thunks.obj
 0002:000072c0       ??_C@_0M@DLDCCGNP@MessageBoxW?$AA@ 100532c0     libucrt:winapi_thunks.obj
 0002:00007390       __infinity                 10053390     libucrt:87tran.obj
 0002:0000739a       __minfinity                1005339a     libucrt:87tran.obj
 0002:000073a4       __logemax                  100533a4     libucrt:87tran.obj
 0002:000073ca       __OP_EXPjmptab             100533ca     libucrt:87tran.obj
 0002:000073f0       __indefinite               100533f0     libucrt:87disp.obj
 0002:000073fa       __piby2                    100533fa     libucrt:87disp.obj
 0002:00007404       __piby4                    10053404     libucrt:87disp.obj
 0002:00007438       __DEFAULT_CW_in_mem        10053438     libucrt:common.obj
 0002:0000743a       __pi_by_2_to_61            1005343a     libucrt:common.obj
 0002:00007478       __real@3fe0000000000000    10053478     libucrt:powhlp.obj
 0002:000075c0       ??_C@_05DNEBIAHO@1?$CDINF?$AA@ 100535c0     libucrt:cfout.obj
 0002:000075c8       ??_C@_06IMKFLFPG@1?$CDQNAN?$AA@ 100535c8     libucrt:cfout.obj
 0002:000075d0       ??_C@_06PGGFOGJG@1?$CDSNAN?$AA@ 100535d0     libucrt:cfout.obj
 0002:000075d8       ??_C@_05PHHOCPM@1?$CDIND?$AA@ 100535d8     libucrt:cfout.obj
 0002:000075e0       ??_C@_1BC@LLOKLNP@?$AAa?$AAm?$AAe?$AAr?$AAi?$AAc?$AAa?$AAn?$AA?$AA@ 100535e0     libucrt:get_qualified_locale.obj
 0002:000075f4       ??_C@_1CC@HEIGCDGG@?$AAa?$AAm?$AAe?$AAr?$AAi?$AAc?$AAa?$AAn?$AA?5?$AAe?$AAn?$AAg?$AAl?$AAi?$AAs?$AAh?$AA?$AA@ 100535f4     libucrt:get_qualified_locale.obj
 0002:00007618       ??_C@_1CC@IHCNOMIN@?$AAa?$AAm?$AAe?$AAr?$AAi?$AAc?$AAa?$AAn?$AA?9?$AAe?$AAn?$AAg?$AAl?$AAi?$AAs?$AAh?$AA?$AA@ 10053618     libucrt:get_qualified_locale.obj
 0002:0000763c       ??_C@_1BG@GKAGPCGG@?$AAa?$AAu?$AAs?$AAt?$AAr?$AAa?$AAl?$AAi?$AAa?$AAn?$AA?$AA@ 1005363c     libucrt:get_qualified_locale.obj
 0002:00007654       ??_C@_1BA@GMENCENF@?$AAb?$AAe?$AAl?$AAg?$AAi?$AAa?$AAn?$AA?$AA@ 10053654     libucrt:get_qualified_locale.obj
 0002:00007664       ??_C@_1BC@PJMIIAAN@?$AAc?$AAa?$AAn?$AAa?$AAd?$AAi?$AAa?$AAn?$AA?$AA@ 10053664     libucrt:get_qualified_locale.obj
 0002:00007678       ??_C@_17NOIMNFBF@?$AAc?$AAh?$AAh?$AA?$AA@ 10053678     libucrt:get_qualified_locale.obj
 0002:00007680       ??_C@_17GGDALCHA@?$AAc?$AAh?$AAi?$AA?$AA@ 10053680     libucrt:get_qualified_locale.obj
 0002:00007688       ??_C@_1BA@NPNJKIBL@?$AAc?$AAh?$AAi?$AAn?$AAe?$AAs?$AAe?$AA?$AA@ 10053688     libucrt:get_qualified_locale.obj
 0002:00007698       ??_C@_1CC@DINBAMMJ@?$AAc?$AAh?$AAi?$AAn?$AAe?$AAs?$AAe?$AA?9?$AAh?$AAo?$AAn?$AAg?$AAk?$AAo?$AAn?$AAg?$AA?$AA@ 10053698     libucrt:get_qualified_locale.obj
 0002:000076bc       ??_C@_1CG@IOBJPACO@?$AAc?$AAh?$AAi?$AAn?$AAe?$AAs?$AAe?$AA?9?$AAs?$AAi?$AAm?$AAp?$AAl?$AAi?$AAf?$AAi?$AAe?$AAd?$AA?$AA@ 100536bc     libucrt:get_qualified_locale.obj
 0002:000076e4       ??_C@_1CE@GAJNDCKG@?$AAc?$AAh?$AAi?$AAn?$AAe?$AAs?$AAe?$AA?9?$AAs?$AAi?$AAn?$AAg?$AAa?$AAp?$AAo?$AAr?$AAe?$AA?$AA@ 100536e4     libucrt:get_qualified_locale.obj
 0002:00007708       ??_C@_1CI@PAJPIOOD@?$AAc?$AAh?$AAi?$AAn?$AAe?$AAs?$AAe?$AA?9?$AAt?$AAr?$AAa?$AAd?$AAi?$AAt?$AAi?$AAo?$AAn?$AAa?$AAl?$AA?$AA@ 10053708     libucrt:get_qualified_locale.obj
 0002:00007730       ??_C@_1BM@NILJBMMD@?$AAd?$AAu?$AAt?$AAc?$AAh?$AA?9?$AAb?$AAe?$AAl?$AAg?$AAi?$AAa?$AAn?$AA?$AA@ 10053730     libucrt:get_qualified_locale.obj
 0002:0000774c       ??_C@_1CC@OOJPJNEJ@?$AAe?$AAn?$AAg?$AAl?$AAi?$AAs?$AAh?$AA?9?$AAa?$AAm?$AAe?$AAr?$AAi?$AAc?$AAa?$AAn?$AA?$AA@ 1005374c     libucrt:get_qualified_locale.obj
 0002:00007770       ??_C@_1BI@IOLFEEM@?$AAe?$AAn?$AAg?$AAl?$AAi?$AAs?$AAh?$AA?9?$AAa?$AAu?$AAs?$AA?$AA@ 10053770     libucrt:get_qualified_locale.obj
 0002:00007788       ??_C@_1BO@HFFNLENJ@?$AAe?$AAn?$AAg?$AAl?$AAi?$AAs?$AAh?$AA?9?$AAb?$AAe?$AAl?$AAi?$AAz?$AAe?$AA?$AA@ 10053788     libucrt:get_qualified_locale.obj
 0002:000077a8       ??_C@_1BI@HAPKJMPO@?$AAe?$AAn?$AAg?$AAl?$AAi?$AAs?$AAh?$AA?9?$AAc?$AAa?$AAn?$AA?$AA@ 100537a8     libucrt:get_qualified_locale.obj
 0002:000077c0       ??_C@_1CE@HLNDMIOJ@?$AAe?$AAn?$AAg?$AAl?$AAi?$AAs?$AAh?$AA?9?$AAc?$AAa?$AAr?$AAi?$AAb?$AAb?$AAe?$AAa?$AAn?$AA?$AA@ 100537c0     libucrt:get_qualified_locale.obj
 0002:000077e4       ??_C@_1BI@LDHJHHAC@?$AAe?$AAn?$AAg?$AAl?$AAi?$AAs?$AAh?$AA?9?$AAi?$AAr?$AAe?$AA?$AA@ 100537e4     libucrt:get_qualified_locale.obj
 0002:000077fc       ??_C@_1CA@NJMMCFOC@?$AAe?$AAn?$AAg?$AAl?$AAi?$AAs?$AAh?$AA?9?$AAj?$AAa?$AAm?$AAa?$AAi?$AAc?$AAa?$AA?$AA@ 100537fc     libucrt:get_qualified_locale.obj
 0002:0000781c       ??_C@_1BG@BHJEBBGG@?$AAe?$AAn?$AAg?$AAl?$AAi?$AAs?$AAh?$AA?9?$AAn?$AAz?$AA?$AA@ 1005381c     libucrt:get_qualified_locale.obj
 0002:00007834       ??_C@_1CK@FGOEJJCO@?$AAe?$AAn?$AAg?$AAl?$AAi?$AAs?$AAh?$AA?9?$AAs?$AAo?$AAu?$AAt?$AAh?$AA?5?$AAa?$AAf?$AAr?$AAi?$AAc?$AAa?$AA?$AA@ 10053834     libucrt:get_qualified_locale.obj
 0002:00007860       ??_C@_1DE@PDBJPCJ@?$AAe?$AAn?$AAg?$AAl?$AAi?$AAs?$AAh?$AA?9?$AAt?$AAr?$AAi?$AAn?$AAi?$AAd?$AAa?$AAd?$AA?5?$AAy?$AA?5?$AAt?$AAo?$AAb?$AAa?$AAg?$AAo?$AA?$AA@ 10053860     libucrt:get_qualified_locale.obj
 0002:00007894       ??_C@_1BG@JGCANDME@?$AAe?$AAn?$AAg?$AAl?$AAi?$AAs?$AAh?$AA?9?$AAu?$AAk?$AA?$AA@ 10053894     libucrt:get_qualified_locale.obj
 0002:000078ac       ??_C@_1BG@DINKMLE@?$AAe?$AAn?$AAg?$AAl?$AAi?$AAs?$AAh?$AA?9?$AAu?$AAs?$AA?$AA@ 100538ac     libucrt:get_qualified_locale.obj
 0002:000078c4       ??_C@_1BI@NMFDBHJE@?$AAe?$AAn?$AAg?$AAl?$AAi?$AAs?$AAh?$AA?9?$AAu?$AAs?$AAa?$AA?$AA@ 100538c4     libucrt:get_qualified_locale.obj
 0002:000078dc       ??_C@_1BO@OIHKJKII@?$AAf?$AAr?$AAe?$AAn?$AAc?$AAh?$AA?9?$AAb?$AAe?$AAl?$AAg?$AAi?$AAa?$AAn?$AA?$AA@ 100538dc     libucrt:get_qualified_locale.obj
 0002:000078fc       ??_C@_1CA@NKAELJKI@?$AAf?$AAr?$AAe?$AAn?$AAc?$AAh?$AA?9?$AAc?$AAa?$AAn?$AAa?$AAd?$AAi?$AAa?$AAn?$AA?$AA@ 100538fc     libucrt:get_qualified_locale.obj
 0002:0000791c       ??_C@_1CE@MGKCNLGN@?$AAf?$AAr?$AAe?$AAn?$AAc?$AAh?$AA?9?$AAl?$AAu?$AAx?$AAe?$AAm?$AAb?$AAo?$AAu?$AAr?$AAg?$AA?$AA@ 1005391c     libucrt:get_qualified_locale.obj
 0002:00007940       ??_C@_1BK@CEGEAILM@?$AAf?$AAr?$AAe?$AAn?$AAc?$AAh?$AA?9?$AAs?$AAw?$AAi?$AAs?$AAs?$AA?$AA@ 10053940     libucrt:get_qualified_locale.obj
 0002:0000795c       ??_C@_1CA@PAFKEOCC@?$AAg?$AAe?$AAr?$AAm?$AAa?$AAn?$AA?9?$AAa?$AAu?$AAs?$AAt?$AAr?$AAi?$AAa?$AAn?$AA?$AA@ 1005395c     libucrt:get_qualified_locale.obj
 0002:0000797c       ??_C@_1CI@HCFHGOFD@?$AAg?$AAe?$AAr?$AAm?$AAa?$AAn?$AA?9?$AAl?$AAi?$AAc?$AAh?$AAt?$AAe?$AAn?$AAs?$AAt?$AAe?$AAi?$AAn?$AA?$AA@ 1005397c     libucrt:get_qualified_locale.obj
 0002:000079a4       ??_C@_1CE@FEDDNPDG@?$AAg?$AAe?$AAr?$AAm?$AAa?$AAn?$AA?9?$AAl?$AAu?$AAx?$AAe?$AAm?$AAb?$AAo?$AAu?$AAr?$AAg?$AA?$AA@ 100539a4     libucrt:get_qualified_locale.obj
 0002:000079c8       ??_C@_1BK@LIMINNMN@?$AAg?$AAe?$AAr?$AAm?$AAa?$AAn?$AA?9?$AAs?$AAw?$AAi?$AAs?$AAs?$AA?$AA@ 100539c8     libucrt:get_qualified_locale.obj
 0002:000079e4       ??_C@_1BM@LGMDBEPD@?$AAi?$AAr?$AAi?$AAs?$AAh?$AA?9?$AAe?$AAn?$AAg?$AAl?$AAi?$AAs?$AAh?$AA?$AA@ 100539e4     libucrt:get_qualified_locale.obj
 0002:00007a00       ??_C@_1BM@NNCFBAEE@?$AAi?$AAt?$AAa?$AAl?$AAi?$AAa?$AAn?$AA?9?$AAs?$AAw?$AAi?$AAs?$AAs?$AA?$AA@ 10053a00     libucrt:get_qualified_locale.obj
 0002:00007a1c       ??_C@_1BE@FEDJNPIB@?$AAn?$AAo?$AAr?$AAw?$AAe?$AAg?$AAi?$AAa?$AAn?$AA?$AA@ 10053a1c     libucrt:get_qualified_locale.obj
 0002:00007a30       ??_C@_1CC@CILKDEIE@?$AAn?$AAo?$AAr?$AAw?$AAe?$AAg?$AAi?$AAa?$AAn?$AA?9?$AAb?$AAo?$AAk?$AAm?$AAa?$AAl?$AA?$AA@ 10053a30     libucrt:get_qualified_locale.obj
 0002:00007a54       ??_C@_1CE@DHMMHEPL@?$AAn?$AAo?$AAr?$AAw?$AAe?$AAg?$AAi?$AAa?$AAn?$AA?9?$AAn?$AAy?$AAn?$AAo?$AAr?$AAs?$AAk?$AA?$AA@ 10053a54     libucrt:get_qualified_locale.obj
 0002:00007a78       ??_C@_1CK@OPNMHECD@?$AAp?$AAo?$AAr?$AAt?$AAu?$AAg?$AAu?$AAe?$AAs?$AAe?$AA?9?$AAb?$AAr?$AAa?$AAz?$AAi?$AAl?$AAi?$AAa?$AAn?$AA?$AA@ 10053a78     libucrt:get_qualified_locale.obj
 0002:00007aa4       ??_C@_1CE@KEEHCDB@?$AAs?$AAp?$AAa?$AAn?$AAi?$AAs?$AAh?$AA?9?$AAa?$AAr?$AAg?$AAe?$AAn?$AAt?$AAi?$AAn?$AAa?$AA?$AA@ 10053aa4     libucrt:get_qualified_locale.obj
 0002:00007ac8       ??_C@_1CA@GIAOLHJD@?$AAs?$AAp?$AAa?$AAn?$AAi?$AAs?$AAh?$AA?9?$AAb?$AAo?$AAl?$AAi?$AAv?$AAi?$AAa?$AA?$AA@ 10053ac8     libucrt:get_qualified_locale.obj
